Component: ARM Compiler 6.16 Tool: armlink [5dfeaa00]

==============================================================================

Section Cross References

    battleship.o(.text.main) refers to battleship.o(.text._Z15configureClocksv) for configureClocks()
    battleship.o(.text.main) refers to battleship.o(.text._Z11configureIOv) for configureIO()
    battleship.o(.text.main) refers to battleship.o(.text._Z10setupShipsv) for setupShips()
    battleship.o(.text.main) refers to battleship.o(.text._Z9turnonLEDi) for turnonLED(int)
    battleship.o(.text.main) refers to battleship.o(.text._Z5Delayv) for Delay()
    battleship.o(.text.main) refers to battleship.o(.text._Z15IsbuttonPressedv) for IsbuttonPressed()
    battleship.o(.text.main) refers to battleship.o(.text._Z6Insertv) for Insert()
    battleship.o(.text.main) refers to battleship.o(.text._Z11checkInputs8Location) for checkInputs(Location)
    battleship.o(.text.main) refers to battleship.o(.text._Z6attack8LocationRNSt3__26vectorINS0_12basic_stringIcNS0_11char_traitsIcEENS0_9allocatorIcEEEENS5_IS7_EEEE) for attack(Location, std::__2::vector<std::__2::basic_string<char, std::__2::char_traits<char>, std::__2::allocator<char> >, std::__2::allocator<std::__2::basic_string<char, std::__2::char_traits<char>, std::__2::allocator<char> > > >&)
    battleship.o(.text.main) refers to battleship.o(.text._ZNSt3__213__vector_baseINS_12basic_stringIcNS_11char_traitsIcEENS_9allocatorIcEEEENS4_IS6_EEED2Ev) for std::__2::__vector_base<std::__2::basic_string<char, std::__2::char_traits<char>, std::__2::allocator<char> >, std::__2::allocator<std::__2::basic_string<char, std::__2::char_traits<char>, std::__2::allocator<char> > > >::~__vector_base__sub_object()
    battleship.o(.ARM.exidx.text.main) refers to battleship.o(.text.main) for [Anonymous Symbol]
    battleship.o(.ARM.exidx.text._Z15configureClocksv) refers to battleship.o(.text._Z15configureClocksv) for [Anonymous Symbol]
    battleship.o(.ARM.exidx.text._Z11configureIOv) refers to battleship.o(.text._Z11configureIOv) for [Anonymous Symbol]
    battleship.o(.text._Z10setupShipsv) refers to battleship.o(.bss._ZL7vessels) for vessels
    battleship.o(.ARM.exidx.text._Z10setupShipsv) refers to battleship.o(.text._Z10setupShipsv) for [Anonymous Symbol]
    battleship.o(.text._Z9turnonLEDi) refers to battleship.o(.text._Z5Delayv) for Delay()
    battleship.o(.ARM.exidx.text._Z9turnonLEDi) refers to battleship.o(.text._Z9turnonLEDi) for [Anonymous Symbol]
    battleship.o(.ARM.exidx.text._Z5Delayv) refers to battleship.o(.text._Z5Delayv) for [Anonymous Symbol]
    battleship.o(.text._Z15IsbuttonPressedv) refers to battleship.o(.text._Z9turnonLEDi) for turnonLED(int)
    battleship.o(.text._Z15IsbuttonPressedv) refers to battleship.o(.text._Z5Delayv) for Delay()
    battleship.o(.ARM.exidx.text._Z15IsbuttonPressedv) refers to battleship.o(.text._Z15IsbuttonPressedv) for [Anonymous Symbol]
    battleship.o(.ARM.exidx.text._Z6Insertv) refers to battleship.o(.text._Z6Insertv) for [Anonymous Symbol]
    battleship.o(.ARM.exidx.text._Z11checkInputs8Location) refers to battleship.o(.text._Z11checkInputs8Location) for [Anonymous Symbol]
    battleship.o(.text._Z6attack8LocationRNSt3__26vectorINS0_12basic_stringIcNS0_11char_traitsIcEENS0_9allocatorIcEEEENS5_IS7_EEEE) refers to battleship.o(.bss._ZL7vessels) for vessels
    battleship.o(.text._Z6attack8LocationRNSt3__26vectorINS0_12basic_stringIcNS0_11char_traitsIcEENS0_9allocatorIcEEEENS5_IS7_EEEE) refers to battleship.o(.text._ZNSt3__211char_traitsIcE6lengthEPKc) for std::__2::char_traits<char>::length(char const*)
    battleship.o(.text._Z6attack8LocationRNSt3__26vectorINS0_12basic_stringIcNS0_11char_traitsIcEENS0_9allocatorIcEEEENS5_IS7_EEEE) refers to string.cpp.o(.text._ZNSt3__212basic_stringIcNS_11char_traitsIcEENS_9allocatorIcEEE6__initEPKcj) for std::__2::basic_string<char, std::__2::char_traits<char>, std::__2::allocator<char> >::__init(char const*, unsigned int)
    battleship.o(.text._Z6attack8LocationRNSt3__26vectorINS0_12basic_stringIcNS0_11char_traitsIcEENS0_9allocatorIcEEEENS5_IS7_EEEE) refers to battleship.o(.text._ZNSt3__26vectorINS_12basic_stringIcNS_11char_traitsIcEENS_9allocatorIcEEEENS4_IS6_EEE21_ConstructTransactionC2ERS8_j) for std::__2::vector<std::__2::basic_string<char, std::__2::char_traits<char>, std::__2::allocator<char> >, std::__2::allocator<std::__2::basic_string<char, std::__2::char_traits<char>, std::__2::allocator<char> > > >::_ConstructTransaction::_ConstructTransaction__sub_object(std::__2::vector<std::__2::basic_string<char, std::__2::char_traits<char>, std::__2::allocator<char> >, std::__2::allocator<std::__2::basic_string<char, std::__2::char_traits<char>, std::__2::allocator<char> > > >&, unsigned int)
    battleship.o(.text._Z6attack8LocationRNSt3__26vectorINS0_12basic_stringIcNS0_11char_traitsIcEENS0_9allocatorIcEEEENS5_IS7_EEEE) refers to battleship.o(.text._ZNSt3__26vectorINS_12basic_stringIcNS_11char_traitsIcEENS_9allocatorIcEEEENS4_IS6_EEE21_ConstructTransactionD2Ev) for std::__2::vector<std::__2::basic_string<char, std::__2::char_traits<char>, std::__2::allocator<char> >, std::__2::allocator<std::__2::basic_string<char, std::__2::char_traits<char>, std::__2::allocator<char> > > >::_ConstructTransaction::~_ConstructTransaction__sub_object()
    battleship.o(.text._Z6attack8LocationRNSt3__26vectorINS0_12basic_stringIcNS0_11char_traitsIcEENS0_9allocatorIcEEEENS5_IS7_EEEE) refers to battleship.o(.text._ZNKSt3__26vectorINS_12basic_stringIcNS_11char_traitsIcEENS_9allocatorIcEEEENS4_IS6_EEE8max_sizeEv) for std::__2::vector<std::__2::basic_string<char, std::__2::char_traits<char>, std::__2::allocator<char> >, std::__2::allocator<std::__2::basic_string<char, std::__2::char_traits<char>, std::__2::allocator<char> > > >::max_size() const
    battleship.o(.text._Z6attack8LocationRNSt3__26vectorINS0_12basic_stringIcNS0_11char_traitsIcEENS0_9allocatorIcEEEENS5_IS7_EEEE) refers to battleship.o(.text._ZNSt3__214__split_bufferINS_12basic_stringIcNS_11char_traitsIcEENS_9allocatorIcEEEERNS4_IS6_EEEC2EjjS8_) for std::__2::__split_buffer<std::__2::basic_string<char, std::__2::char_traits<char>, std::__2::allocator<char> >, std::__2::allocator<std::__2::basic_string<char, std::__2::char_traits<char>, std::__2::allocator<char> > >&>::__split_buffer__sub_object(unsigned int, unsigned int, std::__2::allocator<std::__2::basic_string<char, std::__2::char_traits<char>, std::__2::allocator<char> > >&)
    battleship.o(.text._Z6attack8LocationRNSt3__26vectorINS0_12basic_stringIcNS0_11char_traitsIcEENS0_9allocatorIcEEEENS5_IS7_EEEE) refers to battleship.o(.text._ZNSt3__26vectorINS_12basic_stringIcNS_11char_traitsIcEENS_9allocatorIcEEEENS4_IS6_EEE26__swap_out_circular_bufferERNS_14__split_bufferIS6_RS7_EE) for std::__2::vector<std::__2::basic_string<char, std::__2::char_traits<char>, std::__2::allocator<char> >, std::__2::allocator<std::__2::basic_string<char, std::__2::char_traits<char>, std::__2::allocator<char> > > >::__swap_out_circular_buffer(std::__2::__split_buffer<std::__2::basic_string<char, std::__2::char_traits<char>, std::__2::allocator<char> >, std::__2::allocator<std::__2::basic_string<char, std::__2::char_traits<char>, std::__2::allocator<char> > >&>&)
    battleship.o(.text._Z6attack8LocationRNSt3__26vectorINS0_12basic_stringIcNS0_11char_traitsIcEENS0_9allocatorIcEEEENS5_IS7_EEEE) refers to battleship.o(.text._ZNSt3__214__split_bufferINS_12basic_stringIcNS_11char_traitsIcEENS_9allocatorIcEEEERNS4_IS6_EEED2Ev) for std::__2::__split_buffer<std::__2::basic_string<char, std::__2::char_traits<char>, std::__2::allocator<char> >, std::__2::allocator<std::__2::basic_string<char, std::__2::char_traits<char>, std::__2::allocator<char> > >&>::~__split_buffer__sub_object()
    battleship.o(.text._Z6attack8LocationRNSt3__26vectorINS0_12basic_stringIcNS0_11char_traitsIcEENS0_9allocatorIcEEEENS5_IS7_EEEE) refers to string.cpp.o(.text._ZNSt3__212basic_stringIcNS_11char_traitsIcEENS_9allocatorIcEEED2Ev) for std::__2::basic_string<char, std::__2::char_traits<char>, std::__2::allocator<char> >::~basic_string__sub_object()
    battleship.o(.text._Z6attack8LocationRNSt3__26vectorINS0_12basic_stringIcNS0_11char_traitsIcEENS0_9allocatorIcEEEENS5_IS7_EEEE) refers to battleship.o(.text._Z9turnonLEDi) for turnonLED(int)
    battleship.o(.text._Z6attack8LocationRNSt3__26vectorINS0_12basic_stringIcNS0_11char_traitsIcEENS0_9allocatorIcEEEENS5_IS7_EEEE) refers to vector.cpp.o(.text._ZNKSt3__220__vector_base_commonILb1EE20__throw_length_errorEv) for std::__2::__vector_base_common<true>::__throw_length_error() const
    battleship.o(.ARM.exidx.text._Z6attack8LocationRNSt3__26vectorINS0_12basic_stringIcNS0_11char_traitsIcEENS0_9allocatorIcEEEENS5_IS7_EEEE) refers to battleship.o(.text._Z6attack8LocationRNSt3__26vectorINS0_12basic_stringIcNS0_11char_traitsIcEENS0_9allocatorIcEEEENS5_IS7_EEEE) for [Anonymous Symbol]
    io_hw.o(.ARM.exidx.text._Z10displaySeav) refers to io_hw.o(.text._Z10displaySeav) for [Anonymous Symbol]
    startup_stm32f10x_md.o(STACK) refers (Special) to heapauxi.o(.text) for __use_two_region_memory
    startup_stm32f10x_md.o(HEAP) refers (Special) to heapauxi.o(.text) for __use_two_region_memory
    startup_stm32f10x_md.o(RESET) refers (Special) to heapauxi.o(.text) for __use_two_region_memory
    startup_stm32f10x_md.o(RESET) refers to startup_stm32f10x_md.o(STACK) for __initial_sp
    startup_stm32f10x_md.o(RESET) refers to startup_stm32f10x_md.o(.text) for Reset_Handler
    startup_stm32f10x_md.o(.text) refers (Special) to heapauxi.o(.text) for __use_two_region_memory
    startup_stm32f10x_md.o(.text) refers to system_stm32f10x.o(.text.SystemInit) for SystemInit
    startup_stm32f10x_md.o(.text) refers to __main.o(!!!main) for __main
    startup_stm32f10x_md.o(.text) refers to startup_stm32f10x_md.o(HEAP) for Heap_Mem
    startup_stm32f10x_md.o(.text) refers to startup_stm32f10x_md.o(STACK) for Stack_Mem
    system_stm32f10x.o(.text.SystemInit) refers to system_stm32f10x.o(.text.SetSysClock) for SetSysClock
    system_stm32f10x.o(.ARM.exidx.text.SystemInit) refers to system_stm32f10x.o(.text.SystemInit) for [Anonymous Symbol]
    system_stm32f10x.o(.text.SetSysClock) refers to system_stm32f10x.o(.text.SetSysClockTo72) for SetSysClockTo72
    system_stm32f10x.o(.ARM.exidx.text.SetSysClock) refers to system_stm32f10x.o(.text.SetSysClock) for [Anonymous Symbol]
    system_stm32f10x.o(.text.SystemCoreClockUpdate) refers to system_stm32f10x.o(.data.SystemCoreClock) for SystemCoreClock
    system_stm32f10x.o(.text.SystemCoreClockUpdate) refers to system_stm32f10x.o(.rodata.AHBPrescTable) for AHBPrescTable
    system_stm32f10x.o(.ARM.exidx.text.SystemCoreClockUpdate) refers to system_stm32f10x.o(.text.SystemCoreClockUpdate) for [Anonymous Symbol]
    system_stm32f10x.o(.ARM.exidx.text.SetSysClockTo72) refers to system_stm32f10x.o(.text.SetSysClockTo72) for [Anonymous Symbol]
    abort.o(.text) refers to defsig_abrt_outer.o(.text) for __rt_SIGABRT
    abort.o(.text) refers (Weak) to libshutdown.o(.ARM.Collect$$libshutdown$$00000000) for __rt_lib_shutdown
    abort.o(.text) refers to sys_exit.o(.text) for _sys_exit
    rt_memcpy_v6.o(.text) refers to rt_memcpy_w.o(.text) for __aeabi_memcpy4
    __main.o(!!!main) refers to __rtentry.o(.ARM.Collect$$rtentry$$00000000) for __rt_entry
    new.cpp.o(.text._ZSt17__throw_bad_allocv) refers to abort.o(.text) for abort
    new.cpp.o(.ARM.exidx.text._ZSt17__throw_bad_allocv) refers to new.cpp.o(.text._ZSt17__throw_bad_allocv) for [Anonymous Symbol]
    new.cpp.o(.text._Znwj) refers to h1_alloc.o(.text) for malloc
    new.cpp.o(.text._Znwj) refers to cxa_handlers.cpp.o(.text._ZSt15get_new_handlerv) for std::get_new_handler()
    new.cpp.o(.ARM.exidx.text._Znwj) refers to new.cpp.o(.text._Znwj) for [Anonymous Symbol]
    new.cpp.o(.text._ZnwjRKSt9nothrow_t) refers to new.cpp.o(.text._Znwj) for operator new(unsigned int)
    new.cpp.o(.ARM.exidx.text._ZnwjRKSt9nothrow_t) refers to new.cpp.o(.text._ZnwjRKSt9nothrow_t) for [Anonymous Symbol]
    new.cpp.o(.text._Znaj) refers to new.cpp.o(.text._Znwj) for operator new(unsigned int)
    new.cpp.o(.ARM.exidx.text._Znaj) refers to new.cpp.o(.text._Znaj) for [Anonymous Symbol]
    new.cpp.o(.text._ZnajRKSt9nothrow_t) refers to new.cpp.o(.text._Znaj) for operator new[](unsigned int)
    new.cpp.o(.ARM.exidx.text._ZnajRKSt9nothrow_t) refers to new.cpp.o(.text._ZnajRKSt9nothrow_t) for [Anonymous Symbol]
    new.cpp.o(.text._ZdlPv) refers to h1_free.o(.text) for free
    new.cpp.o(.ARM.exidx.text._ZdlPv) refers to new.cpp.o(.text._ZdlPv) for [Anonymous Symbol]
    new.cpp.o(.text._ZdlPvRKSt9nothrow_t) refers to new.cpp.o(.text._ZdlPv) for operator delete(void*)
    new.cpp.o(.ARM.exidx.text._ZdlPvRKSt9nothrow_t) refers to new.cpp.o(.text._ZdlPvRKSt9nothrow_t) for [Anonymous Symbol]
    new.cpp.o(.text._ZdlPvj) refers to new.cpp.o(.text._ZdlPv) for operator delete(void*)
    new.cpp.o(.ARM.exidx.text._ZdlPvj) refers to new.cpp.o(.text._ZdlPvj) for [Anonymous Symbol]
    new.cpp.o(.text._ZdaPv) refers to new.cpp.o(.text._ZdlPv) for operator delete(void*)
    new.cpp.o(.ARM.exidx.text._ZdaPv) refers to new.cpp.o(.text._ZdaPv) for [Anonymous Symbol]
    new.cpp.o(.text._ZdaPvRKSt9nothrow_t) refers to new.cpp.o(.text._ZdaPv) for operator delete[](void*)
    new.cpp.o(.ARM.exidx.text._ZdaPvRKSt9nothrow_t) refers to new.cpp.o(.text._ZdaPvRKSt9nothrow_t) for [Anonymous Symbol]
    new.cpp.o(.text._ZdaPvj) refers to new.cpp.o(.text._ZdaPv) for operator delete[](void*)
    new.cpp.o(.ARM.exidx.text._ZdaPvj) refers to new.cpp.o(.text._ZdaPvj) for [Anonymous Symbol]
    new.cpp.o(.text._ZnwjSt11align_val_t) refers to h1_memalign.o(.text) for posix_memalign
    new.cpp.o(.text._ZnwjSt11align_val_t) refers to cxa_handlers.cpp.o(.text._ZSt15get_new_handlerv) for std::get_new_handler()
    new.cpp.o(.ARM.exidx.text._ZnwjSt11align_val_t) refers to new.cpp.o(.text._ZnwjSt11align_val_t) for [Anonymous Symbol]
    new.cpp.o(.text._ZnwjSt11align_val_tRKSt9nothrow_t) refers to new.cpp.o(.text._ZnwjSt11align_val_t) for operator new(unsigned int, std::align_val_t)
    new.cpp.o(.ARM.exidx.text._ZnwjSt11align_val_tRKSt9nothrow_t) refers to new.cpp.o(.text._ZnwjSt11align_val_tRKSt9nothrow_t) for [Anonymous Symbol]
    new.cpp.o(.text._ZnajSt11align_val_t) refers to new.cpp.o(.text._ZnwjSt11align_val_t) for operator new(unsigned int, std::align_val_t)
    new.cpp.o(.ARM.exidx.text._ZnajSt11align_val_t) refers to new.cpp.o(.text._ZnajSt11align_val_t) for [Anonymous Symbol]
    new.cpp.o(.text._ZnajSt11align_val_tRKSt9nothrow_t) refers to new.cpp.o(.text._ZnajSt11align_val_t) for operator new[](unsigned int, std::align_val_t)
    new.cpp.o(.ARM.exidx.text._ZnajSt11align_val_tRKSt9nothrow_t) refers to new.cpp.o(.text._ZnajSt11align_val_tRKSt9nothrow_t) for [Anonymous Symbol]
    new.cpp.o(.text._ZdlPvSt11align_val_t) refers to h1_free.o(.text) for free
    new.cpp.o(.ARM.exidx.text._ZdlPvSt11align_val_t) refers to new.cpp.o(.text._ZdlPvSt11align_val_t) for [Anonymous Symbol]
    new.cpp.o(.text._ZdlPvSt11align_val_tRKSt9nothrow_t) refers to new.cpp.o(.text._ZdlPvSt11align_val_t) for operator delete(void*, std::align_val_t)
    new.cpp.o(.ARM.exidx.text._ZdlPvSt11align_val_tRKSt9nothrow_t) refers to new.cpp.o(.text._ZdlPvSt11align_val_tRKSt9nothrow_t) for [Anonymous Symbol]
    new.cpp.o(.text._ZdlPvjSt11align_val_t) refers to new.cpp.o(.text._ZdlPvSt11align_val_t) for operator delete(void*, std::align_val_t)
    new.cpp.o(.ARM.exidx.text._ZdlPvjSt11align_val_t) refers to new.cpp.o(.text._ZdlPvjSt11align_val_t) for [Anonymous Symbol]
    new.cpp.o(.text._ZdaPvSt11align_val_t) refers to new.cpp.o(.text._ZdlPvSt11align_val_t) for operator delete(void*, std::align_val_t)
    new.cpp.o(.ARM.exidx.text._ZdaPvSt11align_val_t) refers to new.cpp.o(.text._ZdaPvSt11align_val_t) for [Anonymous Symbol]
    new.cpp.o(.text._ZdaPvSt11align_val_tRKSt9nothrow_t) refers to new.cpp.o(.text._ZdaPvSt11align_val_t) for operator delete[](void*, std::align_val_t)
    new.cpp.o(.ARM.exidx.text._ZdaPvSt11align_val_tRKSt9nothrow_t) refers to new.cpp.o(.text._ZdaPvSt11align_val_tRKSt9nothrow_t) for [Anonymous Symbol]
    new.cpp.o(.text._ZdaPvjSt11align_val_t) refers to new.cpp.o(.text._ZdaPvSt11align_val_t) for operator delete[](void*, std::align_val_t)
    new.cpp.o(.ARM.exidx.text._ZdaPvjSt11align_val_t) refers to new.cpp.o(.text._ZdaPvjSt11align_val_t) for [Anonymous Symbol]
    string.cpp.o(.text) refers (Special) to _printf_f.o(.ARM.Collect$$_printf_percent$$00000003) for _printf_f
    string.cpp.o(.text) refers (Special) to printf1.o(x$fpl$printf1) for _printf_fp_dec
    string.cpp.o(.text) refers (Special) to _printf_percent.o(.ARM.Collect$$_printf_percent$$00000000) for _printf_percent
    string.cpp.o(.text) refers (Special) to _printf_s.o(.ARM.Collect$$_printf_percent$$00000014) for _printf_s
    string.cpp.o(.text) refers (Special) to _printf_str.o(.text) for _printf_str
    string.cpp.o(.text._ZNSt3__24stoiERKNS_12basic_stringIcNS_11char_traitsIcEENS_9allocatorIcEEEEPji) refers (Special) to _printf_f.o(.ARM.Collect$$_printf_percent$$00000003) for _printf_f
    string.cpp.o(.text._ZNSt3__24stoiERKNS_12basic_stringIcNS_11char_traitsIcEENS_9allocatorIcEEEEPji) refers (Special) to printf1.o(x$fpl$printf1) for _printf_fp_dec
    string.cpp.o(.text._ZNSt3__24stoiERKNS_12basic_stringIcNS_11char_traitsIcEENS_9allocatorIcEEEEPji) refers (Special) to _printf_percent.o(.ARM.Collect$$_printf_percent$$00000000) for _printf_percent
    string.cpp.o(.text._ZNSt3__24stoiERKNS_12basic_stringIcNS_11char_traitsIcEENS_9allocatorIcEEEEPji) refers (Special) to _printf_s.o(.ARM.Collect$$_printf_percent$$00000014) for _printf_s
    string.cpp.o(.text._ZNSt3__24stoiERKNS_12basic_stringIcNS_11char_traitsIcEENS_9allocatorIcEEEEPji) refers (Special) to _printf_str.o(.text) for _printf_str
    string.cpp.o(.text._ZNSt3__24stoiERKNS_12basic_stringIcNS_11char_traitsIcEENS_9allocatorIcEEEEPji) refers to rt_errno_addr_intlibspace.o(.text) for __aeabi_errno_addr
    string.cpp.o(.text._ZNSt3__24stoiERKNS_12basic_stringIcNS_11char_traitsIcEENS_9allocatorIcEEEEPji) refers to strtol.o(.text) for strtol
    string.cpp.o(.text._ZNSt3__24stoiERKNS_12basic_stringIcNS_11char_traitsIcEENS_9allocatorIcEEEEPji) refers to string.cpp.o(.text._ZNSt3__212_GLOBAL__N_130throw_from_string_out_of_rangeERKNS_12basic_stringIcNS_11char_traitsIcEENS_9allocatorIcEEEE) for std::__2::(anonymous namespace)::throw_from_string_out_of_range(std::__2::basic_string<char, std::__2::char_traits<char>, std::__2::allocator<char> > const&)
    string.cpp.o(.text._ZNSt3__24stoiERKNS_12basic_stringIcNS_11char_traitsIcEENS_9allocatorIcEEEEPji) refers to string.cpp.o(.text._ZNSt3__212_GLOBAL__N_129throw_from_string_invalid_argERKNS_12basic_stringIcNS_11char_traitsIcEENS_9allocatorIcEEEE) for std::__2::(anonymous namespace)::throw_from_string_invalid_arg(std::__2::basic_string<char, std::__2::char_traits<char>, std::__2::allocator<char> > const&)
    string.cpp.o(.ARM.exidx.text._ZNSt3__24stoiERKNS_12basic_stringIcNS_11char_traitsIcEENS_9allocatorIcEEEEPji) refers (Special) to _printf_f.o(.ARM.Collect$$_printf_percent$$00000003) for _printf_f
    string.cpp.o(.ARM.exidx.text._ZNSt3__24stoiERKNS_12basic_stringIcNS_11char_traitsIcEENS_9allocatorIcEEEEPji) refers (Special) to printf1.o(x$fpl$printf1) for _printf_fp_dec
    string.cpp.o(.ARM.exidx.text._ZNSt3__24stoiERKNS_12basic_stringIcNS_11char_traitsIcEENS_9allocatorIcEEEEPji) refers (Special) to _printf_percent.o(.ARM.Collect$$_printf_percent$$00000000) for _printf_percent
    string.cpp.o(.ARM.exidx.text._ZNSt3__24stoiERKNS_12basic_stringIcNS_11char_traitsIcEENS_9allocatorIcEEEEPji) refers (Special) to _printf_s.o(.ARM.Collect$$_printf_percent$$00000014) for _printf_s
    string.cpp.o(.ARM.exidx.text._ZNSt3__24stoiERKNS_12basic_stringIcNS_11char_traitsIcEENS_9allocatorIcEEEEPji) refers (Special) to _printf_str.o(.text) for _printf_str
    string.cpp.o(.ARM.exidx.text._ZNSt3__24stoiERKNS_12basic_stringIcNS_11char_traitsIcEENS_9allocatorIcEEEEPji) refers to string.cpp.o(.text._ZNSt3__24stoiERKNS_12basic_stringIcNS_11char_traitsIcEENS_9allocatorIcEEEEPji) for [Anonymous Symbol]
    string.cpp.o(.text._ZNSt3__24stoiERKNS_12basic_stringIwNS_11char_traitsIwEENS_9allocatorIwEEEEPji) refers (Special) to _printf_f.o(.ARM.Collect$$_printf_percent$$00000003) for _printf_f
    string.cpp.o(.text._ZNSt3__24stoiERKNS_12basic_stringIwNS_11char_traitsIwEENS_9allocatorIwEEEEPji) refers (Special) to printf1.o(x$fpl$printf1) for _printf_fp_dec
    string.cpp.o(.text._ZNSt3__24stoiERKNS_12basic_stringIwNS_11char_traitsIwEENS_9allocatorIwEEEEPji) refers (Special) to _printf_percent.o(.ARM.Collect$$_printf_percent$$00000000) for _printf_percent
    string.cpp.o(.text._ZNSt3__24stoiERKNS_12basic_stringIwNS_11char_traitsIwEENS_9allocatorIwEEEEPji) refers (Special) to _printf_s.o(.ARM.Collect$$_printf_percent$$00000014) for _printf_s
    string.cpp.o(.text._ZNSt3__24stoiERKNS_12basic_stringIwNS_11char_traitsIwEENS_9allocatorIwEEEEPji) refers (Special) to _printf_str.o(.text) for _printf_str
    string.cpp.o(.text._ZNSt3__24stoiERKNS_12basic_stringIwNS_11char_traitsIwEENS_9allocatorIwEEEEPji) refers to rt_errno_addr_intlibspace.o(.text) for __aeabi_errno_addr
    string.cpp.o(.text._ZNSt3__24stoiERKNS_12basic_stringIwNS_11char_traitsIwEENS_9allocatorIwEEEEPji) refers to wcstol.o(.text) for wcstol
    string.cpp.o(.text._ZNSt3__24stoiERKNS_12basic_stringIwNS_11char_traitsIwEENS_9allocatorIwEEEEPji) refers to string.cpp.o(.text._ZNSt3__212_GLOBAL__N_130throw_from_string_out_of_rangeERKNS_12basic_stringIcNS_11char_traitsIcEENS_9allocatorIcEEEE) for std::__2::(anonymous namespace)::throw_from_string_out_of_range(std::__2::basic_string<char, std::__2::char_traits<char>, std::__2::allocator<char> > const&)
    string.cpp.o(.text._ZNSt3__24stoiERKNS_12basic_stringIwNS_11char_traitsIwEENS_9allocatorIwEEEEPji) refers to string.cpp.o(.text._ZNSt3__212_GLOBAL__N_129throw_from_string_invalid_argERKNS_12basic_stringIcNS_11char_traitsIcEENS_9allocatorIcEEEE) for std::__2::(anonymous namespace)::throw_from_string_invalid_arg(std::__2::basic_string<char, std::__2::char_traits<char>, std::__2::allocator<char> > const&)
    string.cpp.o(.ARM.exidx.text._ZNSt3__24stoiERKNS_12basic_stringIwNS_11char_traitsIwEENS_9allocatorIwEEEEPji) refers (Special) to _printf_f.o(.ARM.Collect$$_printf_percent$$00000003) for _printf_f
    string.cpp.o(.ARM.exidx.text._ZNSt3__24stoiERKNS_12basic_stringIwNS_11char_traitsIwEENS_9allocatorIwEEEEPji) refers (Special) to printf1.o(x$fpl$printf1) for _printf_fp_dec
    string.cpp.o(.ARM.exidx.text._ZNSt3__24stoiERKNS_12basic_stringIwNS_11char_traitsIwEENS_9allocatorIwEEEEPji) refers (Special) to _printf_percent.o(.ARM.Collect$$_printf_percent$$00000000) for _printf_percent
    string.cpp.o(.ARM.exidx.text._ZNSt3__24stoiERKNS_12basic_stringIwNS_11char_traitsIwEENS_9allocatorIwEEEEPji) refers (Special) to _printf_s.o(.ARM.Collect$$_printf_percent$$00000014) for _printf_s
    string.cpp.o(.ARM.exidx.text._ZNSt3__24stoiERKNS_12basic_stringIwNS_11char_traitsIwEENS_9allocatorIwEEEEPji) refers (Special) to _printf_str.o(.text) for _printf_str
    string.cpp.o(.ARM.exidx.text._ZNSt3__24stoiERKNS_12basic_stringIwNS_11char_traitsIwEENS_9allocatorIwEEEEPji) refers to string.cpp.o(.text._ZNSt3__24stoiERKNS_12basic_stringIwNS_11char_traitsIwEENS_9allocatorIwEEEEPji) for [Anonymous Symbol]
    string.cpp.o(.text._ZNSt3__24stolERKNS_12basic_stringIcNS_11char_traitsIcEENS_9allocatorIcEEEEPji) refers (Special) to _printf_f.o(.ARM.Collect$$_printf_percent$$00000003) for _printf_f
    string.cpp.o(.text._ZNSt3__24stolERKNS_12basic_stringIcNS_11char_traitsIcEENS_9allocatorIcEEEEPji) refers (Special) to printf1.o(x$fpl$printf1) for _printf_fp_dec
    string.cpp.o(.text._ZNSt3__24stolERKNS_12basic_stringIcNS_11char_traitsIcEENS_9allocatorIcEEEEPji) refers (Special) to _printf_percent.o(.ARM.Collect$$_printf_percent$$00000000) for _printf_percent
    string.cpp.o(.text._ZNSt3__24stolERKNS_12basic_stringIcNS_11char_traitsIcEENS_9allocatorIcEEEEPji) refers (Special) to _printf_s.o(.ARM.Collect$$_printf_percent$$00000014) for _printf_s
    string.cpp.o(.text._ZNSt3__24stolERKNS_12basic_stringIcNS_11char_traitsIcEENS_9allocatorIcEEEEPji) refers (Special) to _printf_str.o(.text) for _printf_str
    string.cpp.o(.text._ZNSt3__24stolERKNS_12basic_stringIcNS_11char_traitsIcEENS_9allocatorIcEEEEPji) refers to rt_errno_addr_intlibspace.o(.text) for __aeabi_errno_addr
    string.cpp.o(.text._ZNSt3__24stolERKNS_12basic_stringIcNS_11char_traitsIcEENS_9allocatorIcEEEEPji) refers to strtol.o(.text) for strtol
    string.cpp.o(.text._ZNSt3__24stolERKNS_12basic_stringIcNS_11char_traitsIcEENS_9allocatorIcEEEEPji) refers to string.cpp.o(.text._ZNSt3__212_GLOBAL__N_130throw_from_string_out_of_rangeERKNS_12basic_stringIcNS_11char_traitsIcEENS_9allocatorIcEEEE) for std::__2::(anonymous namespace)::throw_from_string_out_of_range(std::__2::basic_string<char, std::__2::char_traits<char>, std::__2::allocator<char> > const&)
    string.cpp.o(.text._ZNSt3__24stolERKNS_12basic_stringIcNS_11char_traitsIcEENS_9allocatorIcEEEEPji) refers to string.cpp.o(.text._ZNSt3__212_GLOBAL__N_129throw_from_string_invalid_argERKNS_12basic_stringIcNS_11char_traitsIcEENS_9allocatorIcEEEE) for std::__2::(anonymous namespace)::throw_from_string_invalid_arg(std::__2::basic_string<char, std::__2::char_traits<char>, std::__2::allocator<char> > const&)
    string.cpp.o(.ARM.exidx.text._ZNSt3__24stolERKNS_12basic_stringIcNS_11char_traitsIcEENS_9allocatorIcEEEEPji) refers (Special) to _printf_f.o(.ARM.Collect$$_printf_percent$$00000003) for _printf_f
    string.cpp.o(.ARM.exidx.text._ZNSt3__24stolERKNS_12basic_stringIcNS_11char_traitsIcEENS_9allocatorIcEEEEPji) refers (Special) to printf1.o(x$fpl$printf1) for _printf_fp_dec
    string.cpp.o(.ARM.exidx.text._ZNSt3__24stolERKNS_12basic_stringIcNS_11char_traitsIcEENS_9allocatorIcEEEEPji) refers (Special) to _printf_percent.o(.ARM.Collect$$_printf_percent$$00000000) for _printf_percent
    string.cpp.o(.ARM.exidx.text._ZNSt3__24stolERKNS_12basic_stringIcNS_11char_traitsIcEENS_9allocatorIcEEEEPji) refers (Special) to _printf_s.o(.ARM.Collect$$_printf_percent$$00000014) for _printf_s
    string.cpp.o(.ARM.exidx.text._ZNSt3__24stolERKNS_12basic_stringIcNS_11char_traitsIcEENS_9allocatorIcEEEEPji) refers (Special) to _printf_str.o(.text) for _printf_str
    string.cpp.o(.ARM.exidx.text._ZNSt3__24stolERKNS_12basic_stringIcNS_11char_traitsIcEENS_9allocatorIcEEEEPji) refers to string.cpp.o(.text._ZNSt3__24stolERKNS_12basic_stringIcNS_11char_traitsIcEENS_9allocatorIcEEEEPji) for [Anonymous Symbol]
    string.cpp.o(.text._ZNSt3__24stolERKNS_12basic_stringIwNS_11char_traitsIwEENS_9allocatorIwEEEEPji) refers (Special) to _printf_f.o(.ARM.Collect$$_printf_percent$$00000003) for _printf_f
    string.cpp.o(.text._ZNSt3__24stolERKNS_12basic_stringIwNS_11char_traitsIwEENS_9allocatorIwEEEEPji) refers (Special) to printf1.o(x$fpl$printf1) for _printf_fp_dec
    string.cpp.o(.text._ZNSt3__24stolERKNS_12basic_stringIwNS_11char_traitsIwEENS_9allocatorIwEEEEPji) refers (Special) to _printf_percent.o(.ARM.Collect$$_printf_percent$$00000000) for _printf_percent
    string.cpp.o(.text._ZNSt3__24stolERKNS_12basic_stringIwNS_11char_traitsIwEENS_9allocatorIwEEEEPji) refers (Special) to _printf_s.o(.ARM.Collect$$_printf_percent$$00000014) for _printf_s
    string.cpp.o(.text._ZNSt3__24stolERKNS_12basic_stringIwNS_11char_traitsIwEENS_9allocatorIwEEEEPji) refers (Special) to _printf_str.o(.text) for _printf_str
    string.cpp.o(.text._ZNSt3__24stolERKNS_12basic_stringIwNS_11char_traitsIwEENS_9allocatorIwEEEEPji) refers to rt_errno_addr_intlibspace.o(.text) for __aeabi_errno_addr
    string.cpp.o(.text._ZNSt3__24stolERKNS_12basic_stringIwNS_11char_traitsIwEENS_9allocatorIwEEEEPji) refers to wcstol.o(.text) for wcstol
    string.cpp.o(.text._ZNSt3__24stolERKNS_12basic_stringIwNS_11char_traitsIwEENS_9allocatorIwEEEEPji) refers to string.cpp.o(.text._ZNSt3__212_GLOBAL__N_130throw_from_string_out_of_rangeERKNS_12basic_stringIcNS_11char_traitsIcEENS_9allocatorIcEEEE) for std::__2::(anonymous namespace)::throw_from_string_out_of_range(std::__2::basic_string<char, std::__2::char_traits<char>, std::__2::allocator<char> > const&)
    string.cpp.o(.text._ZNSt3__24stolERKNS_12basic_stringIwNS_11char_traitsIwEENS_9allocatorIwEEEEPji) refers to string.cpp.o(.text._ZNSt3__212_GLOBAL__N_129throw_from_string_invalid_argERKNS_12basic_stringIcNS_11char_traitsIcEENS_9allocatorIcEEEE) for std::__2::(anonymous namespace)::throw_from_string_invalid_arg(std::__2::basic_string<char, std::__2::char_traits<char>, std::__2::allocator<char> > const&)
    string.cpp.o(.ARM.exidx.text._ZNSt3__24stolERKNS_12basic_stringIwNS_11char_traitsIwEENS_9allocatorIwEEEEPji) refers (Special) to _printf_f.o(.ARM.Collect$$_printf_percent$$00000003) for _printf_f
    string.cpp.o(.ARM.exidx.text._ZNSt3__24stolERKNS_12basic_stringIwNS_11char_traitsIwEENS_9allocatorIwEEEEPji) refers (Special) to printf1.o(x$fpl$printf1) for _printf_fp_dec
    string.cpp.o(.ARM.exidx.text._ZNSt3__24stolERKNS_12basic_stringIwNS_11char_traitsIwEENS_9allocatorIwEEEEPji) refers (Special) to _printf_percent.o(.ARM.Collect$$_printf_percent$$00000000) for _printf_percent
    string.cpp.o(.ARM.exidx.text._ZNSt3__24stolERKNS_12basic_stringIwNS_11char_traitsIwEENS_9allocatorIwEEEEPji) refers (Special) to _printf_s.o(.ARM.Collect$$_printf_percent$$00000014) for _printf_s
    string.cpp.o(.ARM.exidx.text._ZNSt3__24stolERKNS_12basic_stringIwNS_11char_traitsIwEENS_9allocatorIwEEEEPji) refers (Special) to _printf_str.o(.text) for _printf_str
    string.cpp.o(.ARM.exidx.text._ZNSt3__24stolERKNS_12basic_stringIwNS_11char_traitsIwEENS_9allocatorIwEEEEPji) refers to string.cpp.o(.text._ZNSt3__24stolERKNS_12basic_stringIwNS_11char_traitsIwEENS_9allocatorIwEEEEPji) for [Anonymous Symbol]
    string.cpp.o(.text._ZNSt3__25stoulERKNS_12basic_stringIcNS_11char_traitsIcEENS_9allocatorIcEEEEPji) refers (Special) to _printf_f.o(.ARM.Collect$$_printf_percent$$00000003) for _printf_f
    string.cpp.o(.text._ZNSt3__25stoulERKNS_12basic_stringIcNS_11char_traitsIcEENS_9allocatorIcEEEEPji) refers (Special) to printf1.o(x$fpl$printf1) for _printf_fp_dec
    string.cpp.o(.text._ZNSt3__25stoulERKNS_12basic_stringIcNS_11char_traitsIcEENS_9allocatorIcEEEEPji) refers (Special) to _printf_percent.o(.ARM.Collect$$_printf_percent$$00000000) for _printf_percent
    string.cpp.o(.text._ZNSt3__25stoulERKNS_12basic_stringIcNS_11char_traitsIcEENS_9allocatorIcEEEEPji) refers (Special) to _printf_s.o(.ARM.Collect$$_printf_percent$$00000014) for _printf_s
    string.cpp.o(.text._ZNSt3__25stoulERKNS_12basic_stringIcNS_11char_traitsIcEENS_9allocatorIcEEEEPji) refers (Special) to _printf_str.o(.text) for _printf_str
    string.cpp.o(.text._ZNSt3__25stoulERKNS_12basic_stringIcNS_11char_traitsIcEENS_9allocatorIcEEEEPji) refers to rt_errno_addr_intlibspace.o(.text) for __aeabi_errno_addr
    string.cpp.o(.text._ZNSt3__25stoulERKNS_12basic_stringIcNS_11char_traitsIcEENS_9allocatorIcEEEEPji) refers to strtoul.o(.text) for strtoul
    string.cpp.o(.text._ZNSt3__25stoulERKNS_12basic_stringIcNS_11char_traitsIcEENS_9allocatorIcEEEEPji) refers to string.cpp.o(.text._ZNSt3__212_GLOBAL__N_130throw_from_string_out_of_rangeERKNS_12basic_stringIcNS_11char_traitsIcEENS_9allocatorIcEEEE) for std::__2::(anonymous namespace)::throw_from_string_out_of_range(std::__2::basic_string<char, std::__2::char_traits<char>, std::__2::allocator<char> > const&)
    string.cpp.o(.text._ZNSt3__25stoulERKNS_12basic_stringIcNS_11char_traitsIcEENS_9allocatorIcEEEEPji) refers to string.cpp.o(.text._ZNSt3__212_GLOBAL__N_129throw_from_string_invalid_argERKNS_12basic_stringIcNS_11char_traitsIcEENS_9allocatorIcEEEE) for std::__2::(anonymous namespace)::throw_from_string_invalid_arg(std::__2::basic_string<char, std::__2::char_traits<char>, std::__2::allocator<char> > const&)
    string.cpp.o(.ARM.exidx.text._ZNSt3__25stoulERKNS_12basic_stringIcNS_11char_traitsIcEENS_9allocatorIcEEEEPji) refers (Special) to _printf_f.o(.ARM.Collect$$_printf_percent$$00000003) for _printf_f
    string.cpp.o(.ARM.exidx.text._ZNSt3__25stoulERKNS_12basic_stringIcNS_11char_traitsIcEENS_9allocatorIcEEEEPji) refers (Special) to printf1.o(x$fpl$printf1) for _printf_fp_dec
    string.cpp.o(.ARM.exidx.text._ZNSt3__25stoulERKNS_12basic_stringIcNS_11char_traitsIcEENS_9allocatorIcEEEEPji) refers (Special) to _printf_percent.o(.ARM.Collect$$_printf_percent$$00000000) for _printf_percent
    string.cpp.o(.ARM.exidx.text._ZNSt3__25stoulERKNS_12basic_stringIcNS_11char_traitsIcEENS_9allocatorIcEEEEPji) refers (Special) to _printf_s.o(.ARM.Collect$$_printf_percent$$00000014) for _printf_s
    string.cpp.o(.ARM.exidx.text._ZNSt3__25stoulERKNS_12basic_stringIcNS_11char_traitsIcEENS_9allocatorIcEEEEPji) refers (Special) to _printf_str.o(.text) for _printf_str
    string.cpp.o(.ARM.exidx.text._ZNSt3__25stoulERKNS_12basic_stringIcNS_11char_traitsIcEENS_9allocatorIcEEEEPji) refers to string.cpp.o(.text._ZNSt3__25stoulERKNS_12basic_stringIcNS_11char_traitsIcEENS_9allocatorIcEEEEPji) for [Anonymous Symbol]
    string.cpp.o(.text._ZNSt3__25stoulERKNS_12basic_stringIwNS_11char_traitsIwEENS_9allocatorIwEEEEPji) refers (Special) to _printf_f.o(.ARM.Collect$$_printf_percent$$00000003) for _printf_f
    string.cpp.o(.text._ZNSt3__25stoulERKNS_12basic_stringIwNS_11char_traitsIwEENS_9allocatorIwEEEEPji) refers (Special) to printf1.o(x$fpl$printf1) for _printf_fp_dec
    string.cpp.o(.text._ZNSt3__25stoulERKNS_12basic_stringIwNS_11char_traitsIwEENS_9allocatorIwEEEEPji) refers (Special) to _printf_percent.o(.ARM.Collect$$_printf_percent$$00000000) for _printf_percent
    string.cpp.o(.text._ZNSt3__25stoulERKNS_12basic_stringIwNS_11char_traitsIwEENS_9allocatorIwEEEEPji) refers (Special) to _printf_s.o(.ARM.Collect$$_printf_percent$$00000014) for _printf_s
    string.cpp.o(.text._ZNSt3__25stoulERKNS_12basic_stringIwNS_11char_traitsIwEENS_9allocatorIwEEEEPji) refers (Special) to _printf_str.o(.text) for _printf_str
    string.cpp.o(.text._ZNSt3__25stoulERKNS_12basic_stringIwNS_11char_traitsIwEENS_9allocatorIwEEEEPji) refers to rt_errno_addr_intlibspace.o(.text) for __aeabi_errno_addr
    string.cpp.o(.text._ZNSt3__25stoulERKNS_12basic_stringIwNS_11char_traitsIwEENS_9allocatorIwEEEEPji) refers to wcstoul.o(.text) for wcstoul
    string.cpp.o(.text._ZNSt3__25stoulERKNS_12basic_stringIwNS_11char_traitsIwEENS_9allocatorIwEEEEPji) refers to string.cpp.o(.text._ZNSt3__212_GLOBAL__N_130throw_from_string_out_of_rangeERKNS_12basic_stringIcNS_11char_traitsIcEENS_9allocatorIcEEEE) for std::__2::(anonymous namespace)::throw_from_string_out_of_range(std::__2::basic_string<char, std::__2::char_traits<char>, std::__2::allocator<char> > const&)
    string.cpp.o(.text._ZNSt3__25stoulERKNS_12basic_stringIwNS_11char_traitsIwEENS_9allocatorIwEEEEPji) refers to string.cpp.o(.text._ZNSt3__212_GLOBAL__N_129throw_from_string_invalid_argERKNS_12basic_stringIcNS_11char_traitsIcEENS_9allocatorIcEEEE) for std::__2::(anonymous namespace)::throw_from_string_invalid_arg(std::__2::basic_string<char, std::__2::char_traits<char>, std::__2::allocator<char> > const&)
    string.cpp.o(.ARM.exidx.text._ZNSt3__25stoulERKNS_12basic_stringIwNS_11char_traitsIwEENS_9allocatorIwEEEEPji) refers (Special) to _printf_f.o(.ARM.Collect$$_printf_percent$$00000003) for _printf_f
    string.cpp.o(.ARM.exidx.text._ZNSt3__25stoulERKNS_12basic_stringIwNS_11char_traitsIwEENS_9allocatorIwEEEEPji) refers (Special) to printf1.o(x$fpl$printf1) for _printf_fp_dec
    string.cpp.o(.ARM.exidx.text._ZNSt3__25stoulERKNS_12basic_stringIwNS_11char_traitsIwEENS_9allocatorIwEEEEPji) refers (Special) to _printf_percent.o(.ARM.Collect$$_printf_percent$$00000000) for _printf_percent
    string.cpp.o(.ARM.exidx.text._ZNSt3__25stoulERKNS_12basic_stringIwNS_11char_traitsIwEENS_9allocatorIwEEEEPji) refers (Special) to _printf_s.o(.ARM.Collect$$_printf_percent$$00000014) for _printf_s
    string.cpp.o(.ARM.exidx.text._ZNSt3__25stoulERKNS_12basic_stringIwNS_11char_traitsIwEENS_9allocatorIwEEEEPji) refers (Special) to _printf_str.o(.text) for _printf_str
    string.cpp.o(.ARM.exidx.text._ZNSt3__25stoulERKNS_12basic_stringIwNS_11char_traitsIwEENS_9allocatorIwEEEEPji) refers to string.cpp.o(.text._ZNSt3__25stoulERKNS_12basic_stringIwNS_11char_traitsIwEENS_9allocatorIwEEEEPji) for [Anonymous Symbol]
    string.cpp.o(.text._ZNSt3__25stollERKNS_12basic_stringIcNS_11char_traitsIcEENS_9allocatorIcEEEEPji) refers (Special) to _printf_f.o(.ARM.Collect$$_printf_percent$$00000003) for _printf_f
    string.cpp.o(.text._ZNSt3__25stollERKNS_12basic_stringIcNS_11char_traitsIcEENS_9allocatorIcEEEEPji) refers (Special) to printf1.o(x$fpl$printf1) for _printf_fp_dec
    string.cpp.o(.text._ZNSt3__25stollERKNS_12basic_stringIcNS_11char_traitsIcEENS_9allocatorIcEEEEPji) refers (Special) to _printf_percent.o(.ARM.Collect$$_printf_percent$$00000000) for _printf_percent
    string.cpp.o(.text._ZNSt3__25stollERKNS_12basic_stringIcNS_11char_traitsIcEENS_9allocatorIcEEEEPji) refers (Special) to _printf_s.o(.ARM.Collect$$_printf_percent$$00000014) for _printf_s
    string.cpp.o(.text._ZNSt3__25stollERKNS_12basic_stringIcNS_11char_traitsIcEENS_9allocatorIcEEEEPji) refers (Special) to _printf_str.o(.text) for _printf_str
    string.cpp.o(.text._ZNSt3__25stollERKNS_12basic_stringIcNS_11char_traitsIcEENS_9allocatorIcEEEEPji) refers to rt_errno_addr_intlibspace.o(.text) for __aeabi_errno_addr
    string.cpp.o(.text._ZNSt3__25stollERKNS_12basic_stringIcNS_11char_traitsIcEENS_9allocatorIcEEEEPji) refers to strtoll.o(.text) for strtoll
    string.cpp.o(.text._ZNSt3__25stollERKNS_12basic_stringIcNS_11char_traitsIcEENS_9allocatorIcEEEEPji) refers to string.cpp.o(.text._ZNSt3__212_GLOBAL__N_130throw_from_string_out_of_rangeERKNS_12basic_stringIcNS_11char_traitsIcEENS_9allocatorIcEEEE) for std::__2::(anonymous namespace)::throw_from_string_out_of_range(std::__2::basic_string<char, std::__2::char_traits<char>, std::__2::allocator<char> > const&)
    string.cpp.o(.text._ZNSt3__25stollERKNS_12basic_stringIcNS_11char_traitsIcEENS_9allocatorIcEEEEPji) refers to string.cpp.o(.text._ZNSt3__212_GLOBAL__N_129throw_from_string_invalid_argERKNS_12basic_stringIcNS_11char_traitsIcEENS_9allocatorIcEEEE) for std::__2::(anonymous namespace)::throw_from_string_invalid_arg(std::__2::basic_string<char, std::__2::char_traits<char>, std::__2::allocator<char> > const&)
    string.cpp.o(.ARM.exidx.text._ZNSt3__25stollERKNS_12basic_stringIcNS_11char_traitsIcEENS_9allocatorIcEEEEPji) refers (Special) to _printf_f.o(.ARM.Collect$$_printf_percent$$00000003) for _printf_f
    string.cpp.o(.ARM.exidx.text._ZNSt3__25stollERKNS_12basic_stringIcNS_11char_traitsIcEENS_9allocatorIcEEEEPji) refers (Special) to printf1.o(x$fpl$printf1) for _printf_fp_dec
    string.cpp.o(.ARM.exidx.text._ZNSt3__25stollERKNS_12basic_stringIcNS_11char_traitsIcEENS_9allocatorIcEEEEPji) refers (Special) to _printf_percent.o(.ARM.Collect$$_printf_percent$$00000000) for _printf_percent
    string.cpp.o(.ARM.exidx.text._ZNSt3__25stollERKNS_12basic_stringIcNS_11char_traitsIcEENS_9allocatorIcEEEEPji) refers (Special) to _printf_s.o(.ARM.Collect$$_printf_percent$$00000014) for _printf_s
    string.cpp.o(.ARM.exidx.text._ZNSt3__25stollERKNS_12basic_stringIcNS_11char_traitsIcEENS_9allocatorIcEEEEPji) refers (Special) to _printf_str.o(.text) for _printf_str
    string.cpp.o(.ARM.exidx.text._ZNSt3__25stollERKNS_12basic_stringIcNS_11char_traitsIcEENS_9allocatorIcEEEEPji) refers to string.cpp.o(.text._ZNSt3__25stollERKNS_12basic_stringIcNS_11char_traitsIcEENS_9allocatorIcEEEEPji) for [Anonymous Symbol]
    string.cpp.o(.text._ZNSt3__25stollERKNS_12basic_stringIwNS_11char_traitsIwEENS_9allocatorIwEEEEPji) refers (Special) to _printf_f.o(.ARM.Collect$$_printf_percent$$00000003) for _printf_f
    string.cpp.o(.text._ZNSt3__25stollERKNS_12basic_stringIwNS_11char_traitsIwEENS_9allocatorIwEEEEPji) refers (Special) to printf1.o(x$fpl$printf1) for _printf_fp_dec
    string.cpp.o(.text._ZNSt3__25stollERKNS_12basic_stringIwNS_11char_traitsIwEENS_9allocatorIwEEEEPji) refers (Special) to _printf_percent.o(.ARM.Collect$$_printf_percent$$00000000) for _printf_percent
    string.cpp.o(.text._ZNSt3__25stollERKNS_12basic_stringIwNS_11char_traitsIwEENS_9allocatorIwEEEEPji) refers (Special) to _printf_s.o(.ARM.Collect$$_printf_percent$$00000014) for _printf_s
    string.cpp.o(.text._ZNSt3__25stollERKNS_12basic_stringIwNS_11char_traitsIwEENS_9allocatorIwEEEEPji) refers (Special) to _printf_str.o(.text) for _printf_str
    string.cpp.o(.text._ZNSt3__25stollERKNS_12basic_stringIwNS_11char_traitsIwEENS_9allocatorIwEEEEPji) refers to rt_errno_addr_intlibspace.o(.text) for __aeabi_errno_addr
    string.cpp.o(.text._ZNSt3__25stollERKNS_12basic_stringIwNS_11char_traitsIwEENS_9allocatorIwEEEEPji) refers to wcstoll.o(.text) for wcstoll
    string.cpp.o(.text._ZNSt3__25stollERKNS_12basic_stringIwNS_11char_traitsIwEENS_9allocatorIwEEEEPji) refers to string.cpp.o(.text._ZNSt3__212_GLOBAL__N_130throw_from_string_out_of_rangeERKNS_12basic_stringIcNS_11char_traitsIcEENS_9allocatorIcEEEE) for std::__2::(anonymous namespace)::throw_from_string_out_of_range(std::__2::basic_string<char, std::__2::char_traits<char>, std::__2::allocator<char> > const&)
    string.cpp.o(.text._ZNSt3__25stollERKNS_12basic_stringIwNS_11char_traitsIwEENS_9allocatorIwEEEEPji) refers to string.cpp.o(.text._ZNSt3__212_GLOBAL__N_129throw_from_string_invalid_argERKNS_12basic_stringIcNS_11char_traitsIcEENS_9allocatorIcEEEE) for std::__2::(anonymous namespace)::throw_from_string_invalid_arg(std::__2::basic_string<char, std::__2::char_traits<char>, std::__2::allocator<char> > const&)
    string.cpp.o(.ARM.exidx.text._ZNSt3__25stollERKNS_12basic_stringIwNS_11char_traitsIwEENS_9allocatorIwEEEEPji) refers (Special) to _printf_f.o(.ARM.Collect$$_printf_percent$$00000003) for _printf_f
    string.cpp.o(.ARM.exidx.text._ZNSt3__25stollERKNS_12basic_stringIwNS_11char_traitsIwEENS_9allocatorIwEEEEPji) refers (Special) to printf1.o(x$fpl$printf1) for _printf_fp_dec
    string.cpp.o(.ARM.exidx.text._ZNSt3__25stollERKNS_12basic_stringIwNS_11char_traitsIwEENS_9allocatorIwEEEEPji) refers (Special) to _printf_percent.o(.ARM.Collect$$_printf_percent$$00000000) for _printf_percent
    string.cpp.o(.ARM.exidx.text._ZNSt3__25stollERKNS_12basic_stringIwNS_11char_traitsIwEENS_9allocatorIwEEEEPji) refers (Special) to _printf_s.o(.ARM.Collect$$_printf_percent$$00000014) for _printf_s
    string.cpp.o(.ARM.exidx.text._ZNSt3__25stollERKNS_12basic_stringIwNS_11char_traitsIwEENS_9allocatorIwEEEEPji) refers (Special) to _printf_str.o(.text) for _printf_str
    string.cpp.o(.ARM.exidx.text._ZNSt3__25stollERKNS_12basic_stringIwNS_11char_traitsIwEENS_9allocatorIwEEEEPji) refers to string.cpp.o(.text._ZNSt3__25stollERKNS_12basic_stringIwNS_11char_traitsIwEENS_9allocatorIwEEEEPji) for [Anonymous Symbol]
    string.cpp.o(.text._ZNSt3__26stoullERKNS_12basic_stringIcNS_11char_traitsIcEENS_9allocatorIcEEEEPji) refers (Special) to _printf_f.o(.ARM.Collect$$_printf_percent$$00000003) for _printf_f
    string.cpp.o(.text._ZNSt3__26stoullERKNS_12basic_stringIcNS_11char_traitsIcEENS_9allocatorIcEEEEPji) refers (Special) to printf1.o(x$fpl$printf1) for _printf_fp_dec
    string.cpp.o(.text._ZNSt3__26stoullERKNS_12basic_stringIcNS_11char_traitsIcEENS_9allocatorIcEEEEPji) refers (Special) to _printf_percent.o(.ARM.Collect$$_printf_percent$$00000000) for _printf_percent
    string.cpp.o(.text._ZNSt3__26stoullERKNS_12basic_stringIcNS_11char_traitsIcEENS_9allocatorIcEEEEPji) refers (Special) to _printf_s.o(.ARM.Collect$$_printf_percent$$00000014) for _printf_s
    string.cpp.o(.text._ZNSt3__26stoullERKNS_12basic_stringIcNS_11char_traitsIcEENS_9allocatorIcEEEEPji) refers (Special) to _printf_str.o(.text) for _printf_str
    string.cpp.o(.text._ZNSt3__26stoullERKNS_12basic_stringIcNS_11char_traitsIcEENS_9allocatorIcEEEEPji) refers to rt_errno_addr_intlibspace.o(.text) for __aeabi_errno_addr
    string.cpp.o(.text._ZNSt3__26stoullERKNS_12basic_stringIcNS_11char_traitsIcEENS_9allocatorIcEEEEPji) refers to strtoull.o(.text) for strtoull
    string.cpp.o(.text._ZNSt3__26stoullERKNS_12basic_stringIcNS_11char_traitsIcEENS_9allocatorIcEEEEPji) refers to string.cpp.o(.text._ZNSt3__212_GLOBAL__N_130throw_from_string_out_of_rangeERKNS_12basic_stringIcNS_11char_traitsIcEENS_9allocatorIcEEEE) for std::__2::(anonymous namespace)::throw_from_string_out_of_range(std::__2::basic_string<char, std::__2::char_traits<char>, std::__2::allocator<char> > const&)
    string.cpp.o(.text._ZNSt3__26stoullERKNS_12basic_stringIcNS_11char_traitsIcEENS_9allocatorIcEEEEPji) refers to string.cpp.o(.text._ZNSt3__212_GLOBAL__N_129throw_from_string_invalid_argERKNS_12basic_stringIcNS_11char_traitsIcEENS_9allocatorIcEEEE) for std::__2::(anonymous namespace)::throw_from_string_invalid_arg(std::__2::basic_string<char, std::__2::char_traits<char>, std::__2::allocator<char> > const&)
    string.cpp.o(.ARM.exidx.text._ZNSt3__26stoullERKNS_12basic_stringIcNS_11char_traitsIcEENS_9allocatorIcEEEEPji) refers (Special) to _printf_f.o(.ARM.Collect$$_printf_percent$$00000003) for _printf_f
    string.cpp.o(.ARM.exidx.text._ZNSt3__26stoullERKNS_12basic_stringIcNS_11char_traitsIcEENS_9allocatorIcEEEEPji) refers (Special) to printf1.o(x$fpl$printf1) for _printf_fp_dec
    string.cpp.o(.ARM.exidx.text._ZNSt3__26stoullERKNS_12basic_stringIcNS_11char_traitsIcEENS_9allocatorIcEEEEPji) refers (Special) to _printf_percent.o(.ARM.Collect$$_printf_percent$$00000000) for _printf_percent
    string.cpp.o(.ARM.exidx.text._ZNSt3__26stoullERKNS_12basic_stringIcNS_11char_traitsIcEENS_9allocatorIcEEEEPji) refers (Special) to _printf_s.o(.ARM.Collect$$_printf_percent$$00000014) for _printf_s
    string.cpp.o(.ARM.exidx.text._ZNSt3__26stoullERKNS_12basic_stringIcNS_11char_traitsIcEENS_9allocatorIcEEEEPji) refers (Special) to _printf_str.o(.text) for _printf_str
    string.cpp.o(.ARM.exidx.text._ZNSt3__26stoullERKNS_12basic_stringIcNS_11char_traitsIcEENS_9allocatorIcEEEEPji) refers to string.cpp.o(.text._ZNSt3__26stoullERKNS_12basic_stringIcNS_11char_traitsIcEENS_9allocatorIcEEEEPji) for [Anonymous Symbol]
    string.cpp.o(.text._ZNSt3__26stoullERKNS_12basic_stringIwNS_11char_traitsIwEENS_9allocatorIwEEEEPji) refers (Special) to _printf_f.o(.ARM.Collect$$_printf_percent$$00000003) for _printf_f
    string.cpp.o(.text._ZNSt3__26stoullERKNS_12basic_stringIwNS_11char_traitsIwEENS_9allocatorIwEEEEPji) refers (Special) to printf1.o(x$fpl$printf1) for _printf_fp_dec
    string.cpp.o(.text._ZNSt3__26stoullERKNS_12basic_stringIwNS_11char_traitsIwEENS_9allocatorIwEEEEPji) refers (Special) to _printf_percent.o(.ARM.Collect$$_printf_percent$$00000000) for _printf_percent
    string.cpp.o(.text._ZNSt3__26stoullERKNS_12basic_stringIwNS_11char_traitsIwEENS_9allocatorIwEEEEPji) refers (Special) to _printf_s.o(.ARM.Collect$$_printf_percent$$00000014) for _printf_s
    string.cpp.o(.text._ZNSt3__26stoullERKNS_12basic_stringIwNS_11char_traitsIwEENS_9allocatorIwEEEEPji) refers (Special) to _printf_str.o(.text) for _printf_str
    string.cpp.o(.text._ZNSt3__26stoullERKNS_12basic_stringIwNS_11char_traitsIwEENS_9allocatorIwEEEEPji) refers to rt_errno_addr_intlibspace.o(.text) for __aeabi_errno_addr
    string.cpp.o(.text._ZNSt3__26stoullERKNS_12basic_stringIwNS_11char_traitsIwEENS_9allocatorIwEEEEPji) refers to wcstoull.o(.text) for wcstoull
    string.cpp.o(.text._ZNSt3__26stoullERKNS_12basic_stringIwNS_11char_traitsIwEENS_9allocatorIwEEEEPji) refers to string.cpp.o(.text._ZNSt3__212_GLOBAL__N_130throw_from_string_out_of_rangeERKNS_12basic_stringIcNS_11char_traitsIcEENS_9allocatorIcEEEE) for std::__2::(anonymous namespace)::throw_from_string_out_of_range(std::__2::basic_string<char, std::__2::char_traits<char>, std::__2::allocator<char> > const&)
    string.cpp.o(.text._ZNSt3__26stoullERKNS_12basic_stringIwNS_11char_traitsIwEENS_9allocatorIwEEEEPji) refers to string.cpp.o(.text._ZNSt3__212_GLOBAL__N_129throw_from_string_invalid_argERKNS_12basic_stringIcNS_11char_traitsIcEENS_9allocatorIcEEEE) for std::__2::(anonymous namespace)::throw_from_string_invalid_arg(std::__2::basic_string<char, std::__2::char_traits<char>, std::__2::allocator<char> > const&)
    string.cpp.o(.ARM.exidx.text._ZNSt3__26stoullERKNS_12basic_stringIwNS_11char_traitsIwEENS_9allocatorIwEEEEPji) refers (Special) to _printf_f.o(.ARM.Collect$$_printf_percent$$00000003) for _printf_f
    string.cpp.o(.ARM.exidx.text._ZNSt3__26stoullERKNS_12basic_stringIwNS_11char_traitsIwEENS_9allocatorIwEEEEPji) refers (Special) to printf1.o(x$fpl$printf1) for _printf_fp_dec
    string.cpp.o(.ARM.exidx.text._ZNSt3__26stoullERKNS_12basic_stringIwNS_11char_traitsIwEENS_9allocatorIwEEEEPji) refers (Special) to _printf_percent.o(.ARM.Collect$$_printf_percent$$00000000) for _printf_percent
    string.cpp.o(.ARM.exidx.text._ZNSt3__26stoullERKNS_12basic_stringIwNS_11char_traitsIwEENS_9allocatorIwEEEEPji) refers (Special) to _printf_s.o(.ARM.Collect$$_printf_percent$$00000014) for _printf_s
    string.cpp.o(.ARM.exidx.text._ZNSt3__26stoullERKNS_12basic_stringIwNS_11char_traitsIwEENS_9allocatorIwEEEEPji) refers (Special) to _printf_str.o(.text) for _printf_str
    string.cpp.o(.ARM.exidx.text._ZNSt3__26stoullERKNS_12basic_stringIwNS_11char_traitsIwEENS_9allocatorIwEEEEPji) refers to string.cpp.o(.text._ZNSt3__26stoullERKNS_12basic_stringIwNS_11char_traitsIwEENS_9allocatorIwEEEEPji) for [Anonymous Symbol]
    string.cpp.o(.text._ZNSt3__24stofERKNS_12basic_stringIcNS_11char_traitsIcEENS_9allocatorIcEEEEPj) refers (Special) to _printf_f.o(.ARM.Collect$$_printf_percent$$00000003) for _printf_f
    string.cpp.o(.text._ZNSt3__24stofERKNS_12basic_stringIcNS_11char_traitsIcEENS_9allocatorIcEEEEPj) refers (Special) to printf1.o(x$fpl$printf1) for _printf_fp_dec
    string.cpp.o(.text._ZNSt3__24stofERKNS_12basic_stringIcNS_11char_traitsIcEENS_9allocatorIcEEEEPj) refers (Special) to _printf_percent.o(.ARM.Collect$$_printf_percent$$00000000) for _printf_percent
    string.cpp.o(.text._ZNSt3__24stofERKNS_12basic_stringIcNS_11char_traitsIcEENS_9allocatorIcEEEEPj) refers (Special) to _printf_s.o(.ARM.Collect$$_printf_percent$$00000014) for _printf_s
    string.cpp.o(.text._ZNSt3__24stofERKNS_12basic_stringIcNS_11char_traitsIcEENS_9allocatorIcEEEEPj) refers (Special) to _printf_str.o(.text) for _printf_str
    string.cpp.o(.text._ZNSt3__24stofERKNS_12basic_stringIcNS_11char_traitsIcEENS_9allocatorIcEEEEPj) refers to rt_errno_addr_intlibspace.o(.text) for __aeabi_errno_addr
    string.cpp.o(.text._ZNSt3__24stofERKNS_12basic_stringIcNS_11char_traitsIcEENS_9allocatorIcEEEEPj) refers to strtof.o(i.strtof) for strtof
    string.cpp.o(.text._ZNSt3__24stofERKNS_12basic_stringIcNS_11char_traitsIcEENS_9allocatorIcEEEEPj) refers to string.cpp.o(.text._ZNSt3__212_GLOBAL__N_130throw_from_string_out_of_rangeERKNS_12basic_stringIcNS_11char_traitsIcEENS_9allocatorIcEEEE) for std::__2::(anonymous namespace)::throw_from_string_out_of_range(std::__2::basic_string<char, std::__2::char_traits<char>, std::__2::allocator<char> > const&)
    string.cpp.o(.text._ZNSt3__24stofERKNS_12basic_stringIcNS_11char_traitsIcEENS_9allocatorIcEEEEPj) refers to string.cpp.o(.text._ZNSt3__212_GLOBAL__N_129throw_from_string_invalid_argERKNS_12basic_stringIcNS_11char_traitsIcEENS_9allocatorIcEEEE) for std::__2::(anonymous namespace)::throw_from_string_invalid_arg(std::__2::basic_string<char, std::__2::char_traits<char>, std::__2::allocator<char> > const&)
    string.cpp.o(.ARM.exidx.text._ZNSt3__24stofERKNS_12basic_stringIcNS_11char_traitsIcEENS_9allocatorIcEEEEPj) refers (Special) to _printf_f.o(.ARM.Collect$$_printf_percent$$00000003) for _printf_f
    string.cpp.o(.ARM.exidx.text._ZNSt3__24stofERKNS_12basic_stringIcNS_11char_traitsIcEENS_9allocatorIcEEEEPj) refers (Special) to printf1.o(x$fpl$printf1) for _printf_fp_dec
    string.cpp.o(.ARM.exidx.text._ZNSt3__24stofERKNS_12basic_stringIcNS_11char_traitsIcEENS_9allocatorIcEEEEPj) refers (Special) to _printf_percent.o(.ARM.Collect$$_printf_percent$$00000000) for _printf_percent
    string.cpp.o(.ARM.exidx.text._ZNSt3__24stofERKNS_12basic_stringIcNS_11char_traitsIcEENS_9allocatorIcEEEEPj) refers (Special) to _printf_s.o(.ARM.Collect$$_printf_percent$$00000014) for _printf_s
    string.cpp.o(.ARM.exidx.text._ZNSt3__24stofERKNS_12basic_stringIcNS_11char_traitsIcEENS_9allocatorIcEEEEPj) refers (Special) to _printf_str.o(.text) for _printf_str
    string.cpp.o(.ARM.exidx.text._ZNSt3__24stofERKNS_12basic_stringIcNS_11char_traitsIcEENS_9allocatorIcEEEEPj) refers to string.cpp.o(.text._ZNSt3__24stofERKNS_12basic_stringIcNS_11char_traitsIcEENS_9allocatorIcEEEEPj) for [Anonymous Symbol]
    string.cpp.o(.text._ZNSt3__24stofERKNS_12basic_stringIwNS_11char_traitsIwEENS_9allocatorIwEEEEPj) refers (Special) to _printf_f.o(.ARM.Collect$$_printf_percent$$00000003) for _printf_f
    string.cpp.o(.text._ZNSt3__24stofERKNS_12basic_stringIwNS_11char_traitsIwEENS_9allocatorIwEEEEPj) refers (Special) to printf1.o(x$fpl$printf1) for _printf_fp_dec
    string.cpp.o(.text._ZNSt3__24stofERKNS_12basic_stringIwNS_11char_traitsIwEENS_9allocatorIwEEEEPj) refers (Special) to _printf_percent.o(.ARM.Collect$$_printf_percent$$00000000) for _printf_percent
    string.cpp.o(.text._ZNSt3__24stofERKNS_12basic_stringIwNS_11char_traitsIwEENS_9allocatorIwEEEEPj) refers (Special) to _printf_s.o(.ARM.Collect$$_printf_percent$$00000014) for _printf_s
    string.cpp.o(.text._ZNSt3__24stofERKNS_12basic_stringIwNS_11char_traitsIwEENS_9allocatorIwEEEEPj) refers (Special) to _printf_str.o(.text) for _printf_str
    string.cpp.o(.text._ZNSt3__24stofERKNS_12basic_stringIwNS_11char_traitsIwEENS_9allocatorIwEEEEPj) refers to rt_errno_addr_intlibspace.o(.text) for __aeabi_errno_addr
    string.cpp.o(.text._ZNSt3__24stofERKNS_12basic_stringIwNS_11char_traitsIwEENS_9allocatorIwEEEEPj) refers to wcstof.o(i.wcstof) for wcstof
    string.cpp.o(.text._ZNSt3__24stofERKNS_12basic_stringIwNS_11char_traitsIwEENS_9allocatorIwEEEEPj) refers to string.cpp.o(.text._ZNSt3__212_GLOBAL__N_130throw_from_string_out_of_rangeERKNS_12basic_stringIcNS_11char_traitsIcEENS_9allocatorIcEEEE) for std::__2::(anonymous namespace)::throw_from_string_out_of_range(std::__2::basic_string<char, std::__2::char_traits<char>, std::__2::allocator<char> > const&)
    string.cpp.o(.text._ZNSt3__24stofERKNS_12basic_stringIwNS_11char_traitsIwEENS_9allocatorIwEEEEPj) refers to string.cpp.o(.text._ZNSt3__212_GLOBAL__N_129throw_from_string_invalid_argERKNS_12basic_stringIcNS_11char_traitsIcEENS_9allocatorIcEEEE) for std::__2::(anonymous namespace)::throw_from_string_invalid_arg(std::__2::basic_string<char, std::__2::char_traits<char>, std::__2::allocator<char> > const&)
    string.cpp.o(.ARM.exidx.text._ZNSt3__24stofERKNS_12basic_stringIwNS_11char_traitsIwEENS_9allocatorIwEEEEPj) refers (Special) to _printf_f.o(.ARM.Collect$$_printf_percent$$00000003) for _printf_f
    string.cpp.o(.ARM.exidx.text._ZNSt3__24stofERKNS_12basic_stringIwNS_11char_traitsIwEENS_9allocatorIwEEEEPj) refers (Special) to printf1.o(x$fpl$printf1) for _printf_fp_dec
    string.cpp.o(.ARM.exidx.text._ZNSt3__24stofERKNS_12basic_stringIwNS_11char_traitsIwEENS_9allocatorIwEEEEPj) refers (Special) to _printf_percent.o(.ARM.Collect$$_printf_percent$$00000000) for _printf_percent
    string.cpp.o(.ARM.exidx.text._ZNSt3__24stofERKNS_12basic_stringIwNS_11char_traitsIwEENS_9allocatorIwEEEEPj) refers (Special) to _printf_s.o(.ARM.Collect$$_printf_percent$$00000014) for _printf_s
    string.cpp.o(.ARM.exidx.text._ZNSt3__24stofERKNS_12basic_stringIwNS_11char_traitsIwEENS_9allocatorIwEEEEPj) refers (Special) to _printf_str.o(.text) for _printf_str
    string.cpp.o(.ARM.exidx.text._ZNSt3__24stofERKNS_12basic_stringIwNS_11char_traitsIwEENS_9allocatorIwEEEEPj) refers to string.cpp.o(.text._ZNSt3__24stofERKNS_12basic_stringIwNS_11char_traitsIwEENS_9allocatorIwEEEEPj) for [Anonymous Symbol]
    string.cpp.o(.text._ZNSt3__24stodERKNS_12basic_stringIcNS_11char_traitsIcEENS_9allocatorIcEEEEPj) refers (Special) to _printf_f.o(.ARM.Collect$$_printf_percent$$00000003) for _printf_f
    string.cpp.o(.text._ZNSt3__24stodERKNS_12basic_stringIcNS_11char_traitsIcEENS_9allocatorIcEEEEPj) refers (Special) to printf1.o(x$fpl$printf1) for _printf_fp_dec
    string.cpp.o(.text._ZNSt3__24stodERKNS_12basic_stringIcNS_11char_traitsIcEENS_9allocatorIcEEEEPj) refers (Special) to _printf_percent.o(.ARM.Collect$$_printf_percent$$00000000) for _printf_percent
    string.cpp.o(.text._ZNSt3__24stodERKNS_12basic_stringIcNS_11char_traitsIcEENS_9allocatorIcEEEEPj) refers (Special) to _printf_s.o(.ARM.Collect$$_printf_percent$$00000014) for _printf_s
    string.cpp.o(.text._ZNSt3__24stodERKNS_12basic_stringIcNS_11char_traitsIcEENS_9allocatorIcEEEEPj) refers (Special) to _printf_str.o(.text) for _printf_str
    string.cpp.o(.text._ZNSt3__24stodERKNS_12basic_stringIcNS_11char_traitsIcEENS_9allocatorIcEEEEPj) refers to rt_errno_addr_intlibspace.o(.text) for __aeabi_errno_addr
    string.cpp.o(.text._ZNSt3__24stodERKNS_12basic_stringIcNS_11char_traitsIcEENS_9allocatorIcEEEEPj) refers to strtod.o(i.strtod) for strtod
    string.cpp.o(.text._ZNSt3__24stodERKNS_12basic_stringIcNS_11char_traitsIcEENS_9allocatorIcEEEEPj) refers to string.cpp.o(.text._ZNSt3__212_GLOBAL__N_130throw_from_string_out_of_rangeERKNS_12basic_stringIcNS_11char_traitsIcEENS_9allocatorIcEEEE) for std::__2::(anonymous namespace)::throw_from_string_out_of_range(std::__2::basic_string<char, std::__2::char_traits<char>, std::__2::allocator<char> > const&)
    string.cpp.o(.text._ZNSt3__24stodERKNS_12basic_stringIcNS_11char_traitsIcEENS_9allocatorIcEEEEPj) refers to string.cpp.o(.text._ZNSt3__212_GLOBAL__N_129throw_from_string_invalid_argERKNS_12basic_stringIcNS_11char_traitsIcEENS_9allocatorIcEEEE) for std::__2::(anonymous namespace)::throw_from_string_invalid_arg(std::__2::basic_string<char, std::__2::char_traits<char>, std::__2::allocator<char> > const&)
    string.cpp.o(.ARM.exidx.text._ZNSt3__24stodERKNS_12basic_stringIcNS_11char_traitsIcEENS_9allocatorIcEEEEPj) refers (Special) to _printf_f.o(.ARM.Collect$$_printf_percent$$00000003) for _printf_f
    string.cpp.o(.ARM.exidx.text._ZNSt3__24stodERKNS_12basic_stringIcNS_11char_traitsIcEENS_9allocatorIcEEEEPj) refers (Special) to printf1.o(x$fpl$printf1) for _printf_fp_dec
    string.cpp.o(.ARM.exidx.text._ZNSt3__24stodERKNS_12basic_stringIcNS_11char_traitsIcEENS_9allocatorIcEEEEPj) refers (Special) to _printf_percent.o(.ARM.Collect$$_printf_percent$$00000000) for _printf_percent
    string.cpp.o(.ARM.exidx.text._ZNSt3__24stodERKNS_12basic_stringIcNS_11char_traitsIcEENS_9allocatorIcEEEEPj) refers (Special) to _printf_s.o(.ARM.Collect$$_printf_percent$$00000014) for _printf_s
    string.cpp.o(.ARM.exidx.text._ZNSt3__24stodERKNS_12basic_stringIcNS_11char_traitsIcEENS_9allocatorIcEEEEPj) refers (Special) to _printf_str.o(.text) for _printf_str
    string.cpp.o(.ARM.exidx.text._ZNSt3__24stodERKNS_12basic_stringIcNS_11char_traitsIcEENS_9allocatorIcEEEEPj) refers to string.cpp.o(.text._ZNSt3__24stodERKNS_12basic_stringIcNS_11char_traitsIcEENS_9allocatorIcEEEEPj) for [Anonymous Symbol]
    string.cpp.o(.text._ZNSt3__24stodERKNS_12basic_stringIwNS_11char_traitsIwEENS_9allocatorIwEEEEPj) refers (Special) to _printf_f.o(.ARM.Collect$$_printf_percent$$00000003) for _printf_f
    string.cpp.o(.text._ZNSt3__24stodERKNS_12basic_stringIwNS_11char_traitsIwEENS_9allocatorIwEEEEPj) refers (Special) to printf1.o(x$fpl$printf1) for _printf_fp_dec
    string.cpp.o(.text._ZNSt3__24stodERKNS_12basic_stringIwNS_11char_traitsIwEENS_9allocatorIwEEEEPj) refers (Special) to _printf_percent.o(.ARM.Collect$$_printf_percent$$00000000) for _printf_percent
    string.cpp.o(.text._ZNSt3__24stodERKNS_12basic_stringIwNS_11char_traitsIwEENS_9allocatorIwEEEEPj) refers (Special) to _printf_s.o(.ARM.Collect$$_printf_percent$$00000014) for _printf_s
    string.cpp.o(.text._ZNSt3__24stodERKNS_12basic_stringIwNS_11char_traitsIwEENS_9allocatorIwEEEEPj) refers (Special) to _printf_str.o(.text) for _printf_str
    string.cpp.o(.text._ZNSt3__24stodERKNS_12basic_stringIwNS_11char_traitsIwEENS_9allocatorIwEEEEPj) refers to rt_errno_addr_intlibspace.o(.text) for __aeabi_errno_addr
    string.cpp.o(.text._ZNSt3__24stodERKNS_12basic_stringIwNS_11char_traitsIwEENS_9allocatorIwEEEEPj) refers to wcstod.o(i.wcstod) for wcstod
    string.cpp.o(.text._ZNSt3__24stodERKNS_12basic_stringIwNS_11char_traitsIwEENS_9allocatorIwEEEEPj) refers to string.cpp.o(.text._ZNSt3__212_GLOBAL__N_130throw_from_string_out_of_rangeERKNS_12basic_stringIcNS_11char_traitsIcEENS_9allocatorIcEEEE) for std::__2::(anonymous namespace)::throw_from_string_out_of_range(std::__2::basic_string<char, std::__2::char_traits<char>, std::__2::allocator<char> > const&)
    string.cpp.o(.text._ZNSt3__24stodERKNS_12basic_stringIwNS_11char_traitsIwEENS_9allocatorIwEEEEPj) refers to string.cpp.o(.text._ZNSt3__212_GLOBAL__N_129throw_from_string_invalid_argERKNS_12basic_stringIcNS_11char_traitsIcEENS_9allocatorIcEEEE) for std::__2::(anonymous namespace)::throw_from_string_invalid_arg(std::__2::basic_string<char, std::__2::char_traits<char>, std::__2::allocator<char> > const&)
    string.cpp.o(.ARM.exidx.text._ZNSt3__24stodERKNS_12basic_stringIwNS_11char_traitsIwEENS_9allocatorIwEEEEPj) refers (Special) to _printf_f.o(.ARM.Collect$$_printf_percent$$00000003) for _printf_f
    string.cpp.o(.ARM.exidx.text._ZNSt3__24stodERKNS_12basic_stringIwNS_11char_traitsIwEENS_9allocatorIwEEEEPj) refers (Special) to printf1.o(x$fpl$printf1) for _printf_fp_dec
    string.cpp.o(.ARM.exidx.text._ZNSt3__24stodERKNS_12basic_stringIwNS_11char_traitsIwEENS_9allocatorIwEEEEPj) refers (Special) to _printf_percent.o(.ARM.Collect$$_printf_percent$$00000000) for _printf_percent
    string.cpp.o(.ARM.exidx.text._ZNSt3__24stodERKNS_12basic_stringIwNS_11char_traitsIwEENS_9allocatorIwEEEEPj) refers (Special) to _printf_s.o(.ARM.Collect$$_printf_percent$$00000014) for _printf_s
    string.cpp.o(.ARM.exidx.text._ZNSt3__24stodERKNS_12basic_stringIwNS_11char_traitsIwEENS_9allocatorIwEEEEPj) refers (Special) to _printf_str.o(.text) for _printf_str
    string.cpp.o(.ARM.exidx.text._ZNSt3__24stodERKNS_12basic_stringIwNS_11char_traitsIwEENS_9allocatorIwEEEEPj) refers to string.cpp.o(.text._ZNSt3__24stodERKNS_12basic_stringIwNS_11char_traitsIwEENS_9allocatorIwEEEEPj) for [Anonymous Symbol]
    string.cpp.o(.text._ZNSt3__25stoldERKNS_12basic_stringIcNS_11char_traitsIcEENS_9allocatorIcEEEEPj) refers (Special) to _printf_f.o(.ARM.Collect$$_printf_percent$$00000003) for _printf_f
    string.cpp.o(.text._ZNSt3__25stoldERKNS_12basic_stringIcNS_11char_traitsIcEENS_9allocatorIcEEEEPj) refers (Special) to printf1.o(x$fpl$printf1) for _printf_fp_dec
    string.cpp.o(.text._ZNSt3__25stoldERKNS_12basic_stringIcNS_11char_traitsIcEENS_9allocatorIcEEEEPj) refers (Special) to _printf_percent.o(.ARM.Collect$$_printf_percent$$00000000) for _printf_percent
    string.cpp.o(.text._ZNSt3__25stoldERKNS_12basic_stringIcNS_11char_traitsIcEENS_9allocatorIcEEEEPj) refers (Special) to _printf_s.o(.ARM.Collect$$_printf_percent$$00000014) for _printf_s
    string.cpp.o(.text._ZNSt3__25stoldERKNS_12basic_stringIcNS_11char_traitsIcEENS_9allocatorIcEEEEPj) refers (Special) to _printf_str.o(.text) for _printf_str
    string.cpp.o(.text._ZNSt3__25stoldERKNS_12basic_stringIcNS_11char_traitsIcEENS_9allocatorIcEEEEPj) refers to rt_errno_addr_intlibspace.o(.text) for __aeabi_errno_addr
    string.cpp.o(.text._ZNSt3__25stoldERKNS_12basic_stringIcNS_11char_traitsIcEENS_9allocatorIcEEEEPj) refers to strtold.o(i.strtold) for strtold
    string.cpp.o(.text._ZNSt3__25stoldERKNS_12basic_stringIcNS_11char_traitsIcEENS_9allocatorIcEEEEPj) refers to string.cpp.o(.text._ZNSt3__212_GLOBAL__N_130throw_from_string_out_of_rangeERKNS_12basic_stringIcNS_11char_traitsIcEENS_9allocatorIcEEEE) for std::__2::(anonymous namespace)::throw_from_string_out_of_range(std::__2::basic_string<char, std::__2::char_traits<char>, std::__2::allocator<char> > const&)
    string.cpp.o(.text._ZNSt3__25stoldERKNS_12basic_stringIcNS_11char_traitsIcEENS_9allocatorIcEEEEPj) refers to string.cpp.o(.text._ZNSt3__212_GLOBAL__N_129throw_from_string_invalid_argERKNS_12basic_stringIcNS_11char_traitsIcEENS_9allocatorIcEEEE) for std::__2::(anonymous namespace)::throw_from_string_invalid_arg(std::__2::basic_string<char, std::__2::char_traits<char>, std::__2::allocator<char> > const&)
    string.cpp.o(.ARM.exidx.text._ZNSt3__25stoldERKNS_12basic_stringIcNS_11char_traitsIcEENS_9allocatorIcEEEEPj) refers (Special) to _printf_f.o(.ARM.Collect$$_printf_percent$$00000003) for _printf_f
    string.cpp.o(.ARM.exidx.text._ZNSt3__25stoldERKNS_12basic_stringIcNS_11char_traitsIcEENS_9allocatorIcEEEEPj) refers (Special) to printf1.o(x$fpl$printf1) for _printf_fp_dec
    string.cpp.o(.ARM.exidx.text._ZNSt3__25stoldERKNS_12basic_stringIcNS_11char_traitsIcEENS_9allocatorIcEEEEPj) refers (Special) to _printf_percent.o(.ARM.Collect$$_printf_percent$$00000000) for _printf_percent
    string.cpp.o(.ARM.exidx.text._ZNSt3__25stoldERKNS_12basic_stringIcNS_11char_traitsIcEENS_9allocatorIcEEEEPj) refers (Special) to _printf_s.o(.ARM.Collect$$_printf_percent$$00000014) for _printf_s
    string.cpp.o(.ARM.exidx.text._ZNSt3__25stoldERKNS_12basic_stringIcNS_11char_traitsIcEENS_9allocatorIcEEEEPj) refers (Special) to _printf_str.o(.text) for _printf_str
    string.cpp.o(.ARM.exidx.text._ZNSt3__25stoldERKNS_12basic_stringIcNS_11char_traitsIcEENS_9allocatorIcEEEEPj) refers to string.cpp.o(.text._ZNSt3__25stoldERKNS_12basic_stringIcNS_11char_traitsIcEENS_9allocatorIcEEEEPj) for [Anonymous Symbol]
    string.cpp.o(.text._ZNSt3__25stoldERKNS_12basic_stringIwNS_11char_traitsIwEENS_9allocatorIwEEEEPj) refers (Special) to _printf_f.o(.ARM.Collect$$_printf_percent$$00000003) for _printf_f
    string.cpp.o(.text._ZNSt3__25stoldERKNS_12basic_stringIwNS_11char_traitsIwEENS_9allocatorIwEEEEPj) refers (Special) to printf1.o(x$fpl$printf1) for _printf_fp_dec
    string.cpp.o(.text._ZNSt3__25stoldERKNS_12basic_stringIwNS_11char_traitsIwEENS_9allocatorIwEEEEPj) refers (Special) to _printf_percent.o(.ARM.Collect$$_printf_percent$$00000000) for _printf_percent
    string.cpp.o(.text._ZNSt3__25stoldERKNS_12basic_stringIwNS_11char_traitsIwEENS_9allocatorIwEEEEPj) refers (Special) to _printf_s.o(.ARM.Collect$$_printf_percent$$00000014) for _printf_s
    string.cpp.o(.text._ZNSt3__25stoldERKNS_12basic_stringIwNS_11char_traitsIwEENS_9allocatorIwEEEEPj) refers (Special) to _printf_str.o(.text) for _printf_str
    string.cpp.o(.text._ZNSt3__25stoldERKNS_12basic_stringIwNS_11char_traitsIwEENS_9allocatorIwEEEEPj) refers to rt_errno_addr_intlibspace.o(.text) for __aeabi_errno_addr
    string.cpp.o(.text._ZNSt3__25stoldERKNS_12basic_stringIwNS_11char_traitsIwEENS_9allocatorIwEEEEPj) refers to wcstold.o(i.wcstold) for wcstold
    string.cpp.o(.text._ZNSt3__25stoldERKNS_12basic_stringIwNS_11char_traitsIwEENS_9allocatorIwEEEEPj) refers to string.cpp.o(.text._ZNSt3__212_GLOBAL__N_130throw_from_string_out_of_rangeERKNS_12basic_stringIcNS_11char_traitsIcEENS_9allocatorIcEEEE) for std::__2::(anonymous namespace)::throw_from_string_out_of_range(std::__2::basic_string<char, std::__2::char_traits<char>, std::__2::allocator<char> > const&)
    string.cpp.o(.text._ZNSt3__25stoldERKNS_12basic_stringIwNS_11char_traitsIwEENS_9allocatorIwEEEEPj) refers to string.cpp.o(.text._ZNSt3__212_GLOBAL__N_129throw_from_string_invalid_argERKNS_12basic_stringIcNS_11char_traitsIcEENS_9allocatorIcEEEE) for std::__2::(anonymous namespace)::throw_from_string_invalid_arg(std::__2::basic_string<char, std::__2::char_traits<char>, std::__2::allocator<char> > const&)
    string.cpp.o(.ARM.exidx.text._ZNSt3__25stoldERKNS_12basic_stringIwNS_11char_traitsIwEENS_9allocatorIwEEEEPj) refers (Special) to _printf_f.o(.ARM.Collect$$_printf_percent$$00000003) for _printf_f
    string.cpp.o(.ARM.exidx.text._ZNSt3__25stoldERKNS_12basic_stringIwNS_11char_traitsIwEENS_9allocatorIwEEEEPj) refers (Special) to printf1.o(x$fpl$printf1) for _printf_fp_dec
    string.cpp.o(.ARM.exidx.text._ZNSt3__25stoldERKNS_12basic_stringIwNS_11char_traitsIwEENS_9allocatorIwEEEEPj) refers (Special) to _printf_percent.o(.ARM.Collect$$_printf_percent$$00000000) for _printf_percent
    string.cpp.o(.ARM.exidx.text._ZNSt3__25stoldERKNS_12basic_stringIwNS_11char_traitsIwEENS_9allocatorIwEEEEPj) refers (Special) to _printf_s.o(.ARM.Collect$$_printf_percent$$00000014) for _printf_s
    string.cpp.o(.ARM.exidx.text._ZNSt3__25stoldERKNS_12basic_stringIwNS_11char_traitsIwEENS_9allocatorIwEEEEPj) refers (Special) to _printf_str.o(.text) for _printf_str
    string.cpp.o(.ARM.exidx.text._ZNSt3__25stoldERKNS_12basic_stringIwNS_11char_traitsIwEENS_9allocatorIwEEEEPj) refers to string.cpp.o(.text._ZNSt3__25stoldERKNS_12basic_stringIwNS_11char_traitsIwEENS_9allocatorIwEEEEPj) for [Anonymous Symbol]
    string.cpp.o(.text._ZNSt3__29to_stringEi) refers (Special) to _printf_f.o(.ARM.Collect$$_printf_percent$$00000003) for _printf_f
    string.cpp.o(.text._ZNSt3__29to_stringEi) refers (Special) to printf1.o(x$fpl$printf1) for _printf_fp_dec
    string.cpp.o(.text._ZNSt3__29to_stringEi) refers (Special) to _printf_percent.o(.ARM.Collect$$_printf_percent$$00000000) for _printf_percent
    string.cpp.o(.text._ZNSt3__29to_stringEi) refers (Special) to _printf_s.o(.ARM.Collect$$_printf_percent$$00000014) for _printf_s
    string.cpp.o(.text._ZNSt3__29to_stringEi) refers (Special) to _printf_str.o(.text) for _printf_str
    string.cpp.o(.text._ZNSt3__29to_stringEi) refers to string.cpp.o(.rodata._ZNSt3__26__itoaL10__pow10_32E) for std::__2::__itoa::__pow10_32
    string.cpp.o(.text._ZNSt3__29to_stringEi) refers to charconv.cpp.o(.text._ZNSt3__26__itoa8__u32toaEjPc) for std::__2::__itoa::__u32toa(unsigned int, char*)
    string.cpp.o(.text._ZNSt3__29to_stringEi) refers to new.cpp.o(.text._Znwj) for operator new(unsigned int)
    string.cpp.o(.text._ZNSt3__29to_stringEi) refers to rt_memcpy_v6.o(.text) for __aeabi_memcpy
    string.cpp.o(.text._ZNSt3__29to_stringEi) refers to abort.o(.text) for abort
    string.cpp.o(.ARM.exidx.text._ZNSt3__29to_stringEi) refers (Special) to _printf_f.o(.ARM.Collect$$_printf_percent$$00000003) for _printf_f
    string.cpp.o(.ARM.exidx.text._ZNSt3__29to_stringEi) refers (Special) to printf1.o(x$fpl$printf1) for _printf_fp_dec
    string.cpp.o(.ARM.exidx.text._ZNSt3__29to_stringEi) refers (Special) to _printf_percent.o(.ARM.Collect$$_printf_percent$$00000000) for _printf_percent
    string.cpp.o(.ARM.exidx.text._ZNSt3__29to_stringEi) refers (Special) to _printf_s.o(.ARM.Collect$$_printf_percent$$00000014) for _printf_s
    string.cpp.o(.ARM.exidx.text._ZNSt3__29to_stringEi) refers (Special) to _printf_str.o(.text) for _printf_str
    string.cpp.o(.ARM.exidx.text._ZNSt3__29to_stringEi) refers to string.cpp.o(.text._ZNSt3__29to_stringEi) for [Anonymous Symbol]
    string.cpp.o(.text._ZNSt3__29to_stringEl) refers (Special) to _printf_f.o(.ARM.Collect$$_printf_percent$$00000003) for _printf_f
    string.cpp.o(.text._ZNSt3__29to_stringEl) refers (Special) to printf1.o(x$fpl$printf1) for _printf_fp_dec
    string.cpp.o(.text._ZNSt3__29to_stringEl) refers (Special) to _printf_percent.o(.ARM.Collect$$_printf_percent$$00000000) for _printf_percent
    string.cpp.o(.text._ZNSt3__29to_stringEl) refers (Special) to _printf_s.o(.ARM.Collect$$_printf_percent$$00000014) for _printf_s
    string.cpp.o(.text._ZNSt3__29to_stringEl) refers (Special) to _printf_str.o(.text) for _printf_str
    string.cpp.o(.text._ZNSt3__29to_stringEl) refers to string.cpp.o(.rodata._ZNSt3__26__itoaL10__pow10_32E) for std::__2::__itoa::__pow10_32
    string.cpp.o(.text._ZNSt3__29to_stringEl) refers to charconv.cpp.o(.text._ZNSt3__26__itoa8__u32toaEjPc) for std::__2::__itoa::__u32toa(unsigned int, char*)
    string.cpp.o(.text._ZNSt3__29to_stringEl) refers to new.cpp.o(.text._Znwj) for operator new(unsigned int)
    string.cpp.o(.text._ZNSt3__29to_stringEl) refers to rt_memcpy_v6.o(.text) for __aeabi_memcpy
    string.cpp.o(.text._ZNSt3__29to_stringEl) refers to abort.o(.text) for abort
    string.cpp.o(.ARM.exidx.text._ZNSt3__29to_stringEl) refers (Special) to _printf_f.o(.ARM.Collect$$_printf_percent$$00000003) for _printf_f
    string.cpp.o(.ARM.exidx.text._ZNSt3__29to_stringEl) refers (Special) to printf1.o(x$fpl$printf1) for _printf_fp_dec
    string.cpp.o(.ARM.exidx.text._ZNSt3__29to_stringEl) refers (Special) to _printf_percent.o(.ARM.Collect$$_printf_percent$$00000000) for _printf_percent
    string.cpp.o(.ARM.exidx.text._ZNSt3__29to_stringEl) refers (Special) to _printf_s.o(.ARM.Collect$$_printf_percent$$00000014) for _printf_s
    string.cpp.o(.ARM.exidx.text._ZNSt3__29to_stringEl) refers (Special) to _printf_str.o(.text) for _printf_str
    string.cpp.o(.ARM.exidx.text._ZNSt3__29to_stringEl) refers to string.cpp.o(.text._ZNSt3__29to_stringEl) for [Anonymous Symbol]
    string.cpp.o(.text._ZNSt3__29to_stringEx) refers (Special) to _printf_f.o(.ARM.Collect$$_printf_percent$$00000003) for _printf_f
    string.cpp.o(.text._ZNSt3__29to_stringEx) refers (Special) to printf1.o(x$fpl$printf1) for _printf_fp_dec
    string.cpp.o(.text._ZNSt3__29to_stringEx) refers (Special) to _printf_percent.o(.ARM.Collect$$_printf_percent$$00000000) for _printf_percent
    string.cpp.o(.text._ZNSt3__29to_stringEx) refers (Special) to _printf_s.o(.ARM.Collect$$_printf_percent$$00000014) for _printf_s
    string.cpp.o(.text._ZNSt3__29to_stringEx) refers (Special) to _printf_str.o(.text) for _printf_str
    string.cpp.o(.text._ZNSt3__29to_stringEx) refers to string.cpp.o(.rodata._ZNSt3__26__itoaL10__pow10_64E) for std::__2::__itoa::__pow10_64
    string.cpp.o(.text._ZNSt3__29to_stringEx) refers to charconv.cpp.o(.text._ZNSt3__26__itoa8__u64toaEyPc) for std::__2::__itoa::__u64toa(unsigned long long, char*)
    string.cpp.o(.text._ZNSt3__29to_stringEx) refers to new.cpp.o(.text._Znwj) for operator new(unsigned int)
    string.cpp.o(.text._ZNSt3__29to_stringEx) refers to rt_memcpy_v6.o(.text) for __aeabi_memcpy
    string.cpp.o(.text._ZNSt3__29to_stringEx) refers to abort.o(.text) for abort
    string.cpp.o(.ARM.exidx.text._ZNSt3__29to_stringEx) refers (Special) to _printf_f.o(.ARM.Collect$$_printf_percent$$00000003) for _printf_f
    string.cpp.o(.ARM.exidx.text._ZNSt3__29to_stringEx) refers (Special) to printf1.o(x$fpl$printf1) for _printf_fp_dec
    string.cpp.o(.ARM.exidx.text._ZNSt3__29to_stringEx) refers (Special) to _printf_percent.o(.ARM.Collect$$_printf_percent$$00000000) for _printf_percent
    string.cpp.o(.ARM.exidx.text._ZNSt3__29to_stringEx) refers (Special) to _printf_s.o(.ARM.Collect$$_printf_percent$$00000014) for _printf_s
    string.cpp.o(.ARM.exidx.text._ZNSt3__29to_stringEx) refers (Special) to _printf_str.o(.text) for _printf_str
    string.cpp.o(.ARM.exidx.text._ZNSt3__29to_stringEx) refers to string.cpp.o(.text._ZNSt3__29to_stringEx) for [Anonymous Symbol]
    string.cpp.o(.text._ZNSt3__29to_stringEj) refers (Special) to _printf_f.o(.ARM.Collect$$_printf_percent$$00000003) for _printf_f
    string.cpp.o(.text._ZNSt3__29to_stringEj) refers (Special) to printf1.o(x$fpl$printf1) for _printf_fp_dec
    string.cpp.o(.text._ZNSt3__29to_stringEj) refers (Special) to _printf_percent.o(.ARM.Collect$$_printf_percent$$00000000) for _printf_percent
    string.cpp.o(.text._ZNSt3__29to_stringEj) refers (Special) to _printf_s.o(.ARM.Collect$$_printf_percent$$00000014) for _printf_s
    string.cpp.o(.text._ZNSt3__29to_stringEj) refers (Special) to _printf_str.o(.text) for _printf_str
    string.cpp.o(.text._ZNSt3__29to_stringEj) refers to charconv.cpp.o(.text._ZNSt3__26__itoa8__u32toaEjPc) for std::__2::__itoa::__u32toa(unsigned int, char*)
    string.cpp.o(.text._ZNSt3__29to_stringEj) refers to new.cpp.o(.text._Znwj) for operator new(unsigned int)
    string.cpp.o(.text._ZNSt3__29to_stringEj) refers to rt_memcpy_v6.o(.text) for __aeabi_memcpy
    string.cpp.o(.text._ZNSt3__29to_stringEj) refers to abort.o(.text) for abort
    string.cpp.o(.ARM.exidx.text._ZNSt3__29to_stringEj) refers (Special) to _printf_f.o(.ARM.Collect$$_printf_percent$$00000003) for _printf_f
    string.cpp.o(.ARM.exidx.text._ZNSt3__29to_stringEj) refers (Special) to printf1.o(x$fpl$printf1) for _printf_fp_dec
    string.cpp.o(.ARM.exidx.text._ZNSt3__29to_stringEj) refers (Special) to _printf_percent.o(.ARM.Collect$$_printf_percent$$00000000) for _printf_percent
    string.cpp.o(.ARM.exidx.text._ZNSt3__29to_stringEj) refers (Special) to _printf_s.o(.ARM.Collect$$_printf_percent$$00000014) for _printf_s
    string.cpp.o(.ARM.exidx.text._ZNSt3__29to_stringEj) refers (Special) to _printf_str.o(.text) for _printf_str
    string.cpp.o(.ARM.exidx.text._ZNSt3__29to_stringEj) refers to string.cpp.o(.text._ZNSt3__29to_stringEj) for [Anonymous Symbol]
    string.cpp.o(.text._ZNSt3__29to_stringEm) refers (Special) to _printf_f.o(.ARM.Collect$$_printf_percent$$00000003) for _printf_f
    string.cpp.o(.text._ZNSt3__29to_stringEm) refers (Special) to printf1.o(x$fpl$printf1) for _printf_fp_dec
    string.cpp.o(.text._ZNSt3__29to_stringEm) refers (Special) to _printf_percent.o(.ARM.Collect$$_printf_percent$$00000000) for _printf_percent
    string.cpp.o(.text._ZNSt3__29to_stringEm) refers (Special) to _printf_s.o(.ARM.Collect$$_printf_percent$$00000014) for _printf_s
    string.cpp.o(.text._ZNSt3__29to_stringEm) refers (Special) to _printf_str.o(.text) for _printf_str
    string.cpp.o(.text._ZNSt3__29to_stringEm) refers to charconv.cpp.o(.text._ZNSt3__26__itoa8__u32toaEjPc) for std::__2::__itoa::__u32toa(unsigned int, char*)
    string.cpp.o(.text._ZNSt3__29to_stringEm) refers to new.cpp.o(.text._Znwj) for operator new(unsigned int)
    string.cpp.o(.text._ZNSt3__29to_stringEm) refers to rt_memcpy_v6.o(.text) for __aeabi_memcpy
    string.cpp.o(.text._ZNSt3__29to_stringEm) refers to abort.o(.text) for abort
    string.cpp.o(.ARM.exidx.text._ZNSt3__29to_stringEm) refers (Special) to _printf_f.o(.ARM.Collect$$_printf_percent$$00000003) for _printf_f
    string.cpp.o(.ARM.exidx.text._ZNSt3__29to_stringEm) refers (Special) to printf1.o(x$fpl$printf1) for _printf_fp_dec
    string.cpp.o(.ARM.exidx.text._ZNSt3__29to_stringEm) refers (Special) to _printf_percent.o(.ARM.Collect$$_printf_percent$$00000000) for _printf_percent
    string.cpp.o(.ARM.exidx.text._ZNSt3__29to_stringEm) refers (Special) to _printf_s.o(.ARM.Collect$$_printf_percent$$00000014) for _printf_s
    string.cpp.o(.ARM.exidx.text._ZNSt3__29to_stringEm) refers (Special) to _printf_str.o(.text) for _printf_str
    string.cpp.o(.ARM.exidx.text._ZNSt3__29to_stringEm) refers to string.cpp.o(.text._ZNSt3__29to_stringEm) for [Anonymous Symbol]
    string.cpp.o(.text._ZNSt3__29to_stringEy) refers (Special) to _printf_f.o(.ARM.Collect$$_printf_percent$$00000003) for _printf_f
    string.cpp.o(.text._ZNSt3__29to_stringEy) refers (Special) to printf1.o(x$fpl$printf1) for _printf_fp_dec
    string.cpp.o(.text._ZNSt3__29to_stringEy) refers (Special) to _printf_percent.o(.ARM.Collect$$_printf_percent$$00000000) for _printf_percent
    string.cpp.o(.text._ZNSt3__29to_stringEy) refers (Special) to _printf_s.o(.ARM.Collect$$_printf_percent$$00000014) for _printf_s
    string.cpp.o(.text._ZNSt3__29to_stringEy) refers (Special) to _printf_str.o(.text) for _printf_str
    string.cpp.o(.text._ZNSt3__29to_stringEy) refers to charconv.cpp.o(.text._ZNSt3__26__itoa8__u64toaEyPc) for std::__2::__itoa::__u64toa(unsigned long long, char*)
    string.cpp.o(.text._ZNSt3__29to_stringEy) refers to new.cpp.o(.text._Znwj) for operator new(unsigned int)
    string.cpp.o(.text._ZNSt3__29to_stringEy) refers to rt_memcpy_v6.o(.text) for __aeabi_memcpy
    string.cpp.o(.text._ZNSt3__29to_stringEy) refers to abort.o(.text) for abort
    string.cpp.o(.ARM.exidx.text._ZNSt3__29to_stringEy) refers (Special) to _printf_f.o(.ARM.Collect$$_printf_percent$$00000003) for _printf_f
    string.cpp.o(.ARM.exidx.text._ZNSt3__29to_stringEy) refers (Special) to printf1.o(x$fpl$printf1) for _printf_fp_dec
    string.cpp.o(.ARM.exidx.text._ZNSt3__29to_stringEy) refers (Special) to _printf_percent.o(.ARM.Collect$$_printf_percent$$00000000) for _printf_percent
    string.cpp.o(.ARM.exidx.text._ZNSt3__29to_stringEy) refers (Special) to _printf_s.o(.ARM.Collect$$_printf_percent$$00000014) for _printf_s
    string.cpp.o(.ARM.exidx.text._ZNSt3__29to_stringEy) refers (Special) to _printf_str.o(.text) for _printf_str
    string.cpp.o(.ARM.exidx.text._ZNSt3__29to_stringEy) refers to string.cpp.o(.text._ZNSt3__29to_stringEy) for [Anonymous Symbol]
    string.cpp.o(.text._ZNSt3__210to_wstringEi) refers (Special) to _printf_f.o(.ARM.Collect$$_printf_percent$$00000003) for _printf_f
    string.cpp.o(.text._ZNSt3__210to_wstringEi) refers (Special) to printf1.o(x$fpl$printf1) for _printf_fp_dec
    string.cpp.o(.text._ZNSt3__210to_wstringEi) refers (Special) to _printf_percent.o(.ARM.Collect$$_printf_percent$$00000000) for _printf_percent
    string.cpp.o(.text._ZNSt3__210to_wstringEi) refers (Special) to _printf_s.o(.ARM.Collect$$_printf_percent$$00000014) for _printf_s
    string.cpp.o(.text._ZNSt3__210to_wstringEi) refers (Special) to _printf_str.o(.text) for _printf_str
    string.cpp.o(.text._ZNSt3__210to_wstringEi) refers to string.cpp.o(.rodata._ZNSt3__26__itoaL10__pow10_32E) for std::__2::__itoa::__pow10_32
    string.cpp.o(.text._ZNSt3__210to_wstringEi) refers to charconv.cpp.o(.text._ZNSt3__26__itoa8__u32toaEjPc) for std::__2::__itoa::__u32toa(unsigned int, char*)
    string.cpp.o(.text._ZNSt3__210to_wstringEi) refers to new.cpp.o(.text._Znwj) for operator new(unsigned int)
    string.cpp.o(.text._ZNSt3__210to_wstringEi) refers to abort.o(.text) for abort
    string.cpp.o(.ARM.exidx.text._ZNSt3__210to_wstringEi) refers (Special) to _printf_f.o(.ARM.Collect$$_printf_percent$$00000003) for _printf_f
    string.cpp.o(.ARM.exidx.text._ZNSt3__210to_wstringEi) refers (Special) to printf1.o(x$fpl$printf1) for _printf_fp_dec
    string.cpp.o(.ARM.exidx.text._ZNSt3__210to_wstringEi) refers (Special) to _printf_percent.o(.ARM.Collect$$_printf_percent$$00000000) for _printf_percent
    string.cpp.o(.ARM.exidx.text._ZNSt3__210to_wstringEi) refers (Special) to _printf_s.o(.ARM.Collect$$_printf_percent$$00000014) for _printf_s
    string.cpp.o(.ARM.exidx.text._ZNSt3__210to_wstringEi) refers (Special) to _printf_str.o(.text) for _printf_str
    string.cpp.o(.ARM.exidx.text._ZNSt3__210to_wstringEi) refers to string.cpp.o(.text._ZNSt3__210to_wstringEi) for [Anonymous Symbol]
    string.cpp.o(.text._ZNSt3__210to_wstringEl) refers (Special) to _printf_f.o(.ARM.Collect$$_printf_percent$$00000003) for _printf_f
    string.cpp.o(.text._ZNSt3__210to_wstringEl) refers (Special) to printf1.o(x$fpl$printf1) for _printf_fp_dec
    string.cpp.o(.text._ZNSt3__210to_wstringEl) refers (Special) to _printf_percent.o(.ARM.Collect$$_printf_percent$$00000000) for _printf_percent
    string.cpp.o(.text._ZNSt3__210to_wstringEl) refers (Special) to _printf_s.o(.ARM.Collect$$_printf_percent$$00000014) for _printf_s
    string.cpp.o(.text._ZNSt3__210to_wstringEl) refers (Special) to _printf_str.o(.text) for _printf_str
    string.cpp.o(.text._ZNSt3__210to_wstringEl) refers to string.cpp.o(.rodata._ZNSt3__26__itoaL10__pow10_32E) for std::__2::__itoa::__pow10_32
    string.cpp.o(.text._ZNSt3__210to_wstringEl) refers to charconv.cpp.o(.text._ZNSt3__26__itoa8__u32toaEjPc) for std::__2::__itoa::__u32toa(unsigned int, char*)
    string.cpp.o(.text._ZNSt3__210to_wstringEl) refers to new.cpp.o(.text._Znwj) for operator new(unsigned int)
    string.cpp.o(.text._ZNSt3__210to_wstringEl) refers to abort.o(.text) for abort
    string.cpp.o(.ARM.exidx.text._ZNSt3__210to_wstringEl) refers (Special) to _printf_f.o(.ARM.Collect$$_printf_percent$$00000003) for _printf_f
    string.cpp.o(.ARM.exidx.text._ZNSt3__210to_wstringEl) refers (Special) to printf1.o(x$fpl$printf1) for _printf_fp_dec
    string.cpp.o(.ARM.exidx.text._ZNSt3__210to_wstringEl) refers (Special) to _printf_percent.o(.ARM.Collect$$_printf_percent$$00000000) for _printf_percent
    string.cpp.o(.ARM.exidx.text._ZNSt3__210to_wstringEl) refers (Special) to _printf_s.o(.ARM.Collect$$_printf_percent$$00000014) for _printf_s
    string.cpp.o(.ARM.exidx.text._ZNSt3__210to_wstringEl) refers (Special) to _printf_str.o(.text) for _printf_str
    string.cpp.o(.ARM.exidx.text._ZNSt3__210to_wstringEl) refers to string.cpp.o(.text._ZNSt3__210to_wstringEl) for [Anonymous Symbol]
    string.cpp.o(.text._ZNSt3__210to_wstringEx) refers (Special) to _printf_f.o(.ARM.Collect$$_printf_percent$$00000003) for _printf_f
    string.cpp.o(.text._ZNSt3__210to_wstringEx) refers (Special) to printf1.o(x$fpl$printf1) for _printf_fp_dec
    string.cpp.o(.text._ZNSt3__210to_wstringEx) refers (Special) to _printf_percent.o(.ARM.Collect$$_printf_percent$$00000000) for _printf_percent
    string.cpp.o(.text._ZNSt3__210to_wstringEx) refers (Special) to _printf_s.o(.ARM.Collect$$_printf_percent$$00000014) for _printf_s
    string.cpp.o(.text._ZNSt3__210to_wstringEx) refers (Special) to _printf_str.o(.text) for _printf_str
    string.cpp.o(.text._ZNSt3__210to_wstringEx) refers to string.cpp.o(.rodata._ZNSt3__26__itoaL10__pow10_64E) for std::__2::__itoa::__pow10_64
    string.cpp.o(.text._ZNSt3__210to_wstringEx) refers to charconv.cpp.o(.text._ZNSt3__26__itoa8__u64toaEyPc) for std::__2::__itoa::__u64toa(unsigned long long, char*)
    string.cpp.o(.text._ZNSt3__210to_wstringEx) refers to new.cpp.o(.text._Znwj) for operator new(unsigned int)
    string.cpp.o(.text._ZNSt3__210to_wstringEx) refers to abort.o(.text) for abort
    string.cpp.o(.ARM.exidx.text._ZNSt3__210to_wstringEx) refers (Special) to _printf_f.o(.ARM.Collect$$_printf_percent$$00000003) for _printf_f
    string.cpp.o(.ARM.exidx.text._ZNSt3__210to_wstringEx) refers (Special) to printf1.o(x$fpl$printf1) for _printf_fp_dec
    string.cpp.o(.ARM.exidx.text._ZNSt3__210to_wstringEx) refers (Special) to _printf_percent.o(.ARM.Collect$$_printf_percent$$00000000) for _printf_percent
    string.cpp.o(.ARM.exidx.text._ZNSt3__210to_wstringEx) refers (Special) to _printf_s.o(.ARM.Collect$$_printf_percent$$00000014) for _printf_s
    string.cpp.o(.ARM.exidx.text._ZNSt3__210to_wstringEx) refers (Special) to _printf_str.o(.text) for _printf_str
    string.cpp.o(.ARM.exidx.text._ZNSt3__210to_wstringEx) refers to string.cpp.o(.text._ZNSt3__210to_wstringEx) for [Anonymous Symbol]
    string.cpp.o(.text._ZNSt3__210to_wstringEj) refers (Special) to _printf_f.o(.ARM.Collect$$_printf_percent$$00000003) for _printf_f
    string.cpp.o(.text._ZNSt3__210to_wstringEj) refers (Special) to printf1.o(x$fpl$printf1) for _printf_fp_dec
    string.cpp.o(.text._ZNSt3__210to_wstringEj) refers (Special) to _printf_percent.o(.ARM.Collect$$_printf_percent$$00000000) for _printf_percent
    string.cpp.o(.text._ZNSt3__210to_wstringEj) refers (Special) to _printf_s.o(.ARM.Collect$$_printf_percent$$00000014) for _printf_s
    string.cpp.o(.text._ZNSt3__210to_wstringEj) refers (Special) to _printf_str.o(.text) for _printf_str
    string.cpp.o(.text._ZNSt3__210to_wstringEj) refers to charconv.cpp.o(.text._ZNSt3__26__itoa8__u32toaEjPc) for std::__2::__itoa::__u32toa(unsigned int, char*)
    string.cpp.o(.text._ZNSt3__210to_wstringEj) refers to new.cpp.o(.text._Znwj) for operator new(unsigned int)
    string.cpp.o(.text._ZNSt3__210to_wstringEj) refers to abort.o(.text) for abort
    string.cpp.o(.ARM.exidx.text._ZNSt3__210to_wstringEj) refers (Special) to _printf_f.o(.ARM.Collect$$_printf_percent$$00000003) for _printf_f
    string.cpp.o(.ARM.exidx.text._ZNSt3__210to_wstringEj) refers (Special) to printf1.o(x$fpl$printf1) for _printf_fp_dec
    string.cpp.o(.ARM.exidx.text._ZNSt3__210to_wstringEj) refers (Special) to _printf_percent.o(.ARM.Collect$$_printf_percent$$00000000) for _printf_percent
    string.cpp.o(.ARM.exidx.text._ZNSt3__210to_wstringEj) refers (Special) to _printf_s.o(.ARM.Collect$$_printf_percent$$00000014) for _printf_s
    string.cpp.o(.ARM.exidx.text._ZNSt3__210to_wstringEj) refers (Special) to _printf_str.o(.text) for _printf_str
    string.cpp.o(.ARM.exidx.text._ZNSt3__210to_wstringEj) refers to string.cpp.o(.text._ZNSt3__210to_wstringEj) for [Anonymous Symbol]
    string.cpp.o(.text._ZNSt3__210to_wstringEm) refers (Special) to _printf_f.o(.ARM.Collect$$_printf_percent$$00000003) for _printf_f
    string.cpp.o(.text._ZNSt3__210to_wstringEm) refers (Special) to printf1.o(x$fpl$printf1) for _printf_fp_dec
    string.cpp.o(.text._ZNSt3__210to_wstringEm) refers (Special) to _printf_percent.o(.ARM.Collect$$_printf_percent$$00000000) for _printf_percent
    string.cpp.o(.text._ZNSt3__210to_wstringEm) refers (Special) to _printf_s.o(.ARM.Collect$$_printf_percent$$00000014) for _printf_s
    string.cpp.o(.text._ZNSt3__210to_wstringEm) refers (Special) to _printf_str.o(.text) for _printf_str
    string.cpp.o(.text._ZNSt3__210to_wstringEm) refers to charconv.cpp.o(.text._ZNSt3__26__itoa8__u32toaEjPc) for std::__2::__itoa::__u32toa(unsigned int, char*)
    string.cpp.o(.text._ZNSt3__210to_wstringEm) refers to new.cpp.o(.text._Znwj) for operator new(unsigned int)
    string.cpp.o(.text._ZNSt3__210to_wstringEm) refers to abort.o(.text) for abort
    string.cpp.o(.ARM.exidx.text._ZNSt3__210to_wstringEm) refers (Special) to _printf_f.o(.ARM.Collect$$_printf_percent$$00000003) for _printf_f
    string.cpp.o(.ARM.exidx.text._ZNSt3__210to_wstringEm) refers (Special) to printf1.o(x$fpl$printf1) for _printf_fp_dec
    string.cpp.o(.ARM.exidx.text._ZNSt3__210to_wstringEm) refers (Special) to _printf_percent.o(.ARM.Collect$$_printf_percent$$00000000) for _printf_percent
    string.cpp.o(.ARM.exidx.text._ZNSt3__210to_wstringEm) refers (Special) to _printf_s.o(.ARM.Collect$$_printf_percent$$00000014) for _printf_s
    string.cpp.o(.ARM.exidx.text._ZNSt3__210to_wstringEm) refers (Special) to _printf_str.o(.text) for _printf_str
    string.cpp.o(.ARM.exidx.text._ZNSt3__210to_wstringEm) refers to string.cpp.o(.text._ZNSt3__210to_wstringEm) for [Anonymous Symbol]
    string.cpp.o(.text._ZNSt3__210to_wstringEy) refers (Special) to _printf_f.o(.ARM.Collect$$_printf_percent$$00000003) for _printf_f
    string.cpp.o(.text._ZNSt3__210to_wstringEy) refers (Special) to printf1.o(x$fpl$printf1) for _printf_fp_dec
    string.cpp.o(.text._ZNSt3__210to_wstringEy) refers (Special) to _printf_percent.o(.ARM.Collect$$_printf_percent$$00000000) for _printf_percent
    string.cpp.o(.text._ZNSt3__210to_wstringEy) refers (Special) to _printf_s.o(.ARM.Collect$$_printf_percent$$00000014) for _printf_s
    string.cpp.o(.text._ZNSt3__210to_wstringEy) refers (Special) to _printf_str.o(.text) for _printf_str
    string.cpp.o(.text._ZNSt3__210to_wstringEy) refers to charconv.cpp.o(.text._ZNSt3__26__itoa8__u64toaEyPc) for std::__2::__itoa::__u64toa(unsigned long long, char*)
    string.cpp.o(.text._ZNSt3__210to_wstringEy) refers to new.cpp.o(.text._Znwj) for operator new(unsigned int)
    string.cpp.o(.text._ZNSt3__210to_wstringEy) refers to abort.o(.text) for abort
    string.cpp.o(.ARM.exidx.text._ZNSt3__210to_wstringEy) refers (Special) to _printf_f.o(.ARM.Collect$$_printf_percent$$00000003) for _printf_f
    string.cpp.o(.ARM.exidx.text._ZNSt3__210to_wstringEy) refers (Special) to printf1.o(x$fpl$printf1) for _printf_fp_dec
    string.cpp.o(.ARM.exidx.text._ZNSt3__210to_wstringEy) refers (Special) to _printf_percent.o(.ARM.Collect$$_printf_percent$$00000000) for _printf_percent
    string.cpp.o(.ARM.exidx.text._ZNSt3__210to_wstringEy) refers (Special) to _printf_s.o(.ARM.Collect$$_printf_percent$$00000014) for _printf_s
    string.cpp.o(.ARM.exidx.text._ZNSt3__210to_wstringEy) refers (Special) to _printf_str.o(.text) for _printf_str
    string.cpp.o(.ARM.exidx.text._ZNSt3__210to_wstringEy) refers to string.cpp.o(.text._ZNSt3__210to_wstringEy) for [Anonymous Symbol]
    string.cpp.o(.text._ZNSt3__29to_stringEf) refers (Special) to _printf_f.o(.ARM.Collect$$_printf_percent$$00000003) for _printf_f
    string.cpp.o(.text._ZNSt3__29to_stringEf) refers (Special) to printf1.o(x$fpl$printf1) for _printf_fp_dec
    string.cpp.o(.text._ZNSt3__29to_stringEf) refers (Special) to _printf_percent.o(.ARM.Collect$$_printf_percent$$00000000) for _printf_percent
    string.cpp.o(.text._ZNSt3__29to_stringEf) refers (Special) to _printf_s.o(.ARM.Collect$$_printf_percent$$00000014) for _printf_s
    string.cpp.o(.text._ZNSt3__29to_stringEf) refers (Special) to _printf_str.o(.text) for _printf_str
    string.cpp.o(.text._ZNSt3__29to_stringEf) refers to string.cpp.o(.text._ZNSt3__212basic_stringIcNS_11char_traitsIcEENS_9allocatorIcEEE6resizeEjc) for std::__2::basic_string<char, std::__2::char_traits<char>, std::__2::allocator<char> >::resize(unsigned int, char)
    string.cpp.o(.text._ZNSt3__29to_stringEf) refers to f2d.o(x$fpl$f2d) for __aeabi_f2d
    string.cpp.o(.text._ZNSt3__29to_stringEf) refers to string.cpp.o(.rodata.str1.1) for .L.str.9
    string.cpp.o(.text._ZNSt3__29to_stringEf) refers to __2snprintf.o(.text) for __2snprintf
    string.cpp.o(.ARM.exidx.text._ZNSt3__29to_stringEf) refers (Special) to _printf_f.o(.ARM.Collect$$_printf_percent$$00000003) for _printf_f
    string.cpp.o(.ARM.exidx.text._ZNSt3__29to_stringEf) refers (Special) to printf1.o(x$fpl$printf1) for _printf_fp_dec
    string.cpp.o(.ARM.exidx.text._ZNSt3__29to_stringEf) refers (Special) to _printf_percent.o(.ARM.Collect$$_printf_percent$$00000000) for _printf_percent
    string.cpp.o(.ARM.exidx.text._ZNSt3__29to_stringEf) refers (Special) to _printf_s.o(.ARM.Collect$$_printf_percent$$00000014) for _printf_s
    string.cpp.o(.ARM.exidx.text._ZNSt3__29to_stringEf) refers (Special) to _printf_str.o(.text) for _printf_str
    string.cpp.o(.ARM.exidx.text._ZNSt3__29to_stringEf) refers to string.cpp.o(.text._ZNSt3__29to_stringEf) for [Anonymous Symbol]
    string.cpp.o(.text._ZNSt3__29to_stringEd) refers (Special) to _printf_f.o(.ARM.Collect$$_printf_percent$$00000003) for _printf_f
    string.cpp.o(.text._ZNSt3__29to_stringEd) refers (Special) to printf1.o(x$fpl$printf1) for _printf_fp_dec
    string.cpp.o(.text._ZNSt3__29to_stringEd) refers (Special) to _printf_percent.o(.ARM.Collect$$_printf_percent$$00000000) for _printf_percent
    string.cpp.o(.text._ZNSt3__29to_stringEd) refers (Special) to _printf_s.o(.ARM.Collect$$_printf_percent$$00000014) for _printf_s
    string.cpp.o(.text._ZNSt3__29to_stringEd) refers (Special) to _printf_str.o(.text) for _printf_str
    string.cpp.o(.text._ZNSt3__29to_stringEd) refers to string.cpp.o(.text._ZNSt3__212basic_stringIcNS_11char_traitsIcEENS_9allocatorIcEEE6resizeEjc) for std::__2::basic_string<char, std::__2::char_traits<char>, std::__2::allocator<char> >::resize(unsigned int, char)
    string.cpp.o(.text._ZNSt3__29to_stringEd) refers to string.cpp.o(.rodata.str1.1) for .L.str.9
    string.cpp.o(.text._ZNSt3__29to_stringEd) refers to __2snprintf.o(.text) for __2snprintf
    string.cpp.o(.ARM.exidx.text._ZNSt3__29to_stringEd) refers (Special) to _printf_f.o(.ARM.Collect$$_printf_percent$$00000003) for _printf_f
    string.cpp.o(.ARM.exidx.text._ZNSt3__29to_stringEd) refers (Special) to printf1.o(x$fpl$printf1) for _printf_fp_dec
    string.cpp.o(.ARM.exidx.text._ZNSt3__29to_stringEd) refers (Special) to _printf_percent.o(.ARM.Collect$$_printf_percent$$00000000) for _printf_percent
    string.cpp.o(.ARM.exidx.text._ZNSt3__29to_stringEd) refers (Special) to _printf_s.o(.ARM.Collect$$_printf_percent$$00000014) for _printf_s
    string.cpp.o(.ARM.exidx.text._ZNSt3__29to_stringEd) refers (Special) to _printf_str.o(.text) for _printf_str
    string.cpp.o(.ARM.exidx.text._ZNSt3__29to_stringEd) refers to string.cpp.o(.text._ZNSt3__29to_stringEd) for [Anonymous Symbol]
    string.cpp.o(.text._ZNSt3__29to_stringEe) refers (Special) to _printf_f.o(.ARM.Collect$$_printf_percent$$00000003) for _printf_f
    string.cpp.o(.text._ZNSt3__29to_stringEe) refers (Special) to printf1.o(x$fpl$printf1) for _printf_fp_dec
    string.cpp.o(.text._ZNSt3__29to_stringEe) refers (Special) to _printf_percent.o(.ARM.Collect$$_printf_percent$$00000000) for _printf_percent
    string.cpp.o(.text._ZNSt3__29to_stringEe) refers (Special) to _printf_s.o(.ARM.Collect$$_printf_percent$$00000014) for _printf_s
    string.cpp.o(.text._ZNSt3__29to_stringEe) refers (Special) to _printf_str.o(.text) for _printf_str
    string.cpp.o(.text._ZNSt3__29to_stringEe) refers to string.cpp.o(.text._ZNSt3__212basic_stringIcNS_11char_traitsIcEENS_9allocatorIcEEE6resizeEjc) for std::__2::basic_string<char, std::__2::char_traits<char>, std::__2::allocator<char> >::resize(unsigned int, char)
    string.cpp.o(.text._ZNSt3__29to_stringEe) refers to __2snprintf.o(.text) for __2snprintf
    string.cpp.o(.ARM.exidx.text._ZNSt3__29to_stringEe) refers (Special) to _printf_f.o(.ARM.Collect$$_printf_percent$$00000003) for _printf_f
    string.cpp.o(.ARM.exidx.text._ZNSt3__29to_stringEe) refers (Special) to printf1.o(x$fpl$printf1) for _printf_fp_dec
    string.cpp.o(.ARM.exidx.text._ZNSt3__29to_stringEe) refers (Special) to _printf_percent.o(.ARM.Collect$$_printf_percent$$00000000) for _printf_percent
    string.cpp.o(.ARM.exidx.text._ZNSt3__29to_stringEe) refers (Special) to _printf_s.o(.ARM.Collect$$_printf_percent$$00000014) for _printf_s
    string.cpp.o(.ARM.exidx.text._ZNSt3__29to_stringEe) refers (Special) to _printf_str.o(.text) for _printf_str
    string.cpp.o(.ARM.exidx.text._ZNSt3__29to_stringEe) refers to string.cpp.o(.text._ZNSt3__29to_stringEe) for [Anonymous Symbol]
    string.cpp.o(.text._ZNSt3__210to_wstringEf) refers (Special) to _printf_f.o(.ARM.Collect$$_printf_percent$$00000003) for _printf_f
    string.cpp.o(.text._ZNSt3__210to_wstringEf) refers (Special) to printf1.o(x$fpl$printf1) for _printf_fp_dec
    string.cpp.o(.text._ZNSt3__210to_wstringEf) refers (Special) to _printf_percent.o(.ARM.Collect$$_printf_percent$$00000000) for _printf_percent
    string.cpp.o(.text._ZNSt3__210to_wstringEf) refers (Special) to _printf_s.o(.ARM.Collect$$_printf_percent$$00000014) for _printf_s
    string.cpp.o(.text._ZNSt3__210to_wstringEf) refers (Special) to _printf_str.o(.text) for _printf_str
    string.cpp.o(.text._ZNSt3__210to_wstringEf) refers to string.cpp.o(.text._ZNKSt3__212_GLOBAL__N_114initial_stringINS_12basic_stringIwNS_11char_traitsIwEENS_9allocatorIwEEEEEclEv) for std::__2::(anonymous namespace)::initial_string<std::__2::basic_string<wchar_t, std::__2::char_traits<wchar_t>, std::__2::allocator<wchar_t> > >::operator()() const
    string.cpp.o(.text._ZNSt3__210to_wstringEf) refers to f2d.o(x$fpl$f2d) for __aeabi_f2d
    string.cpp.o(.text._ZNSt3__210to_wstringEf) refers to string.cpp.o(.rodata.str2.2) for .L.str.11
    string.cpp.o(.text._ZNSt3__210to_wstringEf) refers to __2swprintf.o(.text) for __2swprintf
    string.cpp.o(.text._ZNSt3__210to_wstringEf) refers to string.cpp.o(.text._ZNSt3__212basic_stringIwNS_11char_traitsIwEENS_9allocatorIwEEE6resizeEjw) for std::__2::basic_string<wchar_t, std::__2::char_traits<wchar_t>, std::__2::allocator<wchar_t> >::resize(unsigned int, wchar_t)
    string.cpp.o(.ARM.exidx.text._ZNSt3__210to_wstringEf) refers (Special) to _printf_f.o(.ARM.Collect$$_printf_percent$$00000003) for _printf_f
    string.cpp.o(.ARM.exidx.text._ZNSt3__210to_wstringEf) refers (Special) to printf1.o(x$fpl$printf1) for _printf_fp_dec
    string.cpp.o(.ARM.exidx.text._ZNSt3__210to_wstringEf) refers (Special) to _printf_percent.o(.ARM.Collect$$_printf_percent$$00000000) for _printf_percent
    string.cpp.o(.ARM.exidx.text._ZNSt3__210to_wstringEf) refers (Special) to _printf_s.o(.ARM.Collect$$_printf_percent$$00000014) for _printf_s
    string.cpp.o(.ARM.exidx.text._ZNSt3__210to_wstringEf) refers (Special) to _printf_str.o(.text) for _printf_str
    string.cpp.o(.ARM.exidx.text._ZNSt3__210to_wstringEf) refers to string.cpp.o(.text._ZNSt3__210to_wstringEf) for [Anonymous Symbol]
    string.cpp.o(.text._ZNKSt3__212_GLOBAL__N_114initial_stringINS_12basic_stringIwNS_11char_traitsIwEENS_9allocatorIwEEEEEclEv) refers (Special) to _printf_f.o(.ARM.Collect$$_printf_percent$$00000003) for _printf_f
    string.cpp.o(.text._ZNKSt3__212_GLOBAL__N_114initial_stringINS_12basic_stringIwNS_11char_traitsIwEENS_9allocatorIwEEEEEclEv) refers (Special) to printf1.o(x$fpl$printf1) for _printf_fp_dec
    string.cpp.o(.text._ZNKSt3__212_GLOBAL__N_114initial_stringINS_12basic_stringIwNS_11char_traitsIwEENS_9allocatorIwEEEEEclEv) refers (Special) to _printf_percent.o(.ARM.Collect$$_printf_percent$$00000000) for _printf_percent
    string.cpp.o(.text._ZNKSt3__212_GLOBAL__N_114initial_stringINS_12basic_stringIwNS_11char_traitsIwEENS_9allocatorIwEEEEEclEv) refers (Special) to _printf_s.o(.ARM.Collect$$_printf_percent$$00000014) for _printf_s
    string.cpp.o(.text._ZNKSt3__212_GLOBAL__N_114initial_stringINS_12basic_stringIwNS_11char_traitsIwEENS_9allocatorIwEEEEEclEv) refers (Special) to _printf_str.o(.text) for _printf_str
    string.cpp.o(.text._ZNKSt3__212_GLOBAL__N_114initial_stringINS_12basic_stringIwNS_11char_traitsIwEENS_9allocatorIwEEEEEclEv) refers to new.cpp.o(.text._Znwj) for operator new(unsigned int)
    string.cpp.o(.text._ZNKSt3__212_GLOBAL__N_114initial_stringINS_12basic_stringIwNS_11char_traitsIwEENS_9allocatorIwEEEEEclEv) refers to wmemset.o(.text) for wmemset
    string.cpp.o(.text._ZNKSt3__212_GLOBAL__N_114initial_stringINS_12basic_stringIwNS_11char_traitsIwEENS_9allocatorIwEEEEEclEv) refers to string.cpp.o(.text._ZNSt3__212basic_stringIwNS_11char_traitsIwEENS_9allocatorIwEEE6resizeEjw) for std::__2::basic_string<wchar_t, std::__2::char_traits<wchar_t>, std::__2::allocator<wchar_t> >::resize(unsigned int, wchar_t)
    string.cpp.o(.ARM.exidx.text._ZNKSt3__212_GLOBAL__N_114initial_stringINS_12basic_stringIwNS_11char_traitsIwEENS_9allocatorIwEEEEEclEv) refers (Special) to _printf_f.o(.ARM.Collect$$_printf_percent$$00000003) for _printf_f
    string.cpp.o(.ARM.exidx.text._ZNKSt3__212_GLOBAL__N_114initial_stringINS_12basic_stringIwNS_11char_traitsIwEENS_9allocatorIwEEEEEclEv) refers (Special) to printf1.o(x$fpl$printf1) for _printf_fp_dec
    string.cpp.o(.ARM.exidx.text._ZNKSt3__212_GLOBAL__N_114initial_stringINS_12basic_stringIwNS_11char_traitsIwEENS_9allocatorIwEEEEEclEv) refers (Special) to _printf_percent.o(.ARM.Collect$$_printf_percent$$00000000) for _printf_percent
    string.cpp.o(.ARM.exidx.text._ZNKSt3__212_GLOBAL__N_114initial_stringINS_12basic_stringIwNS_11char_traitsIwEENS_9allocatorIwEEEEEclEv) refers (Special) to _printf_s.o(.ARM.Collect$$_printf_percent$$00000014) for _printf_s
    string.cpp.o(.ARM.exidx.text._ZNKSt3__212_GLOBAL__N_114initial_stringINS_12basic_stringIwNS_11char_traitsIwEENS_9allocatorIwEEEEEclEv) refers (Special) to _printf_str.o(.text) for _printf_str
    string.cpp.o(.ARM.exidx.text._ZNKSt3__212_GLOBAL__N_114initial_stringINS_12basic_stringIwNS_11char_traitsIwEENS_9allocatorIwEEEEEclEv) refers to string.cpp.o(.text._ZNKSt3__212_GLOBAL__N_114initial_stringINS_12basic_stringIwNS_11char_traitsIwEENS_9allocatorIwEEEEEclEv) for [Anonymous Symbol]
    string.cpp.o(.text._ZNSt3__210to_wstringEd) refers (Special) to _printf_f.o(.ARM.Collect$$_printf_percent$$00000003) for _printf_f
    string.cpp.o(.text._ZNSt3__210to_wstringEd) refers (Special) to printf1.o(x$fpl$printf1) for _printf_fp_dec
    string.cpp.o(.text._ZNSt3__210to_wstringEd) refers (Special) to _printf_percent.o(.ARM.Collect$$_printf_percent$$00000000) for _printf_percent
    string.cpp.o(.text._ZNSt3__210to_wstringEd) refers (Special) to _printf_s.o(.ARM.Collect$$_printf_percent$$00000014) for _printf_s
    string.cpp.o(.text._ZNSt3__210to_wstringEd) refers (Special) to _printf_str.o(.text) for _printf_str
    string.cpp.o(.text._ZNSt3__210to_wstringEd) refers to string.cpp.o(.text._ZNKSt3__212_GLOBAL__N_114initial_stringINS_12basic_stringIwNS_11char_traitsIwEENS_9allocatorIwEEEEEclEv) for std::__2::(anonymous namespace)::initial_string<std::__2::basic_string<wchar_t, std::__2::char_traits<wchar_t>, std::__2::allocator<wchar_t> > >::operator()() const
    string.cpp.o(.text._ZNSt3__210to_wstringEd) refers to string.cpp.o(.rodata.str2.2) for .L.str.11
    string.cpp.o(.text._ZNSt3__210to_wstringEd) refers to __2swprintf.o(.text) for __2swprintf
    string.cpp.o(.text._ZNSt3__210to_wstringEd) refers to string.cpp.o(.text._ZNSt3__212basic_stringIwNS_11char_traitsIwEENS_9allocatorIwEEE6resizeEjw) for std::__2::basic_string<wchar_t, std::__2::char_traits<wchar_t>, std::__2::allocator<wchar_t> >::resize(unsigned int, wchar_t)
    string.cpp.o(.ARM.exidx.text._ZNSt3__210to_wstringEd) refers (Special) to _printf_f.o(.ARM.Collect$$_printf_percent$$00000003) for _printf_f
    string.cpp.o(.ARM.exidx.text._ZNSt3__210to_wstringEd) refers (Special) to printf1.o(x$fpl$printf1) for _printf_fp_dec
    string.cpp.o(.ARM.exidx.text._ZNSt3__210to_wstringEd) refers (Special) to _printf_percent.o(.ARM.Collect$$_printf_percent$$00000000) for _printf_percent
    string.cpp.o(.ARM.exidx.text._ZNSt3__210to_wstringEd) refers (Special) to _printf_s.o(.ARM.Collect$$_printf_percent$$00000014) for _printf_s
    string.cpp.o(.ARM.exidx.text._ZNSt3__210to_wstringEd) refers (Special) to _printf_str.o(.text) for _printf_str
    string.cpp.o(.ARM.exidx.text._ZNSt3__210to_wstringEd) refers to string.cpp.o(.text._ZNSt3__210to_wstringEd) for [Anonymous Symbol]
    string.cpp.o(.text._ZNSt3__210to_wstringEe) refers (Special) to _printf_f.o(.ARM.Collect$$_printf_percent$$00000003) for _printf_f
    string.cpp.o(.text._ZNSt3__210to_wstringEe) refers (Special) to printf1.o(x$fpl$printf1) for _printf_fp_dec
    string.cpp.o(.text._ZNSt3__210to_wstringEe) refers (Special) to _printf_percent.o(.ARM.Collect$$_printf_percent$$00000000) for _printf_percent
    string.cpp.o(.text._ZNSt3__210to_wstringEe) refers (Special) to _printf_s.o(.ARM.Collect$$_printf_percent$$00000014) for _printf_s
    string.cpp.o(.text._ZNSt3__210to_wstringEe) refers (Special) to _printf_str.o(.text) for _printf_str
    string.cpp.o(.text._ZNSt3__210to_wstringEe) refers to string.cpp.o(.text._ZNKSt3__212_GLOBAL__N_114initial_stringINS_12basic_stringIwNS_11char_traitsIwEENS_9allocatorIwEEEEEclEv) for std::__2::(anonymous namespace)::initial_string<std::__2::basic_string<wchar_t, std::__2::char_traits<wchar_t>, std::__2::allocator<wchar_t> > >::operator()() const
    string.cpp.o(.text._ZNSt3__210to_wstringEe) refers to __2swprintf.o(.text) for __2swprintf
    string.cpp.o(.text._ZNSt3__210to_wstringEe) refers to string.cpp.o(.text._ZNSt3__212basic_stringIwNS_11char_traitsIwEENS_9allocatorIwEEE6resizeEjw) for std::__2::basic_string<wchar_t, std::__2::char_traits<wchar_t>, std::__2::allocator<wchar_t> >::resize(unsigned int, wchar_t)
    string.cpp.o(.ARM.exidx.text._ZNSt3__210to_wstringEe) refers (Special) to _printf_f.o(.ARM.Collect$$_printf_percent$$00000003) for _printf_f
    string.cpp.o(.ARM.exidx.text._ZNSt3__210to_wstringEe) refers (Special) to printf1.o(x$fpl$printf1) for _printf_fp_dec
    string.cpp.o(.ARM.exidx.text._ZNSt3__210to_wstringEe) refers (Special) to _printf_percent.o(.ARM.Collect$$_printf_percent$$00000000) for _printf_percent
    string.cpp.o(.ARM.exidx.text._ZNSt3__210to_wstringEe) refers (Special) to _printf_s.o(.ARM.Collect$$_printf_percent$$00000014) for _printf_s
    string.cpp.o(.ARM.exidx.text._ZNSt3__210to_wstringEe) refers (Special) to _printf_str.o(.text) for _printf_str
    string.cpp.o(.ARM.exidx.text._ZNSt3__210to_wstringEe) refers to string.cpp.o(.text._ZNSt3__210to_wstringEe) for [Anonymous Symbol]
    string.cpp.o(.text._ZNSt3__212_GLOBAL__N_130throw_from_string_out_of_rangeERKNS_12basic_stringIcNS_11char_traitsIcEENS_9allocatorIcEEEE) refers (Special) to _printf_f.o(.ARM.Collect$$_printf_percent$$00000003) for _printf_f
    string.cpp.o(.text._ZNSt3__212_GLOBAL__N_130throw_from_string_out_of_rangeERKNS_12basic_stringIcNS_11char_traitsIcEENS_9allocatorIcEEEE) refers (Special) to printf1.o(x$fpl$printf1) for _printf_fp_dec
    string.cpp.o(.text._ZNSt3__212_GLOBAL__N_130throw_from_string_out_of_rangeERKNS_12basic_stringIcNS_11char_traitsIcEENS_9allocatorIcEEEE) refers (Special) to _printf_percent.o(.ARM.Collect$$_printf_percent$$00000000) for _printf_percent
    string.cpp.o(.text._ZNSt3__212_GLOBAL__N_130throw_from_string_out_of_rangeERKNS_12basic_stringIcNS_11char_traitsIcEENS_9allocatorIcEEEE) refers (Special) to _printf_s.o(.ARM.Collect$$_printf_percent$$00000014) for _printf_s
    string.cpp.o(.text._ZNSt3__212_GLOBAL__N_130throw_from_string_out_of_rangeERKNS_12basic_stringIcNS_11char_traitsIcEENS_9allocatorIcEEEE) refers (Special) to _printf_str.o(.text) for _printf_str
    string.cpp.o(.text._ZNSt3__212_GLOBAL__N_130throw_from_string_out_of_rangeERKNS_12basic_stringIcNS_11char_traitsIcEENS_9allocatorIcEEEE) refers to abort.o(.text) for abort
    string.cpp.o(.text._ZNSt3__212_GLOBAL__N_130throw_from_string_out_of_rangeERKNS_12basic_stringIcNS_11char_traitsIcEENS_9allocatorIcEEEE) refers to new.cpp.o(.text._Znwj) for operator new(unsigned int)
    string.cpp.o(.text._ZNSt3__212_GLOBAL__N_130throw_from_string_out_of_rangeERKNS_12basic_stringIcNS_11char_traitsIcEENS_9allocatorIcEEEE) refers to rt_memcpy_v6.o(.text) for __aeabi_memcpy
    string.cpp.o(.text._ZNSt3__212_GLOBAL__N_130throw_from_string_out_of_rangeERKNS_12basic_stringIcNS_11char_traitsIcEENS_9allocatorIcEEEE) refers to string.cpp.o(.text._ZNSt3__212basic_stringIcNS_11char_traitsIcEENS_9allocatorIcEEE6appendEPKcj) for std::__2::basic_string<char, std::__2::char_traits<char>, std::__2::allocator<char> >::append(char const*, unsigned int)
    string.cpp.o(.text._ZNSt3__212_GLOBAL__N_130throw_from_string_out_of_rangeERKNS_12basic_stringIcNS_11char_traitsIcEENS_9allocatorIcEEEE) refers to string.cpp.o(.text._ZNSt3__212_GLOBAL__N_112throw_helperISt12out_of_rangeEEvRKNS_12basic_stringIcNS_11char_traitsIcEENS_9allocatorIcEEEE) for void std::__2::(anonymous namespace)::throw_helper<std::out_of_range>(std::__2::basic_string<char, std::__2::char_traits<char>, std::__2::allocator<char> > const&)
    string.cpp.o(.ARM.exidx.text._ZNSt3__212_GLOBAL__N_130throw_from_string_out_of_rangeERKNS_12basic_stringIcNS_11char_traitsIcEENS_9allocatorIcEEEE) refers (Special) to _printf_f.o(.ARM.Collect$$_printf_percent$$00000003) for _printf_f
    string.cpp.o(.ARM.exidx.text._ZNSt3__212_GLOBAL__N_130throw_from_string_out_of_rangeERKNS_12basic_stringIcNS_11char_traitsIcEENS_9allocatorIcEEEE) refers (Special) to printf1.o(x$fpl$printf1) for _printf_fp_dec
    string.cpp.o(.ARM.exidx.text._ZNSt3__212_GLOBAL__N_130throw_from_string_out_of_rangeERKNS_12basic_stringIcNS_11char_traitsIcEENS_9allocatorIcEEEE) refers (Special) to _printf_percent.o(.ARM.Collect$$_printf_percent$$00000000) for _printf_percent
    string.cpp.o(.ARM.exidx.text._ZNSt3__212_GLOBAL__N_130throw_from_string_out_of_rangeERKNS_12basic_stringIcNS_11char_traitsIcEENS_9allocatorIcEEEE) refers (Special) to _printf_s.o(.ARM.Collect$$_printf_percent$$00000014) for _printf_s
    string.cpp.o(.ARM.exidx.text._ZNSt3__212_GLOBAL__N_130throw_from_string_out_of_rangeERKNS_12basic_stringIcNS_11char_traitsIcEENS_9allocatorIcEEEE) refers (Special) to _printf_str.o(.text) for _printf_str
    string.cpp.o(.ARM.exidx.text._ZNSt3__212_GLOBAL__N_130throw_from_string_out_of_rangeERKNS_12basic_stringIcNS_11char_traitsIcEENS_9allocatorIcEEEE) refers to string.cpp.o(.text._ZNSt3__212_GLOBAL__N_130throw_from_string_out_of_rangeERKNS_12basic_stringIcNS_11char_traitsIcEENS_9allocatorIcEEEE) for [Anonymous Symbol]
    string.cpp.o(.text._ZNSt3__212_GLOBAL__N_129throw_from_string_invalid_argERKNS_12basic_stringIcNS_11char_traitsIcEENS_9allocatorIcEEEE) refers (Special) to _printf_f.o(.ARM.Collect$$_printf_percent$$00000003) for _printf_f
    string.cpp.o(.text._ZNSt3__212_GLOBAL__N_129throw_from_string_invalid_argERKNS_12basic_stringIcNS_11char_traitsIcEENS_9allocatorIcEEEE) refers (Special) to printf1.o(x$fpl$printf1) for _printf_fp_dec
    string.cpp.o(.text._ZNSt3__212_GLOBAL__N_129throw_from_string_invalid_argERKNS_12basic_stringIcNS_11char_traitsIcEENS_9allocatorIcEEEE) refers (Special) to _printf_percent.o(.ARM.Collect$$_printf_percent$$00000000) for _printf_percent
    string.cpp.o(.text._ZNSt3__212_GLOBAL__N_129throw_from_string_invalid_argERKNS_12basic_stringIcNS_11char_traitsIcEENS_9allocatorIcEEEE) refers (Special) to _printf_s.o(.ARM.Collect$$_printf_percent$$00000014) for _printf_s
    string.cpp.o(.text._ZNSt3__212_GLOBAL__N_129throw_from_string_invalid_argERKNS_12basic_stringIcNS_11char_traitsIcEENS_9allocatorIcEEEE) refers (Special) to _printf_str.o(.text) for _printf_str
    string.cpp.o(.text._ZNSt3__212_GLOBAL__N_129throw_from_string_invalid_argERKNS_12basic_stringIcNS_11char_traitsIcEENS_9allocatorIcEEEE) refers to abort.o(.text) for abort
    string.cpp.o(.text._ZNSt3__212_GLOBAL__N_129throw_from_string_invalid_argERKNS_12basic_stringIcNS_11char_traitsIcEENS_9allocatorIcEEEE) refers to new.cpp.o(.text._Znwj) for operator new(unsigned int)
    string.cpp.o(.text._ZNSt3__212_GLOBAL__N_129throw_from_string_invalid_argERKNS_12basic_stringIcNS_11char_traitsIcEENS_9allocatorIcEEEE) refers to rt_memcpy_v6.o(.text) for __aeabi_memcpy
    string.cpp.o(.text._ZNSt3__212_GLOBAL__N_129throw_from_string_invalid_argERKNS_12basic_stringIcNS_11char_traitsIcEENS_9allocatorIcEEEE) refers to string.cpp.o(.text._ZNSt3__212basic_stringIcNS_11char_traitsIcEENS_9allocatorIcEEE6appendEPKcj) for std::__2::basic_string<char, std::__2::char_traits<char>, std::__2::allocator<char> >::append(char const*, unsigned int)
    string.cpp.o(.text._ZNSt3__212_GLOBAL__N_129throw_from_string_invalid_argERKNS_12basic_stringIcNS_11char_traitsIcEENS_9allocatorIcEEEE) refers to string.cpp.o(.text._ZNSt3__212_GLOBAL__N_112throw_helperISt16invalid_argumentEEvRKNS_12basic_stringIcNS_11char_traitsIcEENS_9allocatorIcEEEE) for void std::__2::(anonymous namespace)::throw_helper<std::invalid_argument>(std::__2::basic_string<char, std::__2::char_traits<char>, std::__2::allocator<char> > const&)
    string.cpp.o(.ARM.exidx.text._ZNSt3__212_GLOBAL__N_129throw_from_string_invalid_argERKNS_12basic_stringIcNS_11char_traitsIcEENS_9allocatorIcEEEE) refers (Special) to _printf_f.o(.ARM.Collect$$_printf_percent$$00000003) for _printf_f
    string.cpp.o(.ARM.exidx.text._ZNSt3__212_GLOBAL__N_129throw_from_string_invalid_argERKNS_12basic_stringIcNS_11char_traitsIcEENS_9allocatorIcEEEE) refers (Special) to printf1.o(x$fpl$printf1) for _printf_fp_dec
    string.cpp.o(.ARM.exidx.text._ZNSt3__212_GLOBAL__N_129throw_from_string_invalid_argERKNS_12basic_stringIcNS_11char_traitsIcEENS_9allocatorIcEEEE) refers (Special) to _printf_percent.o(.ARM.Collect$$_printf_percent$$00000000) for _printf_percent
    string.cpp.o(.ARM.exidx.text._ZNSt3__212_GLOBAL__N_129throw_from_string_invalid_argERKNS_12basic_stringIcNS_11char_traitsIcEENS_9allocatorIcEEEE) refers (Special) to _printf_s.o(.ARM.Collect$$_printf_percent$$00000014) for _printf_s
    string.cpp.o(.ARM.exidx.text._ZNSt3__212_GLOBAL__N_129throw_from_string_invalid_argERKNS_12basic_stringIcNS_11char_traitsIcEENS_9allocatorIcEEEE) refers (Special) to _printf_str.o(.text) for _printf_str
    string.cpp.o(.ARM.exidx.text._ZNSt3__212_GLOBAL__N_129throw_from_string_invalid_argERKNS_12basic_stringIcNS_11char_traitsIcEENS_9allocatorIcEEEE) refers to string.cpp.o(.text._ZNSt3__212_GLOBAL__N_129throw_from_string_invalid_argERKNS_12basic_stringIcNS_11char_traitsIcEENS_9allocatorIcEEEE) for [Anonymous Symbol]
    string.cpp.o(.text._ZNSt3__212_GLOBAL__N_112throw_helperISt16invalid_argumentEEvRKNS_12basic_stringIcNS_11char_traitsIcEENS_9allocatorIcEEEE) refers (Special) to _printf_f.o(.ARM.Collect$$_printf_percent$$00000003) for _printf_f
    string.cpp.o(.text._ZNSt3__212_GLOBAL__N_112throw_helperISt16invalid_argumentEEvRKNS_12basic_stringIcNS_11char_traitsIcEENS_9allocatorIcEEEE) refers (Special) to printf1.o(x$fpl$printf1) for _printf_fp_dec
    string.cpp.o(.text._ZNSt3__212_GLOBAL__N_112throw_helperISt16invalid_argumentEEvRKNS_12basic_stringIcNS_11char_traitsIcEENS_9allocatorIcEEEE) refers (Special) to _printf_percent.o(.ARM.Collect$$_printf_percent$$00000000) for _printf_percent
    string.cpp.o(.text._ZNSt3__212_GLOBAL__N_112throw_helperISt16invalid_argumentEEvRKNS_12basic_stringIcNS_11char_traitsIcEENS_9allocatorIcEEEE) refers (Special) to _printf_s.o(.ARM.Collect$$_printf_percent$$00000014) for _printf_s
    string.cpp.o(.text._ZNSt3__212_GLOBAL__N_112throw_helperISt16invalid_argumentEEvRKNS_12basic_stringIcNS_11char_traitsIcEENS_9allocatorIcEEEE) refers (Special) to _printf_str.o(.text) for _printf_str
    string.cpp.o(.text._ZNSt3__212_GLOBAL__N_112throw_helperISt16invalid_argumentEEvRKNS_12basic_stringIcNS_11char_traitsIcEENS_9allocatorIcEEEE) refers to stdio_streams.o(.bss) for __stderr
    string.cpp.o(.text._ZNSt3__212_GLOBAL__N_112throw_helperISt16invalid_argumentEEvRKNS_12basic_stringIcNS_11char_traitsIcEENS_9allocatorIcEEEE) refers to string.cpp.o(.rodata.str1.1) for .L.str.15
    string.cpp.o(.text._ZNSt3__212_GLOBAL__N_112throw_helperISt16invalid_argumentEEvRKNS_12basic_stringIcNS_11char_traitsIcEENS_9allocatorIcEEEE) refers to __2fprintf.o(.text) for __2fprintf
    string.cpp.o(.text._ZNSt3__212_GLOBAL__N_112throw_helperISt16invalid_argumentEEvRKNS_12basic_stringIcNS_11char_traitsIcEENS_9allocatorIcEEEE) refers to abort.o(.text) for abort
    string.cpp.o(.ARM.exidx.text._ZNSt3__212_GLOBAL__N_112throw_helperISt16invalid_argumentEEvRKNS_12basic_stringIcNS_11char_traitsIcEENS_9allocatorIcEEEE) refers (Special) to _printf_f.o(.ARM.Collect$$_printf_percent$$00000003) for _printf_f
    string.cpp.o(.ARM.exidx.text._ZNSt3__212_GLOBAL__N_112throw_helperISt16invalid_argumentEEvRKNS_12basic_stringIcNS_11char_traitsIcEENS_9allocatorIcEEEE) refers (Special) to printf1.o(x$fpl$printf1) for _printf_fp_dec
    string.cpp.o(.ARM.exidx.text._ZNSt3__212_GLOBAL__N_112throw_helperISt16invalid_argumentEEvRKNS_12basic_stringIcNS_11char_traitsIcEENS_9allocatorIcEEEE) refers (Special) to _printf_percent.o(.ARM.Collect$$_printf_percent$$00000000) for _printf_percent
    string.cpp.o(.ARM.exidx.text._ZNSt3__212_GLOBAL__N_112throw_helperISt16invalid_argumentEEvRKNS_12basic_stringIcNS_11char_traitsIcEENS_9allocatorIcEEEE) refers (Special) to _printf_s.o(.ARM.Collect$$_printf_percent$$00000014) for _printf_s
    string.cpp.o(.ARM.exidx.text._ZNSt3__212_GLOBAL__N_112throw_helperISt16invalid_argumentEEvRKNS_12basic_stringIcNS_11char_traitsIcEENS_9allocatorIcEEEE) refers (Special) to _printf_str.o(.text) for _printf_str
    string.cpp.o(.ARM.exidx.text._ZNSt3__212_GLOBAL__N_112throw_helperISt16invalid_argumentEEvRKNS_12basic_stringIcNS_11char_traitsIcEENS_9allocatorIcEEEE) refers to string.cpp.o(.text._ZNSt3__212_GLOBAL__N_112throw_helperISt16invalid_argumentEEvRKNS_12basic_stringIcNS_11char_traitsIcEENS_9allocatorIcEEEE) for [Anonymous Symbol]
    string.cpp.o(.text._ZNSt3__212_GLOBAL__N_112throw_helperISt12out_of_rangeEEvRKNS_12basic_stringIcNS_11char_traitsIcEENS_9allocatorIcEEEE) refers (Special) to _printf_f.o(.ARM.Collect$$_printf_percent$$00000003) for _printf_f
    string.cpp.o(.text._ZNSt3__212_GLOBAL__N_112throw_helperISt12out_of_rangeEEvRKNS_12basic_stringIcNS_11char_traitsIcEENS_9allocatorIcEEEE) refers (Special) to printf1.o(x$fpl$printf1) for _printf_fp_dec
    string.cpp.o(.text._ZNSt3__212_GLOBAL__N_112throw_helperISt12out_of_rangeEEvRKNS_12basic_stringIcNS_11char_traitsIcEENS_9allocatorIcEEEE) refers (Special) to _printf_percent.o(.ARM.Collect$$_printf_percent$$00000000) for _printf_percent
    string.cpp.o(.text._ZNSt3__212_GLOBAL__N_112throw_helperISt12out_of_rangeEEvRKNS_12basic_stringIcNS_11char_traitsIcEENS_9allocatorIcEEEE) refers (Special) to _printf_s.o(.ARM.Collect$$_printf_percent$$00000014) for _printf_s
    string.cpp.o(.text._ZNSt3__212_GLOBAL__N_112throw_helperISt12out_of_rangeEEvRKNS_12basic_stringIcNS_11char_traitsIcEENS_9allocatorIcEEEE) refers (Special) to _printf_str.o(.text) for _printf_str
    string.cpp.o(.text._ZNSt3__212_GLOBAL__N_112throw_helperISt12out_of_rangeEEvRKNS_12basic_stringIcNS_11char_traitsIcEENS_9allocatorIcEEEE) refers to stdio_streams.o(.bss) for __stderr
    string.cpp.o(.text._ZNSt3__212_GLOBAL__N_112throw_helperISt12out_of_rangeEEvRKNS_12basic_stringIcNS_11char_traitsIcEENS_9allocatorIcEEEE) refers to string.cpp.o(.rodata.str1.1) for .L.str.15
    string.cpp.o(.text._ZNSt3__212_GLOBAL__N_112throw_helperISt12out_of_rangeEEvRKNS_12basic_stringIcNS_11char_traitsIcEENS_9allocatorIcEEEE) refers to __2fprintf.o(.text) for __2fprintf
    string.cpp.o(.text._ZNSt3__212_GLOBAL__N_112throw_helperISt12out_of_rangeEEvRKNS_12basic_stringIcNS_11char_traitsIcEENS_9allocatorIcEEEE) refers to abort.o(.text) for abort
    string.cpp.o(.ARM.exidx.text._ZNSt3__212_GLOBAL__N_112throw_helperISt12out_of_rangeEEvRKNS_12basic_stringIcNS_11char_traitsIcEENS_9allocatorIcEEEE) refers (Special) to _printf_f.o(.ARM.Collect$$_printf_percent$$00000003) for _printf_f
    string.cpp.o(.ARM.exidx.text._ZNSt3__212_GLOBAL__N_112throw_helperISt12out_of_rangeEEvRKNS_12basic_stringIcNS_11char_traitsIcEENS_9allocatorIcEEEE) refers (Special) to printf1.o(x$fpl$printf1) for _printf_fp_dec
    string.cpp.o(.ARM.exidx.text._ZNSt3__212_GLOBAL__N_112throw_helperISt12out_of_rangeEEvRKNS_12basic_stringIcNS_11char_traitsIcEENS_9allocatorIcEEEE) refers (Special) to _printf_percent.o(.ARM.Collect$$_printf_percent$$00000000) for _printf_percent
    string.cpp.o(.ARM.exidx.text._ZNSt3__212_GLOBAL__N_112throw_helperISt12out_of_rangeEEvRKNS_12basic_stringIcNS_11char_traitsIcEENS_9allocatorIcEEEE) refers (Special) to _printf_s.o(.ARM.Collect$$_printf_percent$$00000014) for _printf_s
    string.cpp.o(.ARM.exidx.text._ZNSt3__212_GLOBAL__N_112throw_helperISt12out_of_rangeEEvRKNS_12basic_stringIcNS_11char_traitsIcEENS_9allocatorIcEEEE) refers (Special) to _printf_str.o(.text) for _printf_str
    string.cpp.o(.ARM.exidx.text._ZNSt3__212_GLOBAL__N_112throw_helperISt12out_of_rangeEEvRKNS_12basic_stringIcNS_11char_traitsIcEENS_9allocatorIcEEEE) refers to string.cpp.o(.text._ZNSt3__212_GLOBAL__N_112throw_helperISt12out_of_rangeEEvRKNS_12basic_stringIcNS_11char_traitsIcEENS_9allocatorIcEEEE) for [Anonymous Symbol]
    string.cpp.o(.rodata.str1.1) refers (Special) to _printf_f.o(.ARM.Collect$$_printf_percent$$00000003) for _printf_f
    string.cpp.o(.rodata.str1.1) refers (Special) to printf1.o(x$fpl$printf1) for _printf_fp_dec
    string.cpp.o(.rodata.str1.1) refers (Special) to _printf_percent.o(.ARM.Collect$$_printf_percent$$00000000) for _printf_percent
    string.cpp.o(.rodata.str1.1) refers (Special) to _printf_s.o(.ARM.Collect$$_printf_percent$$00000014) for _printf_s
    string.cpp.o(.rodata.str1.1) refers (Special) to _printf_str.o(.text) for _printf_str
    string.cpp.o(.rodata.str2.2) refers (Special) to _printf_f.o(.ARM.Collect$$_printf_percent$$00000003) for _printf_f
    string.cpp.o(.rodata.str2.2) refers (Special) to printf1.o(x$fpl$printf1) for _printf_fp_dec
    string.cpp.o(.rodata.str2.2) refers (Special) to _printf_percent.o(.ARM.Collect$$_printf_percent$$00000000) for _printf_percent
    string.cpp.o(.rodata.str2.2) refers (Special) to _printf_s.o(.ARM.Collect$$_printf_percent$$00000014) for _printf_s
    string.cpp.o(.rodata.str2.2) refers (Special) to _printf_str.o(.text) for _printf_str
    string.cpp.o(.rodata._ZNSt3__26__itoaL10__pow10_32E) refers (Special) to _printf_f.o(.ARM.Collect$$_printf_percent$$00000003) for _printf_f
    string.cpp.o(.rodata._ZNSt3__26__itoaL10__pow10_32E) refers (Special) to printf1.o(x$fpl$printf1) for _printf_fp_dec
    string.cpp.o(.rodata._ZNSt3__26__itoaL10__pow10_32E) refers (Special) to _printf_percent.o(.ARM.Collect$$_printf_percent$$00000000) for _printf_percent
    string.cpp.o(.rodata._ZNSt3__26__itoaL10__pow10_32E) refers (Special) to _printf_s.o(.ARM.Collect$$_printf_percent$$00000014) for _printf_s
    string.cpp.o(.rodata._ZNSt3__26__itoaL10__pow10_32E) refers (Special) to _printf_str.o(.text) for _printf_str
    string.cpp.o(.rodata._ZNSt3__26__itoaL10__pow10_64E) refers (Special) to _printf_f.o(.ARM.Collect$$_printf_percent$$00000003) for _printf_f
    string.cpp.o(.rodata._ZNSt3__26__itoaL10__pow10_64E) refers (Special) to printf1.o(x$fpl$printf1) for _printf_fp_dec
    string.cpp.o(.rodata._ZNSt3__26__itoaL10__pow10_64E) refers (Special) to _printf_percent.o(.ARM.Collect$$_printf_percent$$00000000) for _printf_percent
    string.cpp.o(.rodata._ZNSt3__26__itoaL10__pow10_64E) refers (Special) to _printf_s.o(.ARM.Collect$$_printf_percent$$00000014) for _printf_s
    string.cpp.o(.rodata._ZNSt3__26__itoaL10__pow10_64E) refers (Special) to _printf_str.o(.text) for _printf_str
    sys_exit.o(.text) refers (Special) to use_no_semi.o(.text) for __I$use$semihosting
    sys_exit.o(.text) refers (Special) to indicate_semi.o(.text) for __semihosting_library_function
    sys_exit_hlt.o(.text) refers (Special) to use_no_semi.o(.text) for __I$use$semihosting
    sys_exit_hlt.o(.text) refers (Special) to indicate_semi.o(.text) for __semihosting_library_function
    __rtentry.o(.ARM.Collect$$rtentry$$00000000) refers (Special) to __rtentry2.o(.ARM.Collect$$rtentry$$0000000A) for __rt_entry_li
    __rtentry.o(.ARM.Collect$$rtentry$$00000000) refers (Special) to __rtentry2.o(.ARM.Collect$$rtentry$$0000000D) for __rt_entry_main
    __rtentry.o(.ARM.Collect$$rtentry$$00000000) refers (Special) to __rtentry2.o(.ARM.Collect$$rtentry$$0000000C) for __rt_entry_postli_1
    __rtentry.o(.ARM.Collect$$rtentry$$00000000) refers (Special) to __rtentry2.o(.ARM.Collect$$rtentry$$00000009) for __rt_entry_postsh_1
    __rtentry.o(.ARM.Collect$$rtentry$$00000000) refers (Special) to __rtentry2.o(.ARM.Collect$$rtentry$$00000002) for __rt_entry_presh_1
    __rtentry.o(.ARM.Collect$$rtentry$$00000000) refers (Special) to __rtentry4.o(.ARM.Collect$$rtentry$$00000004) for __rt_entry_sh
    rt_errno_addr.o(.text) refers to rt_errno_addr.o(.bss) for __aeabi_errno_addr_data
    rt_errno_addr_intlibspace.o(.text) refers to libspace.o(.bss) for __libspace_start
    malloc.o(.text) refers (Special) to hguard.o(.text) for __heap$guard
    malloc.o(.text) refers (Special) to init_alloc.o(.text) for _init_alloc
    malloc.o(.text) refers to rt_heap_descriptor_intlibspace.o(.text) for __rt_heap_descriptor
    malloc.o(.text) refers to heapstubs.o(.text) for __Heap_Alloc
    free.o(.text) refers (Special) to hguard.o(.text) for __heap$guard
    free.o(.text) refers to rt_heap_descriptor_intlibspace.o(.text) for __rt_heap_descriptor
    free.o(.text) refers to heapstubs.o(.text) for __Heap_Free
    h1_alloc.o(.text) refers (Special) to h1_init.o(.text) for __Heap_Initialize
    h1_alloc.o(.text) refers to rt_heap_descriptor_intlibspace.o(.text) for __rt_heap_descriptor
    h1_alloc.o(.text) refers to init_alloc.o(.text) for __Heap_Full
    h1_free.o(.text) refers to rt_heap_descriptor_intlibspace.o(.text) for __rt_heap_descriptor
    h1_memalign.o(.text) refers (Special) to h1_init.o(.text) for __Heap_Initialize
    h1_memalign.o(.text) refers to rt_heap_descriptor_intlibspace.o(.text) for __rt_heap_descriptor
    h1_memalign.o(.text) refers to init_alloc.o(.text) for __Heap_Full
    h1_alloc_threads.o(.text) refers (Special) to h1_init.o(.text) for __Heap_Initialize
    h1_alloc_threads.o(.text) refers to init_alloc.o(.text) for __Heap_Full
    h1_alloc_threads.o(.text) refers to rt_heap_descriptor_intlibspace.o(.text) for __rt_heap_descriptor
    h1_free_threads.o(.text) refers to rt_heap_descriptor_intlibspace.o(.text) for __rt_heap_descriptor
    h1_memalign_threads.o(.text) refers (Special) to h1_init.o(.text) for __Heap_Initialize
    h1_memalign_threads.o(.text) refers to rt_heap_descriptor_intlibspace.o(.text) for __rt_heap_descriptor
    h1_memalign_threads.o(.text) refers to init_alloc.o(.text) for __Heap_Full
    heap2.o(i._FDIterate) refers to heap2.o(.conststring) for .conststring
    heap2.o(i.__Heap_ProvideMemory$realtime) refers to fdtree.o(i._FDTree_Delete) for _FDTree_Delete
    heap2.o(i.__Heap_ProvideMemory$realtime) refers to fdtree.o(i._FDTree_Insert) for _FDTree_Insert
    heap2.o(i.__Heap_Stats$realtime) refers to heap2.o(i._Heap2_StatsIterate) for _Heap2_StatsIterate
    heap2.o(i.__Heap_Valid$realtime) refers to heap2.o(i._FDIterate) for _FDIterate
    heap2.o(i.__Heap_Valid$realtime) refers to heap2.o(.conststring) for .conststring
    heap2.o(i.free$realtime) refers to rt_heap_descriptor_intlibspace.o(.text) for __rt_heap_descriptor
    heap2.o(i.free$realtime) refers to fdtree.o(i._FDTree_Delete) for _FDTree_Delete
    heap2.o(i.free$realtime) refers to fdtree.o(i._FDTree_Insert) for _FDTree_Insert
    heap2.o(i.malloc$realtime) refers to rt_heap_descriptor_intlibspace.o(.text) for __rt_heap_descriptor
    heap2.o(i.malloc$realtime) refers to fdtree.o(i._FDTree_FindFirst) for _FDTree_FindFirst
    heap2.o(i.malloc$realtime) refers to init_alloc.o(.text) for __Heap_Full
    heap2.o(i.malloc$realtime) refers to fdtree.o(i._FDTree_RemoveNode) for _FDTree_RemoveNode
    heap2.o(i.malloc$realtime) refers to fdtree.o(i._FDTree_Insert) for _FDTree_Insert
    heap2.o(i.posix_memalign$realtime) refers to rt_heap_descriptor_intlibspace.o(.text) for __rt_heap_descriptor
    heap2.o(i.posix_memalign$realtime) refers to fdtree.o(i._FDTree_FindFirst) for _FDTree_FindFirst
    heap2.o(i.posix_memalign$realtime) refers to init_alloc.o(.text) for __Heap_Full
    heap2.o(i.posix_memalign$realtime) refers to fdtree.o(i._FDTree_RemoveNode) for _FDTree_RemoveNode
    heap2.o(i.posix_memalign$realtime) refers to fdtree.o(i._FDTree_Insert) for _FDTree_Insert
    heap2.o(i.realloc$realtime) refers to rt_heap_descriptor_intlibspace.o(.text) for __rt_heap_descriptor
    heap2.o(i.realloc$realtime) refers to fdtree.o(i._FDTree_Insert) for _FDTree_Insert
    heap2.o(i.realloc$realtime) refers to h1_free.o(.text) for free
    heap2.o(i.realloc$realtime) refers to h1_alloc.o(.text) for malloc
    heap2.o(i.realloc$realtime) refers to fdtree.o(i._FDTree_Delete) for _FDTree_Delete
    heap2.o(i.realloc$realtime) refers to rt_memcpy_w.o(.text) for __aeabi_memcpy4
    heap2_threads.o(i._FDIterate) refers to heap2_threads.o(.conststring) for .conststring
    heap2_threads.o(i.__Heap_Initialize$realtime$concurrent) refers to mutex_dummy.o(.text) for _mutex_initialize
    heap2_threads.o(i.__Heap_ProvideMemory$realtime$concurrent) refers to fdtree.o(i._FDTree_Delete) for _FDTree_Delete
    heap2_threads.o(i.__Heap_ProvideMemory$realtime$concurrent) refers to fdtree.o(i._FDTree_Insert) for _FDTree_Insert
    heap2_threads.o(i.__Heap_Stats$realtime$concurrent) refers to heap2_threads.o(i._Heap2_StatsIterate) for _Heap2_StatsIterate
    heap2_threads.o(i.__Heap_Valid$realtime$concurrent) refers to heap2_threads.o(i._FDIterate) for _FDIterate
    heap2_threads.o(i.__Heap_Valid$realtime$concurrent) refers to heap2_threads.o(.conststring) for .conststring
    heap2_threads.o(i.free$realtime$concurrent) refers to rt_heap_descriptor_intlibspace.o(.text) for __rt_heap_descriptor
    heap2_threads.o(i.free$realtime$concurrent) refers to fdtree.o(i._FDTree_Delete) for _FDTree_Delete
    heap2_threads.o(i.free$realtime$concurrent) refers to fdtree.o(i._FDTree_Insert) for _FDTree_Insert
    heap2_threads.o(i.malloc$realtime$concurrent) refers to rt_heap_descriptor_intlibspace.o(.text) for __rt_heap_descriptor
    heap2_threads.o(i.malloc$realtime$concurrent) refers to fdtree.o(i._FDTree_FindFirst) for _FDTree_FindFirst
    heap2_threads.o(i.malloc$realtime$concurrent) refers to init_alloc.o(.text) for __Heap_Full
    heap2_threads.o(i.malloc$realtime$concurrent) refers to fdtree.o(i._FDTree_RemoveNode) for _FDTree_RemoveNode
    heap2_threads.o(i.malloc$realtime$concurrent) refers to fdtree.o(i._FDTree_Insert) for _FDTree_Insert
    heap2_threads.o(i.posix_memalign$realtime$concurrent) refers to rt_heap_descriptor_intlibspace.o(.text) for __rt_heap_descriptor
    heap2_threads.o(i.posix_memalign$realtime$concurrent) refers to fdtree.o(i._FDTree_FindFirst) for _FDTree_FindFirst
    heap2_threads.o(i.posix_memalign$realtime$concurrent) refers to init_alloc.o(.text) for __Heap_Full
    heap2_threads.o(i.posix_memalign$realtime$concurrent) refers to fdtree.o(i._FDTree_RemoveNode) for _FDTree_RemoveNode
    heap2_threads.o(i.posix_memalign$realtime$concurrent) refers to fdtree.o(i._FDTree_Insert) for _FDTree_Insert
    heap2_threads.o(i.realloc$realtime$concurrent) refers to rt_heap_descriptor_intlibspace.o(.text) for __rt_heap_descriptor
    heap2_threads.o(i.realloc$realtime$concurrent) refers to fdtree.o(i._FDTree_Insert) for _FDTree_Insert
    heap2_threads.o(i.realloc$realtime$concurrent) refers to h1_free.o(.text) for free
    heap2_threads.o(i.realloc$realtime$concurrent) refers to h1_alloc.o(.text) for malloc
    heap2_threads.o(i.realloc$realtime$concurrent) refers to fdtree.o(i._FDTree_Delete) for _FDTree_Delete
    heap2_threads.o(i.realloc$realtime$concurrent) refers to rt_memcpy_w.o(.text) for __aeabi_memcpy4
    __2fprintf.o(.text) refers to _printf_char_file.o(.text) for _printf_char_file
    __2snprintf.o(.text) refers to _printf_char_common.o(.text) for _printf_char_common
    __2snprintf.o(.text) refers to _sputc.o(.text) for _sputc
    __2snprintf.o(.text) refers to _snputc.o(.text) for _snputc
    __2swprintf.o(.text) refers to _printf_wchar_common.o(.text) for _printf_wchar_common
    __2swprintf.o(.text) refers to _snputwc.o(.text) for _snputwc
    noretval__2fprintf.o(.text) refers to _printf_char_file.o(.text) for _printf_char_file
    noretval__2snprintf.o(.text) refers to _printf_char_common.o(.text) for _printf_char_common
    noretval__2snprintf.o(.text) refers to _sputc.o(.text) for _sputc
    noretval__2snprintf.o(.text) refers to _snputc.o(.text) for _snputc
    noretval__2swprintf.o(.text) refers to _printf_wchar_common.o(.text) for _printf_wchar_common
    noretval__2swprintf.o(.text) refers to _snputwc.o(.text) for _snputwc
    __printf.o(.text) refers to _printf_percent.o(.ARM.Collect$$_printf_percent$$00000000) for _printf_percent
    _printf_str.o(.text) refers (Special) to _printf_char.o(.text) for _printf_cs_common
    __printf_flags.o(.text) refers to _printf_percent.o(.ARM.Collect$$_printf_percent$$00000000) for _printf_percent
    __printf_flags.o(.text) refers to __printf_flags.o(.constdata) for .constdata
    __printf_ss.o(.text) refers to _printf_percent.o(.ARM.Collect$$_printf_percent$$00000000) for _printf_percent
    __printf_flags_ss.o(.text) refers to _printf_percent.o(.ARM.Collect$$_printf_percent$$00000000) for _printf_percent
    __printf_flags_ss.o(.text) refers to __printf_flags_ss.o(.constdata) for .constdata
    __printf_wp.o(.text) refers to __printf_wp.o(i._is_digit) for _is_digit
    __printf_wp.o(.text) refers to _printf_percent.o(.ARM.Collect$$_printf_percent$$00000000) for _printf_percent
    __printf_flags_wp.o(.text) refers to __printf_wp.o(i._is_digit) for _is_digit
    __printf_flags_wp.o(.text) refers to _printf_percent.o(.ARM.Collect$$_printf_percent$$00000000) for _printf_percent
    __printf_flags_wp.o(.text) refers to __printf_flags_wp.o(.constdata) for .constdata
    __printf_ss_wp.o(.text) refers to __printf_wp.o(i._is_digit) for _is_digit
    __printf_ss_wp.o(.text) refers to _printf_percent.o(.ARM.Collect$$_printf_percent$$00000000) for _printf_percent
    __printf_flags_ss_wp.o(.text) refers to __printf_wp.o(i._is_digit) for _is_digit
    __printf_flags_ss_wp.o(.text) refers to _printf_percent.o(.ARM.Collect$$_printf_percent$$00000000) for _printf_percent
    __printf_flags_ss_wp.o(.text) refers to __printf_flags_ss_wp.o(.constdata) for .constdata
    _printf_s.o(.ARM.Collect$$_printf_percent$$00000014) refers (Weak) to _printf_char.o(.text) for _printf_string
    _printf_f.o(.ARM.Collect$$_printf_percent$$00000003) refers (Weak) to printf1.o(x$fpl$printf1) for _printf_fp_dec
    _printf_percent.o(.ARM.Collect$$_printf_percent$$00000000) refers (Special) to _printf_percent_end.o(.ARM.Collect$$_printf_percent$$00000017) for _printf_percent_end
    strtol.o(.text) refers to rt_ctype_table.o(.text) for __rt_ctype_table
    strtol.o(.text) refers to _strtoul.o(.text) for _strtoul
    strtol.o(.text) refers to rt_errno_addr_intlibspace.o(.text) for __aeabi_errno_addr
    strtoul.o(.text) refers to rt_errno_addr_intlibspace.o(.text) for __aeabi_errno_addr
    strtoul.o(.text) refers to rt_ctype_table.o(.text) for __rt_ctype_table
    strtoul.o(.text) refers to _strtoul.o(.text) for _strtoul
    strtoll.o(.text) refers to __strtoll.o(.text) for __strtoll
    strtoull.o(.text) refers to __strtoull.o(.text) for __strtoull
    wcstol.o(.text) refers to _iswspace.o(.text) for _iswspace
    wcstol.o(.text) refers to _wcstoul.o(.text) for _wcstoul
    wcstol.o(.text) refers to rt_errno_addr_intlibspace.o(.text) for __aeabi_errno_addr
    wcstoul.o(.text) refers to rt_errno_addr_intlibspace.o(.text) for __aeabi_errno_addr
    wcstoul.o(.text) refers to _iswspace.o(.text) for _iswspace
    wcstoul.o(.text) refers to _wcstoul.o(.text) for _wcstoul
    wcstoll.o(.text) refers to __wcstoll.o(.text) for __wcstoll
    wcstoull.o(.text) refers to __wcstoull.o(.text) for __wcstoull
    stdio_streams.o(.bss) refers (Special) to initio.o(.text) for _initio
    stdio_streams.o(.bss) refers (Special) to initio.o(.text) for _initio
    stdio_streams.o(.bss) refers (Special) to initio.o(.text) for _initio
    stdio_streams.o(.data) refers (Special) to initio.o(.text) for _initio
    stdio_streams.o(.data) refers (Special) to initio.o(.text) for _initio
    stdio_streams.o(.data) refers (Special) to initio.o(.text) for _initio
    defsig_abrt_outer.o(.text) refers to defsig_abrt_inner.o(.text) for __rt_SIGABRT_inner
    defsig_abrt_outer.o(.text) refers to defsig_exit.o(.text) for __sig_exit
    defsig_abrt_formal.o(.text) refers to rt_raise.o(.text) for __rt_raise
    wmemcpy.o(.text) refers to memcpy.o(.text) for memcpy
    wmemmove.o(.text) refers to memmove.o(.text) for memmove
    wmemset.o(.text) refers to rt_memclr_w.o(.text) for _memset_w
    rt_memmove_v6.o(.text) refers to rt_memcpy_v6.o(.text) for __aeabi_memcpy
    rt_memmove_v6.o(.text) refers to rt_memmove_w.o(.text) for __memmove_aligned
    aeabi_memset.o(.text) refers to rt_memclr.o(.text) for _memset
    f2d.o(x$fpl$f2d) refers (Special) to usenofp.o(x$fpl$usenofp) for __I$use$fp
    f2d.o(x$fpl$f2d) refers to fnaninf.o(x$fpl$fnaninf) for __fpl_fnaninf
    f2d.o(x$fpl$f2d) refers to dretinf.o(x$fpl$dretinf) for __fpl_dretinf
    printf1.o(x$fpl$printf1) refers to _printf_fp_dec.o(.text) for _printf_fp_dec_real
    charconv.cpp.o(.text._ZNSt3__26__itoa8__u32toaEjPc) refers to charconv.cpp.o(.rodata._ZNSt3__26__itoaL10cDigitsLutE) for std::__2::__itoa::cDigitsLut
    charconv.cpp.o(.ARM.exidx.text._ZNSt3__26__itoa8__u32toaEjPc) refers to charconv.cpp.o(.text._ZNSt3__26__itoa8__u32toaEjPc) for [Anonymous Symbol]
    charconv.cpp.o(.text._ZNSt3__26__itoa8__u64toaEyPc) refers to lludivv7m.o(.text) for __aeabi_uldivmod
    charconv.cpp.o(.text._ZNSt3__26__itoa8__u64toaEyPc) refers to charconv.cpp.o(.rodata._ZNSt3__26__itoaL10cDigitsLutE) for std::__2::__itoa::cDigitsLut
    charconv.cpp.o(.ARM.exidx.text._ZNSt3__26__itoa8__u64toaEyPc) refers to charconv.cpp.o(.text._ZNSt3__26__itoa8__u64toaEyPc) for [Anonymous Symbol]
    cxa_handlers.cpp.o(.text._ZSt14get_unexpectedv) refers to cxa_default_handlers.cpp.o(.data.__cxa_unexpected_handler) for __cxa_unexpected_handler
    cxa_handlers.cpp.o(.ARM.exidx.text._ZSt14get_unexpectedv) refers to cxa_handlers.cpp.o(.text._ZSt14get_unexpectedv) for [Anonymous Symbol]
    cxa_handlers.cpp.o(.text._ZSt12__unexpectedPFvvE) refers to abort_message.cpp.o(.text.abort_message) for abort_message
    cxa_handlers.cpp.o(.ARM.exidx.text._ZSt12__unexpectedPFvvE) refers to cxa_handlers.cpp.o(.text._ZSt12__unexpectedPFvvE) for [Anonymous Symbol]
    cxa_handlers.cpp.o(.text._ZSt10unexpectedv) refers to cxa_default_handlers.cpp.o(.data.__cxa_unexpected_handler) for __cxa_unexpected_handler
    cxa_handlers.cpp.o(.text._ZSt10unexpectedv) refers to cxa_handlers.cpp.o(.text._ZSt12__unexpectedPFvvE) for std::__unexpected(void (*)())
    cxa_handlers.cpp.o(.ARM.exidx.text._ZSt10unexpectedv) refers to cxa_handlers.cpp.o(.text._ZSt10unexpectedv) for [Anonymous Symbol]
    cxa_handlers.cpp.o(.text._ZSt13get_terminatev) refers to cxa_default_handlers.cpp.o(.data.__cxa_terminate_handler) for __cxa_terminate_handler
    cxa_handlers.cpp.o(.ARM.exidx.text._ZSt13get_terminatev) refers to cxa_handlers.cpp.o(.text._ZSt13get_terminatev) for [Anonymous Symbol]
    cxa_handlers.cpp.o(.text._ZSt11__terminatePFvvE) refers to abort_message.cpp.o(.text.abort_message) for abort_message
    cxa_handlers.cpp.o(.ARM.exidx.text._ZSt11__terminatePFvvE) refers to cxa_handlers.cpp.o(.text._ZSt11__terminatePFvvE) for [Anonymous Symbol]
    cxa_handlers.cpp.o(.text._ZSt9terminatev) refers to cxa_default_handlers.cpp.o(.data.__cxa_terminate_handler) for __cxa_terminate_handler
    cxa_handlers.cpp.o(.text._ZSt9terminatev) refers to cxa_handlers.cpp.o(.text._ZSt11__terminatePFvvE) for std::__terminate(void (*)())
    cxa_handlers.cpp.o(.ARM.exidx.text._ZSt9terminatev) refers to cxa_handlers.cpp.o(.text._ZSt9terminatev) for [Anonymous Symbol]
    cxa_handlers.cpp.o(.text._ZSt15set_new_handlerPFvvE) refers to cxa_handlers.cpp.o(.bss.__cxa_new_handler) for __cxa_new_handler
    cxa_handlers.cpp.o(.ARM.exidx.text._ZSt15set_new_handlerPFvvE) refers to cxa_handlers.cpp.o(.text._ZSt15set_new_handlerPFvvE) for [Anonymous Symbol]
    cxa_handlers.cpp.o(.text._ZSt15get_new_handlerv) refers to cxa_handlers.cpp.o(.bss.__cxa_new_handler) for __cxa_new_handler
    cxa_handlers.cpp.o(.ARM.exidx.text._ZSt15get_new_handlerv) refers to cxa_handlers.cpp.o(.text._ZSt15get_new_handlerv) for [Anonymous Symbol]
    strtod.o(i.__softfp_strtod) refers (Special) to usenofp.o(x$fpl$usenofp) for __I$use$fp
    strtod.o(i.__softfp_strtod) refers to strtod.o(.text) for __strtod_int
    strtod.o(i.strtod) refers (Special) to usenofp.o(x$fpl$usenofp) for __I$use$fp
    strtod.o(i.strtod) refers to strtod.o(.text) for __strtod_int
    strtof.o(i.__softfp_strtof) refers (Special) to usenofp.o(x$fpl$usenofp) for __I$use$fp
    strtof.o(i.__softfp_strtof) refers to strtof.o(.text) for __strtof_int
    strtof.o(i.strtof) refers (Special) to usenofp.o(x$fpl$usenofp) for __I$use$fp
    strtof.o(i.strtof) refers to strtof.o(.text) for __strtof_int
    wcstod.o(i.__softfp_wcstod) refers (Special) to usenofp.o(x$fpl$usenofp) for __I$use$fp
    wcstod.o(i.__softfp_wcstod) refers to wcstod.o(.text) for __wcstod_int
    wcstod.o(i.wcstod) refers (Special) to usenofp.o(x$fpl$usenofp) for __I$use$fp
    wcstod.o(i.wcstod) refers to wcstod.o(.text) for __wcstod_int
    wcstof.o(i.__softfp_wcstof) refers (Special) to usenofp.o(x$fpl$usenofp) for __I$use$fp
    wcstof.o(i.__softfp_wcstof) refers to wcstof.o(.text) for __wcstof_int
    wcstof.o(i.wcstof) refers (Special) to usenofp.o(x$fpl$usenofp) for __I$use$fp
    wcstof.o(i.wcstof) refers to wcstof.o(.text) for __wcstof_int
    strtold.o(i.__softfp_strtold) refers (Special) to usenofp.o(x$fpl$usenofp) for __I$use$fp
    strtold.o(i.__softfp_strtold) refers to strtod.o(.text) for __strtod_int
    strtold.o(i.strtold) refers (Special) to usenofp.o(x$fpl$usenofp) for __I$use$fp
    strtold.o(i.strtold) refers to strtod.o(.text) for __strtod_int
    wcstold.o(i.__softfp_wcstold) refers (Special) to usenofp.o(x$fpl$usenofp) for __I$use$fp
    wcstold.o(i.__softfp_wcstold) refers to wcstod.o(.text) for __wcstod_int
    wcstold.o(i.wcstold) refers (Special) to usenofp.o(x$fpl$usenofp) for __I$use$fp
    wcstold.o(i.wcstold) refers to wcstod.o(.text) for __wcstod_int
    libspace.o(.text) refers to libspace.o(.bss) for __libspace_start
    __rtentry2.o(.ARM.Collect$$rtentry$$00000008) refers to boardinit2.o(.text) for _platform_post_stackheap_init
    __rtentry2.o(.ARM.Collect$$rtentry$$0000000A) refers to libinit.o(.ARM.Collect$$libinit$$00000000) for __rt_lib_init
    __rtentry2.o(.ARM.Collect$$rtentry$$0000000B) refers to boardinit3.o(.text) for _platform_post_lib_init
    __rtentry2.o(.ARM.Collect$$rtentry$$0000000D) refers to battleship.o(.text.main) for main
    __rtentry2.o(.ARM.Collect$$rtentry$$0000000D) refers to exit.o(.text) for exit
    __rtentry2.o(.ARM.exidx) refers to __rtentry2.o(.ARM.Collect$$rtentry$$00000001) for .ARM.Collect$$rtentry$$00000001
    __rtentry2.o(.ARM.exidx) refers to __rtentry2.o(.ARM.Collect$$rtentry$$00000008) for .ARM.Collect$$rtentry$$00000008
    __rtentry2.o(.ARM.exidx) refers to __rtentry2.o(.ARM.Collect$$rtentry$$0000000A) for .ARM.Collect$$rtentry$$0000000A
    __rtentry2.o(.ARM.exidx) refers to __rtentry2.o(.ARM.Collect$$rtentry$$0000000B) for .ARM.Collect$$rtentry$$0000000B
    __rtentry2.o(.ARM.exidx) refers to __rtentry2.o(.ARM.Collect$$rtentry$$0000000D) for .ARM.Collect$$rtentry$$0000000D
    __rtentry4.o(.ARM.Collect$$rtentry$$00000004) refers to sys_stackheap_outer.o(.text) for __user_setup_stackheap
    __rtentry4.o(.ARM.exidx) refers to __rtentry4.o(.ARM.Collect$$rtentry$$00000004) for .ARM.Collect$$rtentry$$00000004
    rt_ctype_table.o(.text) refers to rt_locale_intlibspace.o(.text) for __rt_locale
    rt_ctype_table.o(.text) refers to lc_ctype_c.o(locale$$code) for _get_lc_ctype
    rt_raise.o(.text) refers to __raise.o(.text) for __raise
    rt_raise.o(.text) refers to sys_exit.o(.text) for _sys_exit
    rt_heap_descriptor.o(.text) refers to rt_heap_descriptor.o(.bss) for __rt_heap_descriptor_data
    rt_heap_descriptor_intlibspace.o(.text) refers to libspace.o(.bss) for __libspace_start
    init_alloc.o(.text) refers (Special) to hguard.o(.text) for __heap$guard
    init_alloc.o(.text) refers (Special) to libinit2.o(.ARM.Collect$$libinit$$00000005) for __rt_lib_init_heap_2
    init_alloc.o(.text) refers (Special) to maybetermalloc1.o(.text) for _maybe_terminate_alloc
    init_alloc.o(.text) refers to h1_extend.o(.text) for __Heap_ProvideMemory
    init_alloc.o(.text) refers to defsig_rtmem_outer.o(.text) for __rt_SIGRTMEM
    init_alloc.o(.text) refers to rt_heap_descriptor_intlibspace.o(.text) for __rt_heap_descriptor
    init_alloc.o(.text) refers to h1_init.o(.text) for __Heap_Initialize
    h1_init_threads.o(.text) refers to mutex_dummy.o(.text) for _mutex_initialize
    _iswspace.o(.text) refers to wclass_c.o(.text) for _wclass
    _printf_fp_dec.o(.text) refers (Special) to usenofp.o(x$fpl$usenofp) for __I$use$fp
    _printf_fp_dec.o(.text) refers (Special) to lc_numeric_c.o(locale$$code) for _get_lc_numeric
    _printf_fp_dec.o(.text) refers to bigflt0.o(.text) for _btod_etento
    _printf_fp_dec.o(.text) refers to btod.o(CL$$btod_d2e) for _btod_d2e
    _printf_fp_dec.o(.text) refers to btod.o(CL$$btod_ediv) for _btod_ediv
    _printf_fp_dec.o(.text) refers to btod.o(CL$$btod_emul) for _btod_emul
    _printf_fp_dec.o(.text) refers to lludiv10.o(.text) for _ll_udiv10
    _printf_fp_dec.o(.text) refers to fpclassify.o(i.__ARM_fpclassify) for __ARM_fpclassify
    _printf_fp_dec.o(.text) refers to _printf_fp_infnan.o(.text) for _printf_fp_infnan
    _printf_fp_dec.o(.text) refers to rt_locale_intlibspace.o(.text) for __rt_locale
    _printf_fp_dec_accurate.o(.text) refers (Special) to usenofp.o(x$fpl$usenofp) for __I$use$fp
    _printf_fp_dec_accurate.o(.text) refers (Special) to lc_numeric_c.o(locale$$code) for _get_lc_numeric
    _printf_fp_dec_accurate.o(.text) refers to btod_accurate.o(.text) for _btod_main
    _printf_fp_dec_accurate.o(.text) refers to fpclassify.o(i.__ARM_fpclassify) for __ARM_fpclassify
    _printf_fp_dec_accurate.o(.text) refers to _printf_fp_infnan.o(.text) for _printf_fp_infnan
    _printf_fp_dec_accurate.o(.text) refers to rt_locale_intlibspace.o(.text) for __rt_locale
    _printf_char_common.o(.text) refers to __printf_ss.o(.text) for __printf
    _printf_char.o(.text) refers (Weak) to _printf_str.o(.text) for _printf_str
    _printf_char_file.o(.text) refers to _printf_char_common.o(.text) for _printf_char_common
    _printf_char_file.o(.text) refers to ferror.o(.text) for ferror
    _printf_char_file.o(.text) refers to fputc.o(i.fputc) for fputc
    _printf_wchar_common.o(.text) refers to __printf_ss.o(.text) for __printf
    _strtoul.o(.text) refers to _chval.o(.text) for _chval
    _strtoul.o(.text) refers to rt_errno_addr_intlibspace.o(.text) for __aeabi_errno_addr
    strtod.o(.text) refers (Special) to lc_numeric_c.o(locale$$code) for _get_lc_numeric
    strtod.o(.text) refers to scanf1.o(x$fpl$scanf1) for _scanf_real
    strtod.o(.text) refers to _sgetc.o(.text) for _sgetc
    strtod.o(.text) refers to isspace.o(.text) for isspace
    strtof.o(.text) refers to strtod.o(.text) for __strtod_int
    __strtoll.o(.text) refers to rt_ctype_table.o(.text) for __rt_ctype_table
    __strtoll.o(.text) refers to _strtoull.o(.text) for _strtoull
    __strtoll.o(.text) refers to rt_errno_addr_intlibspace.o(.text) for __aeabi_errno_addr
    __strtoull.o(.text) refers to rt_errno_addr_intlibspace.o(.text) for __aeabi_errno_addr
    __strtoull.o(.text) refers to rt_ctype_table.o(.text) for __rt_ctype_table
    __strtoull.o(.text) refers to _strtoull.o(.text) for _strtoull
    _wcstoul.o(.text) refers to _chval.o(.text) for _chval
    _wcstoul.o(.text) refers to rt_errno_addr_intlibspace.o(.text) for __aeabi_errno_addr
    wcstod.o(.text) refers (Special) to lc_numeric_c.o(locale$$code) for _get_lc_numeric
    wcstod.o(.text) refers to scanf1.o(x$fpl$scanf1) for _scanf_real
    wcstod.o(.text) refers to _wsgetc.o(.text) for _wsgetc
    wcstod.o(.text) refers to _iswspace.o(.text) for _iswspace
    wcstof.o(.text) refers to wcstod.o(.text) for __wcstod_int
    __wcstoll.o(.text) refers to _iswspace.o(.text) for _iswspace
    __wcstoll.o(.text) refers to _wcstoull.o(.text) for _wcstoull
    __wcstoll.o(.text) refers to rt_errno_addr_intlibspace.o(.text) for __aeabi_errno_addr
    __wcstoull.o(.text) refers to rt_errno_addr_intlibspace.o(.text) for __aeabi_errno_addr
    __wcstoull.o(.text) refers to _iswspace.o(.text) for _iswspace
    __wcstoull.o(.text) refers to _wcstoull.o(.text) for _wcstoull
    initio.o(.text) refers (Special) to libinit2.o(.ARM.Collect$$libinit$$00000024) for __rt_lib_init_stdio_2
    initio.o(.text) refers (Special) to libshutdown2.o(.ARM.Collect$$libshutdown$$00000003) for __rt_lib_shutdown_stdio_2
    initio.o(.text) refers to rt_memclr_w.o(.text) for __aeabi_memclr4
    initio.o(.text) refers to fopen.o(.text) for freopen
    initio.o(.text) refers to defsig_rtred_outer.o(.text) for __rt_SIGRTRED
    initio.o(.text) refers to setvbuf.o(.text) for setvbuf
    initio.o(.text) refers to fclose.o(.text) for _fclose_internal
    initio.o(.text) refers to h1_free.o(.text) for free
    initio.o(.text) refers to stdio_streams.o(.bss) for __stdin
    initio.o(.text) refers to stdio_streams.o(.bss) for __stdout
    initio.o(.text) refers to stdio_streams.o(.bss) for __stderr
    initio.o(.text) refers to stdio_streams.o(.data) for __aeabi_stdin
    initio.o(.text) refers to stdio_streams.o(.data) for __aeabi_stdout
    initio.o(.text) refers to stdio_streams.o(.data) for __aeabi_stderr
    initio.o(.text) refers to sys_io_names.o(.constdata) for __stdin_name
    initio.o(.text) refers to sys_io_names.o(.constdata) for __stdout_name
    initio.o(.text) refers to sys_io_names.o(.constdata) for __stderr_name
    initio_locked.o(.text) refers (Special) to libinit2.o(.ARM.Collect$$libinit$$00000024) for __rt_lib_init_stdio_2
    initio_locked.o(.text) refers (Special) to libshutdown2.o(.ARM.Collect$$libshutdown$$00000003) for __rt_lib_shutdown_stdio_2
    initio_locked.o(.text) refers to rt_memclr_w.o(.text) for __aeabi_memclr4
    initio_locked.o(.text) refers to fopen.o(.text) for freopen
    initio_locked.o(.text) refers to defsig_rtred_outer.o(.text) for __rt_SIGRTRED
    initio_locked.o(.text) refers to setvbuf.o(.text) for setvbuf
    initio_locked.o(.text) refers to fclose.o(.text) for _fclose_internal
    initio_locked.o(.text) refers to h1_free.o(.text) for free
    initio_locked.o(.text) refers to stdio_streams.o(.bss) for __stdin
    initio_locked.o(.text) refers to stdio_streams.o(.bss) for __stdout
    initio_locked.o(.text) refers to stdio_streams.o(.bss) for __stderr
    initio_locked.o(.text) refers to stdio_streams.o(.data) for __aeabi_stdin
    initio_locked.o(.text) refers to stdio_streams.o(.data) for __aeabi_stdout
    initio_locked.o(.text) refers to stdio_streams.o(.data) for __aeabi_stderr
    initio_locked.o(.text) refers to streamlock.o(.data) for _stream_list_lock
    initio_locked.o(.text) refers to sys_io_names.o(.constdata) for __stdin_name
    initio_locked.o(.text) refers to sys_io_names.o(.constdata) for __stdout_name
    initio_locked.o(.text) refers to sys_io_names.o(.constdata) for __stderr_name
    defsig_exit.o(.text) refers to sys_exit.o(.text) for _sys_exit
    defsig_abrt_inner.o(.text) refers to defsig_general.o(.text) for __default_signal_display
    memcpy.o(.text) refers to rt_memcpy_v6.o(.text) for __aeabi_memcpy
    memmove.o(.text) refers to rt_memmove_v6.o(.text) for __aeabi_memmove
    rt_memmove_w.o(.text) refers to rt_memcpy_w.o(.text) for __aeabi_memcpy4
    rt_memclr.o(.text) refers to rt_memclr_w.o(.text) for _memset_w
    _get_argv.o(.text) refers (Special) to hrguard.o(.text) for __heap_region$guard
    _get_argv.o(.text) refers to h1_alloc.o(.text) for malloc
    _get_argv.o(.text) refers to defsig_rtmem_outer.o(.text) for __rt_SIGRTMEM
    _get_argv.o(.text) refers to sys_command.o(.text) for _sys_command_string
    libinit2.o(.ARM.Collect$$libinit$$00000005) refers (Weak) to init_alloc.o(.text) for _init_alloc
    libinit2.o(.ARM.Collect$$libinit$$0000000F) refers (Weak) to rt_locale_intlibspace.o(.text) for __rt_locale
    libinit2.o(.ARM.Collect$$libinit$$00000010) refers to libinit2.o(.ARM.Collect$$libinit$$0000000F) for .ARM.Collect$$libinit$$0000000F
    libinit2.o(.ARM.Collect$$libinit$$00000012) refers to libinit2.o(.ARM.Collect$$libinit$$0000000F) for .ARM.Collect$$libinit$$0000000F
    libinit2.o(.ARM.Collect$$libinit$$00000012) refers (Weak) to lc_ctype_c.o(locale$$code) for _get_lc_ctype
    libinit2.o(.ARM.Collect$$libinit$$00000014) refers to libinit2.o(.ARM.Collect$$libinit$$0000000F) for .ARM.Collect$$libinit$$0000000F
    libinit2.o(.ARM.Collect$$libinit$$00000016) refers to libinit2.o(.ARM.Collect$$libinit$$0000000F) for .ARM.Collect$$libinit$$0000000F
    libinit2.o(.ARM.Collect$$libinit$$00000016) refers (Weak) to lc_numeric_c.o(locale$$code) for _get_lc_numeric
    libinit2.o(.ARM.Collect$$libinit$$00000018) refers to libinit2.o(.ARM.Collect$$libinit$$0000000F) for .ARM.Collect$$libinit$$0000000F
    libinit2.o(.ARM.Collect$$libinit$$00000024) refers (Weak) to initio.o(.text) for _initio
    libinit2.o(.ARM.Collect$$libinit$$00000026) refers to argv_veneer.o(.emb_text) for __ARM_argv_veneer
    libinit2.o(.ARM.Collect$$libinit$$00000027) refers to argv_veneer.o(.emb_text) for __ARM_argv_veneer
    dretinf.o(x$fpl$dretinf) refers (Special) to usenofp.o(x$fpl$usenofp) for __I$use$fp
    fnaninf.o(x$fpl$fnaninf) refers (Special) to usenofp.o(x$fpl$usenofp) for __I$use$fp
    cxa_default_handlers.cpp.o(.text._ZSt14set_unexpectedPFvvE) refers to cxa_default_handlers.cpp.o(.data.__cxa_unexpected_handler) for __cxa_unexpected_handler
    cxa_default_handlers.cpp.o(.text._ZSt14set_unexpectedPFvvE) refers to cxa_handlers.cpp.o(.text._ZSt9terminatev) for std::terminate()
    cxa_default_handlers.cpp.o(.ARM.exidx.text._ZSt14set_unexpectedPFvvE) refers to cxa_default_handlers.cpp.o(.text._ZSt14set_unexpectedPFvvE) for [Anonymous Symbol]
    cxa_default_handlers.cpp.o(.text._ZSt13set_terminatePFvvE) refers to cxa_default_handlers.cpp.o(.data.__cxa_terminate_handler) for __cxa_terminate_handler
    cxa_default_handlers.cpp.o(.text._ZSt13set_terminatePFvvE) refers to abort.o(.text) for abort
    cxa_default_handlers.cpp.o(.ARM.exidx.text._ZSt13set_terminatePFvvE) refers to cxa_default_handlers.cpp.o(.text._ZSt13set_terminatePFvvE) for [Anonymous Symbol]
    cxa_default_handlers.cpp.o(.data.__cxa_terminate_handler) refers to abort.o(.text) for abort
    cxa_default_handlers.cpp.o(.data.__cxa_unexpected_handler) refers to cxa_handlers.cpp.o(.text._ZSt9terminatev) for std::terminate()
    abort_message.cpp.o(.text.abort_message) refers to abort.o(.text) for abort
    abort_message.cpp.o(.ARM.exidx.text.abort_message) refers to abort_message.cpp.o(.text.abort_message) for [Anonymous Symbol]
    sys_command.o(.text) refers (Special) to use_no_semi.o(.text) for __I$use$semihosting
    sys_command.o(.text) refers (Special) to indicate_semi.o(.text) for __semihosting_library_function
    sys_command_hlt.o(.text) refers (Special) to use_no_semi.o(.text) for __I$use$semihosting
    sys_command_hlt.o(.text) refers (Special) to indicate_semi.o(.text) for __semihosting_library_function
    sys_stackheap_outer.o(.text) refers to libspace.o(.text) for __user_perproc_libspace
    sys_stackheap_outer.o(.text) refers to startup_stm32f10x_md.o(.text) for __user_initial_stackheap
    aeabi_ldiv0_sigfpe.o(.text) refers to rt_div0.o(.text) for __rt_div0
    rt_locale.o(.text) refers to rt_locale.o(.bss) for __rt_locale_data
    rt_locale_intlibspace.o(.text) refers to libspace.o(.bss) for __libspace_start
    maybetermalloc2.o(.text) refers (Special) to term_alloc.o(.text) for _terminate_alloc
    h1_extend.o(.text) refers to h1_free.o(.text) for free
    h1_extend_threads.o(.text) refers to h1_free_threads.o(.text) for free_internal$concurrent
    isspace.o(.text) refers to rt_ctype_table.o(.text) for __rt_ctype_table
    wclass_c.o(.text) refers to rt_ctype_table.o(.text) for __rt_ctype_table
    _strtoull.o(.text) refers to _chval.o(.text) for _chval
    _strtoull.o(.text) refers to rt_errno_addr_intlibspace.o(.text) for __aeabi_errno_addr
    _wcstoull.o(.text) refers to _chval.o(.text) for _chval
    _wcstoull.o(.text) refers to rt_errno_addr_intlibspace.o(.text) for __aeabi_errno_addr
    bigflt0.o(.text) refers (Special) to usenofp.o(x$fpl$usenofp) for __I$use$fp
    bigflt0.o(.text) refers to btod.o(CL$$btod_emul) for _btod_emul
    bigflt0.o(.text) refers to btod.o(CL$$btod_ediv) for _btod_ediv
    bigflt0.o(.text) refers to bigflt0.o(.constdata) for .constdata
    bigflt0.o(.constdata) refers (Special) to usenofp.o(x$fpl$usenofp) for __I$use$fp
    btod.o(CL$$btod_d2e) refers (Special) to usenofp.o(x$fpl$usenofp) for __I$use$fp
    btod.o(CL$$btod_d2e) refers to btod.o(CL$$btod_d2e_norm_op1) for _d2e_norm_op1
    btod.o(CL$$btod_d2e_norm_op1) refers (Special) to usenofp.o(x$fpl$usenofp) for __I$use$fp
    btod.o(CL$$btod_d2e_norm_op1) refers to btod.o(CL$$btod_d2e_denorm_low) for _d2e_denorm_low
    btod.o(CL$$btod_d2e_denorm_low) refers (Special) to usenofp.o(x$fpl$usenofp) for __I$use$fp
    btod.o(CL$$btod_emul) refers (Special) to usenofp.o(x$fpl$usenofp) for __I$use$fp
    btod.o(CL$$btod_emul) refers to btod.o(CL$$btod_mult_common) for __btod_mult_common
    btod.o(CL$$btod_emul) refers to btod.o(CL$$btod_e2e) for _e2e
    btod.o(CL$$btod_ediv) refers (Special) to usenofp.o(x$fpl$usenofp) for __I$use$fp
    btod.o(CL$$btod_ediv) refers to btod.o(CL$$btod_div_common) for __btod_div_common
    btod.o(CL$$btod_ediv) refers to btod.o(CL$$btod_e2e) for _e2e
    btod.o(CL$$btod_emuld) refers (Special) to usenofp.o(x$fpl$usenofp) for __I$use$fp
    btod.o(CL$$btod_emuld) refers to btod.o(CL$$btod_mult_common) for __btod_mult_common
    btod.o(CL$$btod_emuld) refers to btod.o(CL$$btod_e2d) for _e2d
    btod.o(CL$$btod_edivd) refers (Special) to usenofp.o(x$fpl$usenofp) for __I$use$fp
    btod.o(CL$$btod_edivd) refers to btod.o(CL$$btod_div_common) for __btod_div_common
    btod.o(CL$$btod_edivd) refers to btod.o(CL$$btod_e2d) for _e2d
    btod.o(CL$$btod_e2e) refers (Special) to usenofp.o(x$fpl$usenofp) for __I$use$fp
    btod.o(CL$$btod_e2d) refers (Special) to usenofp.o(x$fpl$usenofp) for __I$use$fp
    btod.o(CL$$btod_e2d) refers to btod.o(CL$$btod_e2e) for _e2e
    btod.o(CL$$btod_mult_common) refers (Special) to usenofp.o(x$fpl$usenofp) for __I$use$fp
    btod.o(CL$$btod_div_common) refers (Special) to usenofp.o(x$fpl$usenofp) for __I$use$fp
    btod_accurate.o(.text) refers to btod_accurate_common.o(.text) for _btod_common
    fputc.o(i.fputc) refers to flsbuf.o(.text) for __flsbuf_byte
    streamlock.o(.data) refers (Special) to initio.o(.text) for _initio
    fopen.o(.text) refers to fclose.o(.text) for _fclose_internal
    fopen.o(.text) refers to sys_io.o(.text) for _sys_open
    fopen.o(.text) refers to fseek.o(.text) for _fseek
    fopen.o(.text) refers to h1_alloc.o(.text) for malloc
    fopen.o(.text) refers to rt_memclr_w.o(.text) for __aeabi_memclr4
    fopen.o(.text) refers to stdio_streams.o(.bss) for __stdin
    fclose.o(.text) refers to stdio.o(.text) for _fflush
    fclose.o(.text) refers to sys_io.o(.text) for _sys_close
    fclose.o(.text) refers to h1_free.o(.text) for free
    fclose.o(.text) refers to rt_memclr_w.o(.text) for __aeabi_memclr4
    fopen_locked.o(.text) refers to fclose.o(.text) for _fclose_internal
    fopen_locked.o(.text) refers to sys_io.o(.text) for _sys_open
    fopen_locked.o(.text) refers to fseek.o(.text) for _fseek
    fopen_locked.o(.text) refers to h1_alloc.o(.text) for malloc
    fopen_locked.o(.text) refers to rt_memclr_w.o(.text) for __aeabi_memclr4
    fopen_locked.o(.text) refers to streamlock.o(.data) for _stream_list_lock
    fopen_locked.o(.text) refers to stdio_streams.o(.bss) for __stdin
    lc_ctype_c.o(locale$$data) refers (Special) to libinit2.o(.ARM.Collect$$libinit$$00000012) for __rt_lib_init_lc_ctype_2
    lc_ctype_c.o(locale$$code) refers (Special) to libinit2.o(.ARM.Collect$$libinit$$00000012) for __rt_lib_init_lc_ctype_2
    lc_ctype_c.o(locale$$code) refers to strcmpv7m.o(.text) for strcmp
    lc_ctype_c.o(locale$$code) refers to lc_ctype_c.o(locale$$data) for __lcctype_c_name
    lc_numeric_c.o(locale$$data) refers (Special) to libinit2.o(.ARM.Collect$$libinit$$00000016) for __rt_lib_init_lc_numeric_2
    lc_numeric_c.o(locale$$code) refers (Special) to libinit2.o(.ARM.Collect$$libinit$$00000016) for __rt_lib_init_lc_numeric_2
    lc_numeric_c.o(locale$$code) refers to strcmpv7m.o(.text) for strcmp
    lc_numeric_c.o(locale$$code) refers to lc_numeric_c.o(locale$$data) for __lcnum_c_name
    exit.o(.text) refers to rtexit.o(.ARM.Collect$$rtexit$$00000000) for __rt_exit
    __raise.o(.text) refers to defsig.o(CL$$defsig) for __default_signal_handler
    defsig_general.o(.text) refers to sys_wrch.o(.text) for _ttywrch
    defsig_rtred_outer.o(.text) refers to defsig_rtred_inner.o(.text) for __rt_SIGRTRED_inner
    defsig_rtred_outer.o(.text) refers to defsig_exit.o(.text) for __sig_exit
    defsig_rtred_formal.o(.text) refers to rt_raise.o(.text) for __rt_raise
    defsig_rtmem_outer.o(.text) refers to defsig_rtmem_inner.o(.text) for __rt_SIGRTMEM_inner
    defsig_rtmem_outer.o(.text) refers to defsig_exit.o(.text) for __sig_exit
    defsig_rtmem_formal.o(.text) refers to rt_raise.o(.text) for __rt_raise
    heapauxa.o(.text) refers to heapauxa.o(.data) for .data
    argv_veneer.o(.emb_text) refers to no_argv.o(.text) for __ARM_get_argv
    libinit.o(.ARM.Collect$$libinit$$00000000) refers (Special) to libinit2.o(.ARM.Collect$$libinit$$0000002E) for __rt_lib_init_alloca_1
    libinit.o(.ARM.Collect$$libinit$$00000000) refers (Special) to libinit2.o(.ARM.Collect$$libinit$$0000002C) for __rt_lib_init_argv_1
    libinit.o(.ARM.Collect$$libinit$$00000000) refers (Special) to libinit2.o(.ARM.Collect$$libinit$$0000001B) for __rt_lib_init_atexit_1
    libinit.o(.ARM.Collect$$libinit$$00000000) refers (Special) to libinit2.o(.ARM.Collect$$libinit$$00000021) for __rt_lib_init_clock_1
    libinit.o(.ARM.Collect$$libinit$$00000000) refers (Special) to libinit2.o(.ARM.Collect$$libinit$$00000032) for __rt_lib_init_cpp_1
    libinit.o(.ARM.Collect$$libinit$$00000000) refers (Special) to libinit2.o(.ARM.Collect$$libinit$$00000030) for __rt_lib_init_exceptions_1
    libinit.o(.ARM.Collect$$libinit$$00000000) refers (Special) to libinit2.o(.ARM.Collect$$libinit$$00000002) for __rt_lib_init_fp_1
    libinit.o(.ARM.Collect$$libinit$$00000000) refers (Special) to libinit2.o(.ARM.Collect$$libinit$$0000001F) for __rt_lib_init_fp_trap_1
    libinit.o(.ARM.Collect$$libinit$$00000000) refers (Special) to libinit2.o(.ARM.Collect$$libinit$$00000023) for __rt_lib_init_getenv_1
    libinit.o(.ARM.Collect$$libinit$$00000000) refers (Special) to libinit2.o(.ARM.Collect$$libinit$$0000000A) for __rt_lib_init_heap_1
    libinit.o(.ARM.Collect$$libinit$$00000000) refers (Special) to libinit2.o(.ARM.Collect$$libinit$$00000011) for __rt_lib_init_lc_collate_1
    libinit.o(.ARM.Collect$$libinit$$00000000) refers (Special) to libinit2.o(.ARM.Collect$$libinit$$00000013) for __rt_lib_init_lc_ctype_1
    libinit.o(.ARM.Collect$$libinit$$00000000) refers (Special) to libinit2.o(.ARM.Collect$$libinit$$00000015) for __rt_lib_init_lc_monetary_1
    libinit.o(.ARM.Collect$$libinit$$00000000) refers (Special) to libinit2.o(.ARM.Collect$$libinit$$00000017) for __rt_lib_init_lc_numeric_1
    libinit.o(.ARM.Collect$$libinit$$00000000) refers (Special) to libinit2.o(.ARM.Collect$$libinit$$00000019) for __rt_lib_init_lc_time_1
    libinit.o(.ARM.Collect$$libinit$$00000000) refers (Special) to libinit2.o(.ARM.Collect$$libinit$$00000004) for __rt_lib_init_preinit_1
    libinit.o(.ARM.Collect$$libinit$$00000000) refers (Special) to libinit2.o(.ARM.Collect$$libinit$$0000000E) for __rt_lib_init_rand_1
    libinit.o(.ARM.Collect$$libinit$$00000000) refers (Special) to libinit2.o(.ARM.Collect$$libinit$$00000033) for __rt_lib_init_return
    libinit.o(.ARM.Collect$$libinit$$00000000) refers (Special) to libinit2.o(.ARM.Collect$$libinit$$0000001D) for __rt_lib_init_signal_1
    libinit.o(.ARM.Collect$$libinit$$00000000) refers (Special) to libinit2.o(.ARM.Collect$$libinit$$00000025) for __rt_lib_init_stdio_1
    libinit.o(.ARM.Collect$$libinit$$00000000) refers (Special) to libinit2.o(.ARM.Collect$$libinit$$0000000C) for __rt_lib_init_user_alloc_1
    libshutdown2.o(.ARM.Collect$$libshutdown$$00000003) refers (Weak) to initio.o(.text) for _terminateio
    libshutdown2.o(.ARM.Collect$$libshutdown$$0000000D) refers (Weak) to term_alloc.o(.text) for _terminate_alloc
    istatus.o(x$fpl$ieeestatus) refers (Special) to usenofp.o(x$fpl$usenofp) for __I$use$fp
    scanf1.o(x$fpl$scanf1) refers to scanf_fp.o(.text) for _scanf_really_real
    fpclassify.o(i.__ARM_fpclassify) refers (Special) to usenofp.o(x$fpl$usenofp) for __I$use$fp
    sys_io.o(.text) refers (Special) to use_no_semi.o(.text) for __I$use$semihosting
    sys_io.o(.text) refers (Special) to indicate_semi.o(.text) for __semihosting_library_function
    sys_io.o(.text) refers to strlen.o(.text) for strlen
    sys_wrch.o(.text) refers (Special) to use_no_semi.o(.text) for __I$use$semihosting
    sys_wrch.o(.text) refers (Special) to indicate_semi.o(.text) for __semihosting_library_function
    sys_io_hlt.o(.text) refers (Special) to use_no_semi.o(.text) for __I$use$semihosting
    sys_io_hlt.o(.text) refers (Special) to indicate_semi.o(.text) for __semihosting_library_function
    sys_io_hlt.o(.text) refers to strlen.o(.text) for strlen
    sys_wrch_hlt.o(.text) refers (Special) to use_no_semi.o(.text) for __I$use$semihosting
    sys_wrch_hlt.o(.text) refers (Special) to indicate_semi.o(.text) for __semihosting_library_function
    rtexit.o(.ARM.Collect$$rtexit$$00000000) refers (Special) to rtexit2.o(.ARM.Collect$$rtexit$$00000004) for __rt_exit_exit
    rtexit.o(.ARM.Collect$$rtexit$$00000000) refers (Special) to rtexit2.o(.ARM.Collect$$rtexit$$00000003) for __rt_exit_ls
    rtexit.o(.ARM.Collect$$rtexit$$00000000) refers (Special) to rtexit2.o(.ARM.Collect$$rtexit$$00000002) for __rt_exit_prels_1
    rtexit.o(.ARM.exidx) refers (Special) to rtexit2.o(.ARM.Collect$$rtexit$$00000004) for __rt_exit_exit
    rtexit.o(.ARM.exidx) refers (Special) to rtexit2.o(.ARM.Collect$$rtexit$$00000003) for __rt_exit_ls
    rtexit.o(.ARM.exidx) refers (Special) to rtexit2.o(.ARM.Collect$$rtexit$$00000002) for __rt_exit_prels_1
    rtexit.o(.ARM.exidx) refers to rtexit.o(.ARM.Collect$$rtexit$$00000000) for .ARM.Collect$$rtexit$$00000000
    rt_div0.o(.text) refers to defsig_fpe_outer.o(.text) for __rt_SIGFPE
    term_alloc.o(.text) refers (Special) to libshutdown2.o(.ARM.Collect$$libshutdown$$0000000E) for __rt_lib_shutdown_heap_2
    term_alloc.o(.text) refers to rt_heap_descriptor_intlibspace.o(.text) for __rt_heap_descriptor
    term_alloc.o(.text) refers to h1_final.o(.text) for __Heap_Finalize
    scanf_fp.o(.text) refers (Special) to usenofp.o(x$fpl$usenofp) for __I$use$fp
    scanf_fp.o(.text) refers (Special) to lc_numeric_c.o(locale$$code) for _get_lc_numeric
    scanf_fp.o(.text) refers to rt_errno_addr_intlibspace.o(.text) for __aeabi_errno_addr
    scanf_fp.o(.text) refers to istatus.o(x$fpl$ieeestatus) for __ieee_status
    scanf_fp.o(.text) refers to bigflt0.o(.text) for _btod_etento
    scanf_fp.o(.text) refers to btod.o(CL$$btod_emuld) for _btod_emuld
    scanf_fp.o(.text) refers to btod.o(CL$$btod_edivd) for _btod_edivd
    scanf_fp.o(.text) refers to rt_locale_intlibspace.o(.text) for __rt_locale
    scanf_fp.o(.text) refers to scanf2.o(x$fpl$scanf2) for _scanf_infnan
    scanf_fp.o(.text) refers to __printf_wp.o(i._is_digit) for _is_digit
    scanf_fp.o(.text) refers to fpconst.o(c$$dmax) for __dbl_max
    scanf_fp.o(.text) refers to fpconst.o(c$$dinf) for __huge_val
    scanf_fp.o(.text) refers to narrow.o(i.__mathlib_narrow) for __mathlib_narrow
    scanf_fp_accurate.o(.text) refers (Special) to usenofp.o(x$fpl$usenofp) for __I$use$fp
    scanf_fp_accurate.o(.text) refers (Special) to lc_numeric_c.o(locale$$code) for _get_lc_numeric
    scanf_fp_accurate.o(.text) refers to strlen.o(.text) for strlen
    scanf_fp_accurate.o(.text) refers to dtob_accurate.o(.text) for _dtob
    scanf_fp_accurate.o(.text) refers to rt_errno_addr_intlibspace.o(.text) for __aeabi_errno_addr
    scanf_fp_accurate.o(.text) refers to llshl.o(.text) for __aeabi_llsl
    scanf_fp_accurate.o(.text) refers to rt_locale_intlibspace.o(.text) for __rt_locale
    scanf_fp_accurate.o(.text) refers to scanf2.o(x$fpl$scanf2) for _scanf_infnan
    scanf_fp_accurate.o(.text) refers to __printf_wp.o(i._is_digit) for _is_digit
    scanf_fp_accurate.o(.text) refers to narrow.o(i.__mathlib_narrow) for __mathlib_narrow
    btod_accurate_common.o(.text) refers to llushr.o(.text) for __aeabi_llsr
    flsbuf.o(.text) refers to stdio.o(.text) for _deferredlazyseek
    flsbuf.o(.text) refers to sys_io.o(.text) for _sys_flen
    flsbuf.o(.text) refers to h1_alloc.o(.text) for malloc
    fseek.o(.text) refers to sys_io.o(.text) for _sys_istty
    fseek.o(.text) refers to ftell.o(.text) for _ftell_internal
    fseek.o(.text) refers to stdio.o(.text) for _seterr
    stdio.o(.text) refers to sys_io.o(.text) for _sys_seek
    defsig_rtred_inner.o(.text) refers to defsig_general.o(.text) for __default_signal_display
    defsig_rtmem_inner.o(.text) refers to defsig_general.o(.text) for __default_signal_display
    defsig.o(CL$$defsig) refers to defsig_abrt_inner.o(.text) for __rt_SIGABRT_inner
    defsig.o(CL$$defsig) refers to defsig_fpe_inner.o(.text) for __rt_SIGFPE_inner
    defsig.o(CL$$defsig) refers to defsig_rtred_inner.o(.text) for __rt_SIGRTRED_inner
    defsig.o(CL$$defsig) refers to defsig_rtmem_inner.o(.text) for __rt_SIGRTMEM_inner
    _get_argv_nomalloc.o(.text) refers (Special) to hrguard.o(.text) for __heap_region$guard
    _get_argv_nomalloc.o(.text) refers to defsig_rtmem_outer.o(.text) for __rt_SIGRTMEM
    _get_argv_nomalloc.o(.text) refers to sys_command.o(.text) for _sys_command_string
    flsbuf_fwide.o(.text) refers to flsbuf.o(.text) for __flsbuf
    rtexit2.o(.ARM.Collect$$rtexit$$00000003) refers to libshutdown.o(.ARM.Collect$$libshutdown$$00000000) for __rt_lib_shutdown
    rtexit2.o(.ARM.Collect$$rtexit$$00000004) refers to sys_exit.o(.text) for _sys_exit
    rtexit2.o(.ARM.exidx) refers to rtexit2.o(.ARM.Collect$$rtexit$$00000001) for .ARM.Collect$$rtexit$$00000001
    rtexit2.o(.ARM.exidx) refers to rtexit2.o(.ARM.Collect$$rtexit$$00000003) for .ARM.Collect$$rtexit$$00000003
    rtexit2.o(.ARM.exidx) refers to rtexit2.o(.ARM.Collect$$rtexit$$00000004) for .ARM.Collect$$rtexit$$00000004
    _printf_char_file_locked.o(.text) refers to _printf_char_common.o(.text) for _printf_char_common
    _printf_char_file_locked.o(.text) refers to fputc.o(i._fputc$unlocked) for _fputc$unlocked
    dtob_accurate.o(.text) refers to llshl.o(.text) for __aeabi_llsl
    dtob_accurate.o(.text) refers to btod_accurate_common.o(.text) for _btod_pow
    dtob_accurate.o(.text) refers to dtob_accurate.o(.constdata) for .constdata
    ftell.o(.text) refers to rt_errno_addr_intlibspace.o(.text) for __aeabi_errno_addr
    fwritefast.o(.text) refers to stdio.o(.text) for _writebuf
    fwritefast.o(.text) refers to flsbuf.o(.text) for __flsbuf_byte
    fwritefast.o(.text) refers to rt_memcpy_v6.o(.text) for __aeabi_memcpy
    fwritefast_locked.o(.text) refers to stdio.o(.text) for _writebuf
    fwritefast_locked.o(.text) refers to flsbuf.o(.text) for __flsbuf_byte
    fwritefast_locked.o(.text) refers to rt_memcpy_v6.o(.text) for __aeabi_memcpy
    defsig_fpe_inner.o(.text) refers to defsig_general.o(.text) for __default_signal_display
    defsig_fpe_outer.o(.text) refers to defsig_fpe_inner.o(.text) for __rt_SIGFPE_inner
    defsig_fpe_outer.o(.text) refers to defsig_exit.o(.text) for __sig_exit
    defsig_fpe_formal.o(.text) refers to rt_raise.o(.text) for __rt_raise
    defsig_stak_inner.o(.text) refers to defsig_general.o(.text) for __default_signal_display
    defsig_pvfn_inner.o(.text) refers to defsig_general.o(.text) for __default_signal_display
    defsig_cppl_inner.o(.text) refers to defsig_general.o(.text) for __default_signal_display
    defsig_segv_inner.o(.text) refers to defsig_general.o(.text) for __default_signal_display
    defsig_other.o(.text) refers to defsig_general.o(.text) for __default_signal_display
    assert_stdio.o(.text) refers to fputs.o(.text) for fputs
    assert_stdio.o(.text) refers to fflush.o(.text) for fflush
    assert_stdio.o(.text) refers to stdio_streams.o(.bss) for __stderr
    fpconst.o(c$$dinf) refers (Special) to usenofp.o(x$fpl$usenofp) for __I$use$fp
    fpconst.o(c$$dnan) refers (Special) to usenofp.o(x$fpl$usenofp) for __I$use$fp
    fpconst.o(c$$finf) refers (Special) to usenofp.o(x$fpl$usenofp) for __I$use$fp
    fpconst.o(c$$dmax) refers (Special) to usenofp.o(x$fpl$usenofp) for __I$use$fp
    scanf2.o(x$fpl$scanf2) refers to scanf_hexfp.o(.text) for _scanf_really_hex_real
    scanf2.o(x$fpl$scanf2) refers to scanf_infnan.o(.text) for _scanf_really_infnan
    scanf2b.o(x$fpl$scanf2) refers to scanf_hexfp.o(.text) for _scanf_really_hex_real
    scanf2b.o(x$fpl$scanf2) refers to scanf_infnan.o(.text) for _scanf_really_infnan
    narrow.o(i.__mathlib_narrow) refers (Special) to usenofp.o(x$fpl$usenofp) for __I$use$fp
    narrow.o(i.__mathlib_narrow) refers to narrow.o(i.__mathlib_tofloat) for __mathlib_tofloat
    narrow.o(i.__mathlib_tofloat) refers (Special) to usenofp.o(x$fpl$usenofp) for __I$use$fp
    narrow.o(i.__mathlib_tofloat) refers to frexp.o(i.frexp) for frexp
    narrow.o(i.__mathlib_tofloat) refers to deqf.o(x$fpl$deqf) for __aeabi_cdcmpeq
    narrow.o(i.__mathlib_tofloat) refers to d2f.o(x$fpl$d2f) for __aeabi_d2f
    narrow.o(i.__mathlib_tofloat) refers to _rserrno.o(.text) for __set_errno
    narrow.o(i.__mathlib_tofloat) refers to drleqf.o(x$fpl$drleqf) for __aeabi_cdrcmple
    narrow.o(i.__softfp___mathlib_tofloat) refers (Special) to usenofp.o(x$fpl$usenofp) for __I$use$fp
    narrow.o(i.__softfp___mathlib_tofloat) refers to narrow.o(i.__mathlib_tofloat) for __mathlib_tofloat
    _rserrno.o(.text) refers to rt_errno_addr_intlibspace.o(.text) for __aeabi_errno_addr
    scanf_hexfp.o(.text) refers to _chval.o(.text) for _chval
    scanf_hexfp.o(.text) refers to llshl.o(.text) for __aeabi_llsl
    scanf_hexfp.o(.text) refers to ldexp.o(i.__support_ldexp) for __support_ldexp
    scanf_hexfp.o(.text) refers to narrow.o(i.__mathlib_narrow) for __mathlib_narrow
    fflush.o(.text) refers to stdio.o(.text) for _fflush
    fflush.o(.text) refers to fseek.o(.text) for _fseek
    fflush.o(.text) refers to stdio_streams.o(.bss) for __stdin
    fputs.o(.text) refers to fputc.o(i.fputc) for fputc
    fflush_locked.o(.text) refers to stdio.o(.text) for _fflush
    fflush_locked.o(.text) refers to fseek.o(.text) for _fseek
    fflush_locked.o(.text) refers to fflush.o(.text) for _do_fflush
    fflush_locked.o(.text) refers to streamlock.o(.data) for _stream_list_lock
    fflush_locked.o(.text) refers to stdio_streams.o(.bss) for __stdin
    libshutdown.o(.ARM.Collect$$libshutdown$$00000000) refers (Special) to libshutdown2.o(.ARM.Collect$$libshutdown$$00000002) for __rt_lib_shutdown_cpp_1
    libshutdown.o(.ARM.Collect$$libshutdown$$00000000) refers (Special) to libshutdown2.o(.ARM.Collect$$libshutdown$$00000007) for __rt_lib_shutdown_fp_trap_1
    libshutdown.o(.ARM.Collect$$libshutdown$$00000000) refers (Special) to libshutdown2.o(.ARM.Collect$$libshutdown$$0000000F) for __rt_lib_shutdown_heap_1
    libshutdown.o(.ARM.Collect$$libshutdown$$00000000) refers (Special) to libshutdown2.o(.ARM.Collect$$libshutdown$$00000010) for __rt_lib_shutdown_return
    libshutdown.o(.ARM.Collect$$libshutdown$$00000000) refers (Special) to libshutdown2.o(.ARM.Collect$$libshutdown$$0000000A) for __rt_lib_shutdown_signal_1
    libshutdown.o(.ARM.Collect$$libshutdown$$00000000) refers (Special) to libshutdown2.o(.ARM.Collect$$libshutdown$$00000004) for __rt_lib_shutdown_stdio_1
    libshutdown.o(.ARM.Collect$$libshutdown$$00000000) refers (Special) to libshutdown2.o(.ARM.Collect$$libshutdown$$0000000C) for __rt_lib_shutdown_user_alloc_1
    d2f.o(x$fpl$d2f) refers (Special) to usenofp.o(x$fpl$usenofp) for __I$use$fp
    d2f.o(x$fpl$d2f) refers to fretinf.o(x$fpl$fretinf) for __fpl_fretinf
    d2f.o(x$fpl$d2f) refers to dnaninf.o(x$fpl$dnaninf) for __fpl_dnaninf
    deqf.o(x$fpl$deqf) refers (Special) to usenofp.o(x$fpl$usenofp) for __I$use$fp
    deqf.o(x$fpl$deqf) refers to dnaninf.o(x$fpl$dnaninf) for __fpl_dnaninf
    deqf.o(x$fpl$deqf) refers to dcmpi.o(x$fpl$dcmpinf) for __fpl_dcmp_Inf
    drleqf.o(x$fpl$drleqf) refers (Special) to usenofp.o(x$fpl$usenofp) for __I$use$fp
    drleqf.o(x$fpl$drleqf) refers to dleqf.o(x$fpl$dleqf) for __fpl_dcmple_InfNaN
    frexp.o(i.__softfp_frexp) refers (Special) to usenofp.o(x$fpl$usenofp) for __I$use$fp
    frexp.o(i.__softfp_frexp) refers to scalbn.o(x$fpl$scalbn) for __ARM_scalbn
    frexp.o(i.frexp) refers (Special) to usenofp.o(x$fpl$usenofp) for __I$use$fp
    frexp.o(i.frexp) refers to scalbn.o(x$fpl$scalbn) for __ARM_scalbn
    dcmpi.o(x$fpl$dcmpinf) refers (Special) to usenofp.o(x$fpl$usenofp) for __I$use$fp
    dleqf.o(x$fpl$dleqf) refers (Special) to usenofp.o(x$fpl$usenofp) for __I$use$fp
    dleqf.o(x$fpl$dleqf) refers to dnaninf.o(x$fpl$dnaninf) for __fpl_dnaninf
    dleqf.o(x$fpl$dleqf) refers to dcmpi.o(x$fpl$dcmpinf) for __fpl_dcmp_Inf
    dnaninf.o(x$fpl$dnaninf) refers (Special) to usenofp.o(x$fpl$usenofp) for __I$use$fp
    fretinf.o(x$fpl$fretinf) refers (Special) to usenofp.o(x$fpl$usenofp) for __I$use$fp
    scalbn.o(x$fpl$scalbn) refers (Special) to usenofp.o(x$fpl$usenofp) for __I$use$fp
    scalbn.o(x$fpl$scalbn) refers to dcheck1.o(x$fpl$dcheck1) for __fpl_dcheck_NaN1
    ldexp.o(i.__softfp_ldexp) refers (Special) to usenofp.o(x$fpl$usenofp) for __I$use$fp
    ldexp.o(i.__softfp_ldexp) refers to ldexp.o(i.ldexp) for ldexp
    ldexp.o(i.__support_ldexp) refers (Special) to usenofp.o(x$fpl$usenofp) for __I$use$fp
    ldexp.o(i.__support_ldexp) refers to ldexp.o(i.ldexp) for ldexp
    ldexp.o(i.ldexp) refers (Special) to usenofp.o(x$fpl$usenofp) for __I$use$fp
    ldexp.o(i.ldexp) refers to deqf.o(x$fpl$deqf) for __aeabi_cdcmpeq
    ldexp.o(i.ldexp) refers to scalbn.o(x$fpl$scalbn) for __ARM_scalbn
    ldexp.o(i.ldexp) refers to _rserrno.o(.text) for __set_errno
    ldexp.o(i.ldexp) refers to dunder.o(i.__mathlib_dbl_underflow) for __mathlib_dbl_underflow
    ldexp.o(i.ldexp) refers to dunder.o(i.__mathlib_dbl_overflow) for __mathlib_dbl_overflow
    dcheck1.o(x$fpl$dcheck1) refers (Special) to usenofp.o(x$fpl$usenofp) for __I$use$fp
    dcheck1.o(x$fpl$dcheck1) refers to retnan.o(x$fpl$retnan) for __fpl_return_NaN
    dunder.o(i.__mathlib_dbl_divzero) refers to ddiv.o(x$fpl$ddiv) for __aeabi_ddiv
    dunder.o(i.__mathlib_dbl_infnan) refers to scalbn.o(x$fpl$scalbn) for __ARM_scalbn
    dunder.o(i.__mathlib_dbl_infnan2) refers to daddsub_clz.o(x$fpl$dadd) for __aeabi_dadd
    dunder.o(i.__mathlib_dbl_invalid) refers to ddiv.o(x$fpl$ddiv) for __aeabi_ddiv
    dunder.o(i.__mathlib_dbl_overflow) refers to scalbn.o(x$fpl$scalbn) for __ARM_scalbn
    dunder.o(i.__mathlib_dbl_posinfnan) refers to dmul.o(x$fpl$dmul) for __aeabi_dmul
    dunder.o(i.__mathlib_dbl_underflow) refers to scalbn.o(x$fpl$scalbn) for __ARM_scalbn
    daddsub_clz.o(x$fpl$dadd) refers (Special) to usenofp.o(x$fpl$usenofp) for __I$use$fp
    daddsub_clz.o(x$fpl$dadd) refers to daddsub_clz.o(x$fpl$dsub) for _dsub1
    daddsub_clz.o(x$fpl$dadd) refers to dretinf.o(x$fpl$dretinf) for __fpl_dretinf
    daddsub_clz.o(x$fpl$dadd) refers to dnaninf.o(x$fpl$dnaninf) for __fpl_dnaninf
    daddsub_clz.o(x$fpl$drsb) refers (Special) to usenofp.o(x$fpl$usenofp) for __I$use$fp
    daddsub_clz.o(x$fpl$drsb) refers to daddsub_clz.o(x$fpl$dadd) for _dadd1
    daddsub_clz.o(x$fpl$drsb) refers to daddsub_clz.o(x$fpl$dsub) for _dsub1
    daddsub_clz.o(x$fpl$dsub) refers (Special) to usenofp.o(x$fpl$usenofp) for __I$use$fp
    daddsub_clz.o(x$fpl$dsub) refers to daddsub_clz.o(x$fpl$dadd) for _dadd1
    daddsub_clz.o(x$fpl$dsub) refers to dnaninf.o(x$fpl$dnaninf) for __fpl_dnaninf
    ddiv.o(x$fpl$drdiv) refers (Special) to usenofp.o(x$fpl$usenofp) for __I$use$fp
    ddiv.o(x$fpl$drdiv) refers to ddiv.o(x$fpl$ddiv) for ddiv_entry
    ddiv.o(x$fpl$ddiv) refers (Special) to usenofp.o(x$fpl$usenofp) for __I$use$fp
    ddiv.o(x$fpl$ddiv) refers to dretinf.o(x$fpl$dretinf) for __fpl_dretinf
    ddiv.o(x$fpl$ddiv) refers to dnaninf.o(x$fpl$dnaninf) for __fpl_dnaninf
    dmul.o(x$fpl$dmul) refers (Special) to usenofp.o(x$fpl$usenofp) for __I$use$fp
    dmul.o(x$fpl$dmul) refers to dretinf.o(x$fpl$dretinf) for __fpl_dretinf
    dmul.o(x$fpl$dmul) refers to dnaninf.o(x$fpl$dnaninf) for __fpl_dnaninf
    retnan.o(x$fpl$retnan) refers (Special) to usenofp.o(x$fpl$usenofp) for __I$use$fp
    retnan.o(x$fpl$retnan) refers to trapv.o(x$fpl$trapveneer) for __fpl_cmpreturn
    trapv.o(x$fpl$trapveneer) refers (Special) to usenofp.o(x$fpl$usenofp) for __I$use$fp
    battleship.o(.text._ZNSt3__213__vector_baseINS_12basic_stringIcNS_11char_traitsIcEENS_9allocatorIcEEEENS4_IS6_EEED2Ev) refers to string.cpp.o(.text._ZNSt3__212basic_stringIcNS_11char_traitsIcEENS_9allocatorIcEEED2Ev) for std::__2::basic_string<char, std::__2::char_traits<char>, std::__2::allocator<char> >::~basic_string__sub_object()
    battleship.o(.text._ZNSt3__213__vector_baseINS_12basic_stringIcNS_11char_traitsIcEENS_9allocatorIcEEEENS4_IS6_EEED2Ev) refers to new.cpp.o(.text._ZdlPv) for operator delete(void*)
    battleship.o(.ARM.exidx.text._ZNSt3__213__vector_baseINS_12basic_stringIcNS_11char_traitsIcEENS_9allocatorIcEEEENS4_IS6_EEED2Ev) refers to battleship.o(.text._ZNSt3__213__vector_baseINS_12basic_stringIcNS_11char_traitsIcEENS_9allocatorIcEEEENS4_IS6_EEED2Ev) for [Anonymous Symbol]
    battleship.o(.ARM.exidx.text._ZNSt3__26vectorINS_12basic_stringIcNS_11char_traitsIcEENS_9allocatorIcEEEENS4_IS6_EEE21_ConstructTransactionC2ERS8_j) refers to battleship.o(.text._ZNSt3__26vectorINS_12basic_stringIcNS_11char_traitsIcEENS_9allocatorIcEEEENS4_IS6_EEE21_ConstructTransactionC2ERS8_j) for [Anonymous Symbol]
    battleship.o(.ARM.exidx.text._ZNSt3__26vectorINS_12basic_stringIcNS_11char_traitsIcEENS_9allocatorIcEEEENS4_IS6_EEE21_ConstructTransactionD2Ev) refers to battleship.o(.text._ZNSt3__26vectorINS_12basic_stringIcNS_11char_traitsIcEENS_9allocatorIcEEEENS4_IS6_EEE21_ConstructTransactionD2Ev) for [Anonymous Symbol]
    battleship.o(.text._ZNSt3__214__split_bufferINS_12basic_stringIcNS_11char_traitsIcEENS_9allocatorIcEEEERNS4_IS6_EEEC2EjjS8_) refers to new.cpp.o(.text._Znwj) for operator new(unsigned int)
    battleship.o(.text._ZNSt3__214__split_bufferINS_12basic_stringIcNS_11char_traitsIcEENS_9allocatorIcEEEERNS4_IS6_EEEC2EjjS8_) refers to abort.o(.text) for abort
    battleship.o(.ARM.exidx.text._ZNSt3__214__split_bufferINS_12basic_stringIcNS_11char_traitsIcEENS_9allocatorIcEEEERNS4_IS6_EEEC2EjjS8_) refers to battleship.o(.text._ZNSt3__214__split_bufferINS_12basic_stringIcNS_11char_traitsIcEENS_9allocatorIcEEEERNS4_IS6_EEEC2EjjS8_) for [Anonymous Symbol]
    battleship.o(.ARM.exidx.text._ZNSt3__26vectorINS_12basic_stringIcNS_11char_traitsIcEENS_9allocatorIcEEEENS4_IS6_EEE26__swap_out_circular_bufferERNS_14__split_bufferIS6_RS7_EE) refers to battleship.o(.text._ZNSt3__26vectorINS_12basic_stringIcNS_11char_traitsIcEENS_9allocatorIcEEEENS4_IS6_EEE26__swap_out_circular_bufferERNS_14__split_bufferIS6_RS7_EE) for [Anonymous Symbol]
    battleship.o(.text._ZNSt3__214__split_bufferINS_12basic_stringIcNS_11char_traitsIcEENS_9allocatorIcEEEERNS4_IS6_EEED2Ev) refers to string.cpp.o(.text._ZNSt3__212basic_stringIcNS_11char_traitsIcEENS_9allocatorIcEEED2Ev) for std::__2::basic_string<char, std::__2::char_traits<char>, std::__2::allocator<char> >::~basic_string__sub_object()
    battleship.o(.text._ZNSt3__214__split_bufferINS_12basic_stringIcNS_11char_traitsIcEENS_9allocatorIcEEEERNS4_IS6_EEED2Ev) refers to new.cpp.o(.text._ZdlPv) for operator delete(void*)
    battleship.o(.ARM.exidx.text._ZNSt3__214__split_bufferINS_12basic_stringIcNS_11char_traitsIcEENS_9allocatorIcEEEERNS4_IS6_EEED2Ev) refers to battleship.o(.text._ZNSt3__214__split_bufferINS_12basic_stringIcNS_11char_traitsIcEENS_9allocatorIcEEEERNS4_IS6_EEED2Ev) for [Anonymous Symbol]
    battleship.o(.ARM.exidx.text._ZNKSt3__26vectorINS_12basic_stringIcNS_11char_traitsIcEENS_9allocatorIcEEEENS4_IS6_EEE8max_sizeEv) refers to battleship.o(.text._ZNKSt3__26vectorINS_12basic_stringIcNS_11char_traitsIcEENS_9allocatorIcEEEENS4_IS6_EEE8max_sizeEv) for [Anonymous Symbol]
    battleship.o(.text._ZNSt3__211char_traitsIcE6lengthEPKc) refers to strlen.o(.text) for strlen
    battleship.o(.ARM.exidx.text._ZNSt3__211char_traitsIcE6lengthEPKc) refers to battleship.o(.text._ZNSt3__211char_traitsIcE6lengthEPKc) for [Anonymous Symbol]
    battleship.o(.text._ZNSt3__211char_traitsIcE4copyEPcPKcj) refers to rt_memcpy_v6.o(.text) for __aeabi_memcpy
    battleship.o(.ARM.exidx.text._ZNSt3__211char_traitsIcE4copyEPcPKcj) refers to battleship.o(.text._ZNSt3__211char_traitsIcE4copyEPcPKcj) for [Anonymous Symbol]
    battleship.o(.ARM.exidx.text._ZNSt3__211char_traitsIcE6assignERcRKc) refers to battleship.o(.text._ZNSt3__211char_traitsIcE6assignERcRKc) for [Anonymous Symbol]
    string.cpp.o(.text._ZNKSt3__221__basic_string_commonILb1EE20__throw_length_errorEv) refers (Special) to _printf_f.o(.ARM.Collect$$_printf_percent$$00000003) for _printf_f
    string.cpp.o(.text._ZNKSt3__221__basic_string_commonILb1EE20__throw_length_errorEv) refers (Special) to printf1.o(x$fpl$printf1) for _printf_fp_dec
    string.cpp.o(.text._ZNKSt3__221__basic_string_commonILb1EE20__throw_length_errorEv) refers (Special) to _printf_percent.o(.ARM.Collect$$_printf_percent$$00000000) for _printf_percent
    string.cpp.o(.text._ZNKSt3__221__basic_string_commonILb1EE20__throw_length_errorEv) refers (Special) to _printf_s.o(.ARM.Collect$$_printf_percent$$00000014) for _printf_s
    string.cpp.o(.text._ZNKSt3__221__basic_string_commonILb1EE20__throw_length_errorEv) refers (Special) to _printf_str.o(.text) for _printf_str
    string.cpp.o(.text._ZNKSt3__221__basic_string_commonILb1EE20__throw_length_errorEv) refers to abort.o(.text) for abort
    string.cpp.o(.ARM.exidx.text._ZNKSt3__221__basic_string_commonILb1EE20__throw_length_errorEv) refers (Special) to _printf_f.o(.ARM.Collect$$_printf_percent$$00000003) for _printf_f
    string.cpp.o(.ARM.exidx.text._ZNKSt3__221__basic_string_commonILb1EE20__throw_length_errorEv) refers (Special) to printf1.o(x$fpl$printf1) for _printf_fp_dec
    string.cpp.o(.ARM.exidx.text._ZNKSt3__221__basic_string_commonILb1EE20__throw_length_errorEv) refers (Special) to _printf_percent.o(.ARM.Collect$$_printf_percent$$00000000) for _printf_percent
    string.cpp.o(.ARM.exidx.text._ZNKSt3__221__basic_string_commonILb1EE20__throw_length_errorEv) refers (Special) to _printf_s.o(.ARM.Collect$$_printf_percent$$00000014) for _printf_s
    string.cpp.o(.ARM.exidx.text._ZNKSt3__221__basic_string_commonILb1EE20__throw_length_errorEv) refers (Special) to _printf_str.o(.text) for _printf_str
    string.cpp.o(.ARM.exidx.text._ZNKSt3__221__basic_string_commonILb1EE20__throw_length_errorEv) refers to string.cpp.o(.text._ZNKSt3__221__basic_string_commonILb1EE20__throw_length_errorEv) for [Anonymous Symbol]
    string.cpp.o(.text._ZNKSt3__221__basic_string_commonILb1EE20__throw_out_of_rangeEv) refers (Special) to _printf_f.o(.ARM.Collect$$_printf_percent$$00000003) for _printf_f
    string.cpp.o(.text._ZNKSt3__221__basic_string_commonILb1EE20__throw_out_of_rangeEv) refers (Special) to printf1.o(x$fpl$printf1) for _printf_fp_dec
    string.cpp.o(.text._ZNKSt3__221__basic_string_commonILb1EE20__throw_out_of_rangeEv) refers (Special) to _printf_percent.o(.ARM.Collect$$_printf_percent$$00000000) for _printf_percent
    string.cpp.o(.text._ZNKSt3__221__basic_string_commonILb1EE20__throw_out_of_rangeEv) refers (Special) to _printf_s.o(.ARM.Collect$$_printf_percent$$00000014) for _printf_s
    string.cpp.o(.text._ZNKSt3__221__basic_string_commonILb1EE20__throw_out_of_rangeEv) refers (Special) to _printf_str.o(.text) for _printf_str
    string.cpp.o(.text._ZNKSt3__221__basic_string_commonILb1EE20__throw_out_of_rangeEv) refers to abort.o(.text) for abort
    string.cpp.o(.ARM.exidx.text._ZNKSt3__221__basic_string_commonILb1EE20__throw_out_of_rangeEv) refers (Special) to _printf_f.o(.ARM.Collect$$_printf_percent$$00000003) for _printf_f
    string.cpp.o(.ARM.exidx.text._ZNKSt3__221__basic_string_commonILb1EE20__throw_out_of_rangeEv) refers (Special) to printf1.o(x$fpl$printf1) for _printf_fp_dec
    string.cpp.o(.ARM.exidx.text._ZNKSt3__221__basic_string_commonILb1EE20__throw_out_of_rangeEv) refers (Special) to _printf_percent.o(.ARM.Collect$$_printf_percent$$00000000) for _printf_percent
    string.cpp.o(.ARM.exidx.text._ZNKSt3__221__basic_string_commonILb1EE20__throw_out_of_rangeEv) refers (Special) to _printf_s.o(.ARM.Collect$$_printf_percent$$00000014) for _printf_s
    string.cpp.o(.ARM.exidx.text._ZNKSt3__221__basic_string_commonILb1EE20__throw_out_of_rangeEv) refers (Special) to _printf_str.o(.text) for _printf_str
    string.cpp.o(.ARM.exidx.text._ZNKSt3__221__basic_string_commonILb1EE20__throw_out_of_rangeEv) refers to string.cpp.o(.text._ZNKSt3__221__basic_string_commonILb1EE20__throw_out_of_rangeEv) for [Anonymous Symbol]
    string.cpp.o(.text._ZNSt3__212basic_stringIcNS_11char_traitsIcEENS_9allocatorIcEEE7replaceEjjPKcj) refers (Special) to _printf_f.o(.ARM.Collect$$_printf_percent$$00000003) for _printf_f
    string.cpp.o(.text._ZNSt3__212basic_stringIcNS_11char_traitsIcEENS_9allocatorIcEEE7replaceEjjPKcj) refers (Special) to printf1.o(x$fpl$printf1) for _printf_fp_dec
    string.cpp.o(.text._ZNSt3__212basic_stringIcNS_11char_traitsIcEENS_9allocatorIcEEE7replaceEjjPKcj) refers (Special) to _printf_percent.o(.ARM.Collect$$_printf_percent$$00000000) for _printf_percent
    string.cpp.o(.text._ZNSt3__212basic_stringIcNS_11char_traitsIcEENS_9allocatorIcEEE7replaceEjjPKcj) refers (Special) to _printf_s.o(.ARM.Collect$$_printf_percent$$00000014) for _printf_s
    string.cpp.o(.text._ZNSt3__212basic_stringIcNS_11char_traitsIcEENS_9allocatorIcEEE7replaceEjjPKcj) refers (Special) to _printf_str.o(.text) for _printf_str
    string.cpp.o(.text._ZNSt3__212basic_stringIcNS_11char_traitsIcEENS_9allocatorIcEEE7replaceEjjPKcj) refers to string.cpp.o(.text._ZNSt3__212basic_stringIcNS_11char_traitsIcEENS_9allocatorIcEEE21__grow_by_and_replaceEjjjjjjPKc) for std::__2::basic_string<char, std::__2::char_traits<char>, std::__2::allocator<char> >::__grow_by_and_replace(unsigned int, unsigned int, unsigned int, unsigned int, unsigned int, unsigned int, char const*)
    string.cpp.o(.text._ZNSt3__212basic_stringIcNS_11char_traitsIcEENS_9allocatorIcEEE7replaceEjjPKcj) refers to rt_memmove_v6.o(.text) for __aeabi_memmove
    string.cpp.o(.text._ZNSt3__212basic_stringIcNS_11char_traitsIcEENS_9allocatorIcEEE7replaceEjjPKcj) refers to abort.o(.text) for abort
    string.cpp.o(.ARM.exidx.text._ZNSt3__212basic_stringIcNS_11char_traitsIcEENS_9allocatorIcEEE7replaceEjjPKcj) refers (Special) to _printf_f.o(.ARM.Collect$$_printf_percent$$00000003) for _printf_f
    string.cpp.o(.ARM.exidx.text._ZNSt3__212basic_stringIcNS_11char_traitsIcEENS_9allocatorIcEEE7replaceEjjPKcj) refers (Special) to printf1.o(x$fpl$printf1) for _printf_fp_dec
    string.cpp.o(.ARM.exidx.text._ZNSt3__212basic_stringIcNS_11char_traitsIcEENS_9allocatorIcEEE7replaceEjjPKcj) refers (Special) to _printf_percent.o(.ARM.Collect$$_printf_percent$$00000000) for _printf_percent
    string.cpp.o(.ARM.exidx.text._ZNSt3__212basic_stringIcNS_11char_traitsIcEENS_9allocatorIcEEE7replaceEjjPKcj) refers (Special) to _printf_s.o(.ARM.Collect$$_printf_percent$$00000014) for _printf_s
    string.cpp.o(.ARM.exidx.text._ZNSt3__212basic_stringIcNS_11char_traitsIcEENS_9allocatorIcEEE7replaceEjjPKcj) refers (Special) to _printf_str.o(.text) for _printf_str
    string.cpp.o(.ARM.exidx.text._ZNSt3__212basic_stringIcNS_11char_traitsIcEENS_9allocatorIcEEE7replaceEjjPKcj) refers to string.cpp.o(.text._ZNSt3__212basic_stringIcNS_11char_traitsIcEENS_9allocatorIcEEE7replaceEjjPKcj) for [Anonymous Symbol]
    string.cpp.o(.text._ZNSt3__212basic_stringIcNS_11char_traitsIcEENS_9allocatorIcEEE21__grow_by_and_replaceEjjjjjjPKc) refers (Special) to _printf_f.o(.ARM.Collect$$_printf_percent$$00000003) for _printf_f
    string.cpp.o(.text._ZNSt3__212basic_stringIcNS_11char_traitsIcEENS_9allocatorIcEEE21__grow_by_and_replaceEjjjjjjPKc) refers (Special) to printf1.o(x$fpl$printf1) for _printf_fp_dec
    string.cpp.o(.text._ZNSt3__212basic_stringIcNS_11char_traitsIcEENS_9allocatorIcEEE21__grow_by_and_replaceEjjjjjjPKc) refers (Special) to _printf_percent.o(.ARM.Collect$$_printf_percent$$00000000) for _printf_percent
    string.cpp.o(.text._ZNSt3__212basic_stringIcNS_11char_traitsIcEENS_9allocatorIcEEE21__grow_by_and_replaceEjjjjjjPKc) refers (Special) to _printf_s.o(.ARM.Collect$$_printf_percent$$00000014) for _printf_s
    string.cpp.o(.text._ZNSt3__212basic_stringIcNS_11char_traitsIcEENS_9allocatorIcEEE21__grow_by_and_replaceEjjjjjjPKc) refers (Special) to _printf_str.o(.text) for _printf_str
    string.cpp.o(.text._ZNSt3__212basic_stringIcNS_11char_traitsIcEENS_9allocatorIcEEE21__grow_by_and_replaceEjjjjjjPKc) refers to new.cpp.o(.text._Znwj) for operator new(unsigned int)
    string.cpp.o(.text._ZNSt3__212basic_stringIcNS_11char_traitsIcEENS_9allocatorIcEEE21__grow_by_and_replaceEjjjjjjPKc) refers to rt_memcpy_v6.o(.text) for __aeabi_memcpy
    string.cpp.o(.text._ZNSt3__212basic_stringIcNS_11char_traitsIcEENS_9allocatorIcEEE21__grow_by_and_replaceEjjjjjjPKc) refers to new.cpp.o(.text._ZdlPv) for operator delete(void*)
    string.cpp.o(.text._ZNSt3__212basic_stringIcNS_11char_traitsIcEENS_9allocatorIcEEE21__grow_by_and_replaceEjjjjjjPKc) refers to abort.o(.text) for abort
    string.cpp.o(.ARM.exidx.text._ZNSt3__212basic_stringIcNS_11char_traitsIcEENS_9allocatorIcEEE21__grow_by_and_replaceEjjjjjjPKc) refers (Special) to _printf_f.o(.ARM.Collect$$_printf_percent$$00000003) for _printf_f
    string.cpp.o(.ARM.exidx.text._ZNSt3__212basic_stringIcNS_11char_traitsIcEENS_9allocatorIcEEE21__grow_by_and_replaceEjjjjjjPKc) refers (Special) to printf1.o(x$fpl$printf1) for _printf_fp_dec
    string.cpp.o(.ARM.exidx.text._ZNSt3__212basic_stringIcNS_11char_traitsIcEENS_9allocatorIcEEE21__grow_by_and_replaceEjjjjjjPKc) refers (Special) to _printf_percent.o(.ARM.Collect$$_printf_percent$$00000000) for _printf_percent
    string.cpp.o(.ARM.exidx.text._ZNSt3__212basic_stringIcNS_11char_traitsIcEENS_9allocatorIcEEE21__grow_by_and_replaceEjjjjjjPKc) refers (Special) to _printf_s.o(.ARM.Collect$$_printf_percent$$00000014) for _printf_s
    string.cpp.o(.ARM.exidx.text._ZNSt3__212basic_stringIcNS_11char_traitsIcEENS_9allocatorIcEEE21__grow_by_and_replaceEjjjjjjPKc) refers (Special) to _printf_str.o(.text) for _printf_str
    string.cpp.o(.ARM.exidx.text._ZNSt3__212basic_stringIcNS_11char_traitsIcEENS_9allocatorIcEEE21__grow_by_and_replaceEjjjjjjPKc) refers to string.cpp.o(.text._ZNSt3__212basic_stringIcNS_11char_traitsIcEENS_9allocatorIcEEE21__grow_by_and_replaceEjjjjjjPKc) for [Anonymous Symbol]
    string.cpp.o(.text._ZNKSt3__212basic_stringIcNS_11char_traitsIcEENS_9allocatorIcEEE5rfindEPKcjj) refers (Special) to _printf_f.o(.ARM.Collect$$_printf_percent$$00000003) for _printf_f
    string.cpp.o(.text._ZNKSt3__212basic_stringIcNS_11char_traitsIcEENS_9allocatorIcEEE5rfindEPKcjj) refers (Special) to printf1.o(x$fpl$printf1) for _printf_fp_dec
    string.cpp.o(.text._ZNKSt3__212basic_stringIcNS_11char_traitsIcEENS_9allocatorIcEEE5rfindEPKcjj) refers (Special) to _printf_percent.o(.ARM.Collect$$_printf_percent$$00000000) for _printf_percent
    string.cpp.o(.text._ZNKSt3__212basic_stringIcNS_11char_traitsIcEENS_9allocatorIcEEE5rfindEPKcjj) refers (Special) to _printf_s.o(.ARM.Collect$$_printf_percent$$00000014) for _printf_s
    string.cpp.o(.text._ZNKSt3__212basic_stringIcNS_11char_traitsIcEENS_9allocatorIcEEE5rfindEPKcjj) refers (Special) to _printf_str.o(.text) for _printf_str
    string.cpp.o(.ARM.exidx.text._ZNKSt3__212basic_stringIcNS_11char_traitsIcEENS_9allocatorIcEEE5rfindEPKcjj) refers (Special) to _printf_f.o(.ARM.Collect$$_printf_percent$$00000003) for _printf_f
    string.cpp.o(.ARM.exidx.text._ZNKSt3__212basic_stringIcNS_11char_traitsIcEENS_9allocatorIcEEE5rfindEPKcjj) refers (Special) to printf1.o(x$fpl$printf1) for _printf_fp_dec
    string.cpp.o(.ARM.exidx.text._ZNKSt3__212basic_stringIcNS_11char_traitsIcEENS_9allocatorIcEEE5rfindEPKcjj) refers (Special) to _printf_percent.o(.ARM.Collect$$_printf_percent$$00000000) for _printf_percent
    string.cpp.o(.ARM.exidx.text._ZNKSt3__212basic_stringIcNS_11char_traitsIcEENS_9allocatorIcEEE5rfindEPKcjj) refers (Special) to _printf_s.o(.ARM.Collect$$_printf_percent$$00000014) for _printf_s
    string.cpp.o(.ARM.exidx.text._ZNKSt3__212basic_stringIcNS_11char_traitsIcEENS_9allocatorIcEEE5rfindEPKcjj) refers (Special) to _printf_str.o(.text) for _printf_str
    string.cpp.o(.ARM.exidx.text._ZNKSt3__212basic_stringIcNS_11char_traitsIcEENS_9allocatorIcEEE5rfindEPKcjj) refers to string.cpp.o(.text._ZNKSt3__212basic_stringIcNS_11char_traitsIcEENS_9allocatorIcEEE5rfindEPKcjj) for [Anonymous Symbol]
    string.cpp.o(.text._ZNSt3__212basic_stringIcNS_11char_traitsIcEENS_9allocatorIcEEE6__initEPKcjj) refers (Special) to _printf_f.o(.ARM.Collect$$_printf_percent$$00000003) for _printf_f
    string.cpp.o(.text._ZNSt3__212basic_stringIcNS_11char_traitsIcEENS_9allocatorIcEEE6__initEPKcjj) refers (Special) to printf1.o(x$fpl$printf1) for _printf_fp_dec
    string.cpp.o(.text._ZNSt3__212basic_stringIcNS_11char_traitsIcEENS_9allocatorIcEEE6__initEPKcjj) refers (Special) to _printf_percent.o(.ARM.Collect$$_printf_percent$$00000000) for _printf_percent
    string.cpp.o(.text._ZNSt3__212basic_stringIcNS_11char_traitsIcEENS_9allocatorIcEEE6__initEPKcjj) refers (Special) to _printf_s.o(.ARM.Collect$$_printf_percent$$00000014) for _printf_s
    string.cpp.o(.text._ZNSt3__212basic_stringIcNS_11char_traitsIcEENS_9allocatorIcEEE6__initEPKcjj) refers (Special) to _printf_str.o(.text) for _printf_str
    string.cpp.o(.text._ZNSt3__212basic_stringIcNS_11char_traitsIcEENS_9allocatorIcEEE6__initEPKcjj) refers to new.cpp.o(.text._Znwj) for operator new(unsigned int)
    string.cpp.o(.text._ZNSt3__212basic_stringIcNS_11char_traitsIcEENS_9allocatorIcEEE6__initEPKcjj) refers to rt_memcpy_v6.o(.text) for __aeabi_memcpy
    string.cpp.o(.text._ZNSt3__212basic_stringIcNS_11char_traitsIcEENS_9allocatorIcEEE6__initEPKcjj) refers to abort.o(.text) for abort
    string.cpp.o(.ARM.exidx.text._ZNSt3__212basic_stringIcNS_11char_traitsIcEENS_9allocatorIcEEE6__initEPKcjj) refers (Special) to _printf_f.o(.ARM.Collect$$_printf_percent$$00000003) for _printf_f
    string.cpp.o(.ARM.exidx.text._ZNSt3__212basic_stringIcNS_11char_traitsIcEENS_9allocatorIcEEE6__initEPKcjj) refers (Special) to printf1.o(x$fpl$printf1) for _printf_fp_dec
    string.cpp.o(.ARM.exidx.text._ZNSt3__212basic_stringIcNS_11char_traitsIcEENS_9allocatorIcEEE6__initEPKcjj) refers (Special) to _printf_percent.o(.ARM.Collect$$_printf_percent$$00000000) for _printf_percent
    string.cpp.o(.ARM.exidx.text._ZNSt3__212basic_stringIcNS_11char_traitsIcEENS_9allocatorIcEEE6__initEPKcjj) refers (Special) to _printf_s.o(.ARM.Collect$$_printf_percent$$00000014) for _printf_s
    string.cpp.o(.ARM.exidx.text._ZNSt3__212basic_stringIcNS_11char_traitsIcEENS_9allocatorIcEEE6__initEPKcjj) refers (Special) to _printf_str.o(.text) for _printf_str
    string.cpp.o(.ARM.exidx.text._ZNSt3__212basic_stringIcNS_11char_traitsIcEENS_9allocatorIcEEE6__initEPKcjj) refers to string.cpp.o(.text._ZNSt3__212basic_stringIcNS_11char_traitsIcEENS_9allocatorIcEEE6__initEPKcjj) for [Anonymous Symbol]
    string.cpp.o(.text._ZNSt3__212basic_stringIcNS_11char_traitsIcEENS_9allocatorIcEEE7replaceEjjPKc) refers (Special) to _printf_f.o(.ARM.Collect$$_printf_percent$$00000003) for _printf_f
    string.cpp.o(.text._ZNSt3__212basic_stringIcNS_11char_traitsIcEENS_9allocatorIcEEE7replaceEjjPKc) refers (Special) to printf1.o(x$fpl$printf1) for _printf_fp_dec
    string.cpp.o(.text._ZNSt3__212basic_stringIcNS_11char_traitsIcEENS_9allocatorIcEEE7replaceEjjPKc) refers (Special) to _printf_percent.o(.ARM.Collect$$_printf_percent$$00000000) for _printf_percent
    string.cpp.o(.text._ZNSt3__212basic_stringIcNS_11char_traitsIcEENS_9allocatorIcEEE7replaceEjjPKc) refers (Special) to _printf_s.o(.ARM.Collect$$_printf_percent$$00000014) for _printf_s
    string.cpp.o(.text._ZNSt3__212basic_stringIcNS_11char_traitsIcEENS_9allocatorIcEEE7replaceEjjPKc) refers (Special) to _printf_str.o(.text) for _printf_str
    string.cpp.o(.text._ZNSt3__212basic_stringIcNS_11char_traitsIcEENS_9allocatorIcEEE7replaceEjjPKc) refers to strlen.o(.text) for strlen
    string.cpp.o(.text._ZNSt3__212basic_stringIcNS_11char_traitsIcEENS_9allocatorIcEEE7replaceEjjPKc) refers to string.cpp.o(.text._ZNSt3__212basic_stringIcNS_11char_traitsIcEENS_9allocatorIcEEE7replaceEjjPKcj) for std::__2::basic_string<char, std::__2::char_traits<char>, std::__2::allocator<char> >::replace(unsigned int, unsigned int, char const*, unsigned int)
    string.cpp.o(.ARM.exidx.text._ZNSt3__212basic_stringIcNS_11char_traitsIcEENS_9allocatorIcEEE7replaceEjjPKc) refers (Special) to _printf_f.o(.ARM.Collect$$_printf_percent$$00000003) for _printf_f
    string.cpp.o(.ARM.exidx.text._ZNSt3__212basic_stringIcNS_11char_traitsIcEENS_9allocatorIcEEE7replaceEjjPKc) refers (Special) to printf1.o(x$fpl$printf1) for _printf_fp_dec
    string.cpp.o(.ARM.exidx.text._ZNSt3__212basic_stringIcNS_11char_traitsIcEENS_9allocatorIcEEE7replaceEjjPKc) refers (Special) to _printf_percent.o(.ARM.Collect$$_printf_percent$$00000000) for _printf_percent
    string.cpp.o(.ARM.exidx.text._ZNSt3__212basic_stringIcNS_11char_traitsIcEENS_9allocatorIcEEE7replaceEjjPKc) refers (Special) to _printf_s.o(.ARM.Collect$$_printf_percent$$00000014) for _printf_s
    string.cpp.o(.ARM.exidx.text._ZNSt3__212basic_stringIcNS_11char_traitsIcEENS_9allocatorIcEEE7replaceEjjPKc) refers (Special) to _printf_str.o(.text) for _printf_str
    string.cpp.o(.ARM.exidx.text._ZNSt3__212basic_stringIcNS_11char_traitsIcEENS_9allocatorIcEEE7replaceEjjPKc) refers to string.cpp.o(.text._ZNSt3__212basic_stringIcNS_11char_traitsIcEENS_9allocatorIcEEE7replaceEjjPKc) for [Anonymous Symbol]
    string.cpp.o(.text._ZNKSt3__212basic_stringIcNS_11char_traitsIcEENS_9allocatorIcEEE16find_last_not_ofEPKcjj) refers (Special) to _printf_f.o(.ARM.Collect$$_printf_percent$$00000003) for _printf_f
    string.cpp.o(.text._ZNKSt3__212basic_stringIcNS_11char_traitsIcEENS_9allocatorIcEEE16find_last_not_ofEPKcjj) refers (Special) to printf1.o(x$fpl$printf1) for _printf_fp_dec
    string.cpp.o(.text._ZNKSt3__212basic_stringIcNS_11char_traitsIcEENS_9allocatorIcEEE16find_last_not_ofEPKcjj) refers (Special) to _printf_percent.o(.ARM.Collect$$_printf_percent$$00000000) for _printf_percent
    string.cpp.o(.text._ZNKSt3__212basic_stringIcNS_11char_traitsIcEENS_9allocatorIcEEE16find_last_not_ofEPKcjj) refers (Special) to _printf_s.o(.ARM.Collect$$_printf_percent$$00000014) for _printf_s
    string.cpp.o(.text._ZNKSt3__212basic_stringIcNS_11char_traitsIcEENS_9allocatorIcEEE16find_last_not_ofEPKcjj) refers (Special) to _printf_str.o(.text) for _printf_str
    string.cpp.o(.text._ZNKSt3__212basic_stringIcNS_11char_traitsIcEENS_9allocatorIcEEE16find_last_not_ofEPKcjj) refers to memchr.o(.text) for memchr
    string.cpp.o(.ARM.exidx.text._ZNKSt3__212basic_stringIcNS_11char_traitsIcEENS_9allocatorIcEEE16find_last_not_ofEPKcjj) refers (Special) to _printf_f.o(.ARM.Collect$$_printf_percent$$00000003) for _printf_f
    string.cpp.o(.ARM.exidx.text._ZNKSt3__212basic_stringIcNS_11char_traitsIcEENS_9allocatorIcEEE16find_last_not_ofEPKcjj) refers (Special) to printf1.o(x$fpl$printf1) for _printf_fp_dec
    string.cpp.o(.ARM.exidx.text._ZNKSt3__212basic_stringIcNS_11char_traitsIcEENS_9allocatorIcEEE16find_last_not_ofEPKcjj) refers (Special) to _printf_percent.o(.ARM.Collect$$_printf_percent$$00000000) for _printf_percent
    string.cpp.o(.ARM.exidx.text._ZNKSt3__212basic_stringIcNS_11char_traitsIcEENS_9allocatorIcEEE16find_last_not_ofEPKcjj) refers (Special) to _printf_s.o(.ARM.Collect$$_printf_percent$$00000014) for _printf_s
    string.cpp.o(.ARM.exidx.text._ZNKSt3__212basic_stringIcNS_11char_traitsIcEENS_9allocatorIcEEE16find_last_not_ofEPKcjj) refers (Special) to _printf_str.o(.text) for _printf_str
    string.cpp.o(.ARM.exidx.text._ZNKSt3__212basic_stringIcNS_11char_traitsIcEENS_9allocatorIcEEE16find_last_not_ofEPKcjj) refers to string.cpp.o(.text._ZNKSt3__212basic_stringIcNS_11char_traitsIcEENS_9allocatorIcEEE16find_last_not_ofEPKcjj) for [Anonymous Symbol]
    string.cpp.o(.text._ZNSt3__212basic_stringIcNS_11char_traitsIcEENS_9allocatorIcEEED2Ev) refers (Special) to _printf_f.o(.ARM.Collect$$_printf_percent$$00000003) for _printf_f
    string.cpp.o(.text._ZNSt3__212basic_stringIcNS_11char_traitsIcEENS_9allocatorIcEEED2Ev) refers (Special) to printf1.o(x$fpl$printf1) for _printf_fp_dec
    string.cpp.o(.text._ZNSt3__212basic_stringIcNS_11char_traitsIcEENS_9allocatorIcEEED2Ev) refers (Special) to _printf_percent.o(.ARM.Collect$$_printf_percent$$00000000) for _printf_percent
    string.cpp.o(.text._ZNSt3__212basic_stringIcNS_11char_traitsIcEENS_9allocatorIcEEED2Ev) refers (Special) to _printf_s.o(.ARM.Collect$$_printf_percent$$00000014) for _printf_s
    string.cpp.o(.text._ZNSt3__212basic_stringIcNS_11char_traitsIcEENS_9allocatorIcEEED2Ev) refers (Special) to _printf_str.o(.text) for _printf_str
    string.cpp.o(.text._ZNSt3__212basic_stringIcNS_11char_traitsIcEENS_9allocatorIcEEED2Ev) refers to new.cpp.o(.text._ZdlPv) for operator delete(void*)
    string.cpp.o(.ARM.exidx.text._ZNSt3__212basic_stringIcNS_11char_traitsIcEENS_9allocatorIcEEED2Ev) refers (Special) to _printf_f.o(.ARM.Collect$$_printf_percent$$00000003) for _printf_f
    string.cpp.o(.ARM.exidx.text._ZNSt3__212basic_stringIcNS_11char_traitsIcEENS_9allocatorIcEEED2Ev) refers (Special) to printf1.o(x$fpl$printf1) for _printf_fp_dec
    string.cpp.o(.ARM.exidx.text._ZNSt3__212basic_stringIcNS_11char_traitsIcEENS_9allocatorIcEEED2Ev) refers (Special) to _printf_percent.o(.ARM.Collect$$_printf_percent$$00000000) for _printf_percent
    string.cpp.o(.ARM.exidx.text._ZNSt3__212basic_stringIcNS_11char_traitsIcEENS_9allocatorIcEEED2Ev) refers (Special) to _printf_s.o(.ARM.Collect$$_printf_percent$$00000014) for _printf_s
    string.cpp.o(.ARM.exidx.text._ZNSt3__212basic_stringIcNS_11char_traitsIcEENS_9allocatorIcEEED2Ev) refers (Special) to _printf_str.o(.text) for _printf_str
    string.cpp.o(.ARM.exidx.text._ZNSt3__212basic_stringIcNS_11char_traitsIcEENS_9allocatorIcEEED2Ev) refers to string.cpp.o(.text._ZNSt3__212basic_stringIcNS_11char_traitsIcEENS_9allocatorIcEEED2Ev) for [Anonymous Symbol]
    string.cpp.o(.text._ZNKSt3__212basic_stringIcNS_11char_traitsIcEENS_9allocatorIcEEE17find_first_not_ofEPKcjj) refers (Special) to _printf_f.o(.ARM.Collect$$_printf_percent$$00000003) for _printf_f
    string.cpp.o(.text._ZNKSt3__212basic_stringIcNS_11char_traitsIcEENS_9allocatorIcEEE17find_first_not_ofEPKcjj) refers (Special) to printf1.o(x$fpl$printf1) for _printf_fp_dec
    string.cpp.o(.text._ZNKSt3__212basic_stringIcNS_11char_traitsIcEENS_9allocatorIcEEE17find_first_not_ofEPKcjj) refers (Special) to _printf_percent.o(.ARM.Collect$$_printf_percent$$00000000) for _printf_percent
    string.cpp.o(.text._ZNKSt3__212basic_stringIcNS_11char_traitsIcEENS_9allocatorIcEEE17find_first_not_ofEPKcjj) refers (Special) to _printf_s.o(.ARM.Collect$$_printf_percent$$00000014) for _printf_s
    string.cpp.o(.text._ZNKSt3__212basic_stringIcNS_11char_traitsIcEENS_9allocatorIcEEE17find_first_not_ofEPKcjj) refers (Special) to _printf_str.o(.text) for _printf_str
    string.cpp.o(.text._ZNKSt3__212basic_stringIcNS_11char_traitsIcEENS_9allocatorIcEEE17find_first_not_ofEPKcjj) refers to memchr.o(.text) for memchr
    string.cpp.o(.ARM.exidx.text._ZNKSt3__212basic_stringIcNS_11char_traitsIcEENS_9allocatorIcEEE17find_first_not_ofEPKcjj) refers (Special) to _printf_f.o(.ARM.Collect$$_printf_percent$$00000003) for _printf_f
    string.cpp.o(.ARM.exidx.text._ZNKSt3__212basic_stringIcNS_11char_traitsIcEENS_9allocatorIcEEE17find_first_not_ofEPKcjj) refers (Special) to printf1.o(x$fpl$printf1) for _printf_fp_dec
    string.cpp.o(.ARM.exidx.text._ZNKSt3__212basic_stringIcNS_11char_traitsIcEENS_9allocatorIcEEE17find_first_not_ofEPKcjj) refers (Special) to _printf_percent.o(.ARM.Collect$$_printf_percent$$00000000) for _printf_percent
    string.cpp.o(.ARM.exidx.text._ZNKSt3__212basic_stringIcNS_11char_traitsIcEENS_9allocatorIcEEE17find_first_not_ofEPKcjj) refers (Special) to _printf_s.o(.ARM.Collect$$_printf_percent$$00000014) for _printf_s
    string.cpp.o(.ARM.exidx.text._ZNKSt3__212basic_stringIcNS_11char_traitsIcEENS_9allocatorIcEEE17find_first_not_ofEPKcjj) refers (Special) to _printf_str.o(.text) for _printf_str
    string.cpp.o(.ARM.exidx.text._ZNKSt3__212basic_stringIcNS_11char_traitsIcEENS_9allocatorIcEEE17find_first_not_ofEPKcjj) refers to string.cpp.o(.text._ZNKSt3__212basic_stringIcNS_11char_traitsIcEENS_9allocatorIcEEE17find_first_not_ofEPKcjj) for [Anonymous Symbol]
    string.cpp.o(.text._ZNSt3__212basic_stringIcNS_11char_traitsIcEENS_9allocatorIcEEE6insertEjjc) refers (Special) to _printf_f.o(.ARM.Collect$$_printf_percent$$00000003) for _printf_f
    string.cpp.o(.text._ZNSt3__212basic_stringIcNS_11char_traitsIcEENS_9allocatorIcEEE6insertEjjc) refers (Special) to printf1.o(x$fpl$printf1) for _printf_fp_dec
    string.cpp.o(.text._ZNSt3__212basic_stringIcNS_11char_traitsIcEENS_9allocatorIcEEE6insertEjjc) refers (Special) to _printf_percent.o(.ARM.Collect$$_printf_percent$$00000000) for _printf_percent
    string.cpp.o(.text._ZNSt3__212basic_stringIcNS_11char_traitsIcEENS_9allocatorIcEEE6insertEjjc) refers (Special) to _printf_s.o(.ARM.Collect$$_printf_percent$$00000014) for _printf_s
    string.cpp.o(.text._ZNSt3__212basic_stringIcNS_11char_traitsIcEENS_9allocatorIcEEE6insertEjjc) refers (Special) to _printf_str.o(.text) for _printf_str
    string.cpp.o(.text._ZNSt3__212basic_stringIcNS_11char_traitsIcEENS_9allocatorIcEEE6insertEjjc) refers to string.cpp.o(.text._ZNSt3__212basic_stringIcNS_11char_traitsIcEENS_9allocatorIcEEE9__grow_byEjjjjjj) for std::__2::basic_string<char, std::__2::char_traits<char>, std::__2::allocator<char> >::__grow_by(unsigned int, unsigned int, unsigned int, unsigned int, unsigned int, unsigned int)
    string.cpp.o(.text._ZNSt3__212basic_stringIcNS_11char_traitsIcEENS_9allocatorIcEEE6insertEjjc) refers to rt_memmove_v6.o(.text) for __aeabi_memmove
    string.cpp.o(.text._ZNSt3__212basic_stringIcNS_11char_traitsIcEENS_9allocatorIcEEE6insertEjjc) refers to aeabi_memset.o(.text) for __aeabi_memset
    string.cpp.o(.text._ZNSt3__212basic_stringIcNS_11char_traitsIcEENS_9allocatorIcEEE6insertEjjc) refers to abort.o(.text) for abort
    string.cpp.o(.ARM.exidx.text._ZNSt3__212basic_stringIcNS_11char_traitsIcEENS_9allocatorIcEEE6insertEjjc) refers (Special) to _printf_f.o(.ARM.Collect$$_printf_percent$$00000003) for _printf_f
    string.cpp.o(.ARM.exidx.text._ZNSt3__212basic_stringIcNS_11char_traitsIcEENS_9allocatorIcEEE6insertEjjc) refers (Special) to printf1.o(x$fpl$printf1) for _printf_fp_dec
    string.cpp.o(.ARM.exidx.text._ZNSt3__212basic_stringIcNS_11char_traitsIcEENS_9allocatorIcEEE6insertEjjc) refers (Special) to _printf_percent.o(.ARM.Collect$$_printf_percent$$00000000) for _printf_percent
    string.cpp.o(.ARM.exidx.text._ZNSt3__212basic_stringIcNS_11char_traitsIcEENS_9allocatorIcEEE6insertEjjc) refers (Special) to _printf_s.o(.ARM.Collect$$_printf_percent$$00000014) for _printf_s
    string.cpp.o(.ARM.exidx.text._ZNSt3__212basic_stringIcNS_11char_traitsIcEENS_9allocatorIcEEE6insertEjjc) refers (Special) to _printf_str.o(.text) for _printf_str
    string.cpp.o(.ARM.exidx.text._ZNSt3__212basic_stringIcNS_11char_traitsIcEENS_9allocatorIcEEE6insertEjjc) refers to string.cpp.o(.text._ZNSt3__212basic_stringIcNS_11char_traitsIcEENS_9allocatorIcEEE6insertEjjc) for [Anonymous Symbol]
    string.cpp.o(.text._ZNSt3__212basic_stringIcNS_11char_traitsIcEENS_9allocatorIcEEE9__grow_byEjjjjjj) refers (Special) to _printf_f.o(.ARM.Collect$$_printf_percent$$00000003) for _printf_f
    string.cpp.o(.text._ZNSt3__212basic_stringIcNS_11char_traitsIcEENS_9allocatorIcEEE9__grow_byEjjjjjj) refers (Special) to printf1.o(x$fpl$printf1) for _printf_fp_dec
    string.cpp.o(.text._ZNSt3__212basic_stringIcNS_11char_traitsIcEENS_9allocatorIcEEE9__grow_byEjjjjjj) refers (Special) to _printf_percent.o(.ARM.Collect$$_printf_percent$$00000000) for _printf_percent
    string.cpp.o(.text._ZNSt3__212basic_stringIcNS_11char_traitsIcEENS_9allocatorIcEEE9__grow_byEjjjjjj) refers (Special) to _printf_s.o(.ARM.Collect$$_printf_percent$$00000014) for _printf_s
    string.cpp.o(.text._ZNSt3__212basic_stringIcNS_11char_traitsIcEENS_9allocatorIcEEE9__grow_byEjjjjjj) refers (Special) to _printf_str.o(.text) for _printf_str
    string.cpp.o(.text._ZNSt3__212basic_stringIcNS_11char_traitsIcEENS_9allocatorIcEEE9__grow_byEjjjjjj) refers to new.cpp.o(.text._Znwj) for operator new(unsigned int)
    string.cpp.o(.text._ZNSt3__212basic_stringIcNS_11char_traitsIcEENS_9allocatorIcEEE9__grow_byEjjjjjj) refers to rt_memcpy_v6.o(.text) for __aeabi_memcpy
    string.cpp.o(.text._ZNSt3__212basic_stringIcNS_11char_traitsIcEENS_9allocatorIcEEE9__grow_byEjjjjjj) refers to new.cpp.o(.text._ZdlPv) for operator delete(void*)
    string.cpp.o(.text._ZNSt3__212basic_stringIcNS_11char_traitsIcEENS_9allocatorIcEEE9__grow_byEjjjjjj) refers to abort.o(.text) for abort
    string.cpp.o(.ARM.exidx.text._ZNSt3__212basic_stringIcNS_11char_traitsIcEENS_9allocatorIcEEE9__grow_byEjjjjjj) refers (Special) to _printf_f.o(.ARM.Collect$$_printf_percent$$00000003) for _printf_f
    string.cpp.o(.ARM.exidx.text._ZNSt3__212basic_stringIcNS_11char_traitsIcEENS_9allocatorIcEEE9__grow_byEjjjjjj) refers (Special) to printf1.o(x$fpl$printf1) for _printf_fp_dec
    string.cpp.o(.ARM.exidx.text._ZNSt3__212basic_stringIcNS_11char_traitsIcEENS_9allocatorIcEEE9__grow_byEjjjjjj) refers (Special) to _printf_percent.o(.ARM.Collect$$_printf_percent$$00000000) for _printf_percent
    string.cpp.o(.ARM.exidx.text._ZNSt3__212basic_stringIcNS_11char_traitsIcEENS_9allocatorIcEEE9__grow_byEjjjjjj) refers (Special) to _printf_s.o(.ARM.Collect$$_printf_percent$$00000014) for _printf_s
    string.cpp.o(.ARM.exidx.text._ZNSt3__212basic_stringIcNS_11char_traitsIcEENS_9allocatorIcEEE9__grow_byEjjjjjj) refers (Special) to _printf_str.o(.text) for _printf_str
    string.cpp.o(.ARM.exidx.text._ZNSt3__212basic_stringIcNS_11char_traitsIcEENS_9allocatorIcEEE9__grow_byEjjjjjj) refers to string.cpp.o(.text._ZNSt3__212basic_stringIcNS_11char_traitsIcEENS_9allocatorIcEEE9__grow_byEjjjjjj) for [Anonymous Symbol]
    string.cpp.o(.text._ZNSt3__212basic_stringIcNS_11char_traitsIcEENS_9allocatorIcEEEaSEc) refers (Special) to _printf_f.o(.ARM.Collect$$_printf_percent$$00000003) for _printf_f
    string.cpp.o(.text._ZNSt3__212basic_stringIcNS_11char_traitsIcEENS_9allocatorIcEEEaSEc) refers (Special) to printf1.o(x$fpl$printf1) for _printf_fp_dec
    string.cpp.o(.text._ZNSt3__212basic_stringIcNS_11char_traitsIcEENS_9allocatorIcEEEaSEc) refers (Special) to _printf_percent.o(.ARM.Collect$$_printf_percent$$00000000) for _printf_percent
    string.cpp.o(.text._ZNSt3__212basic_stringIcNS_11char_traitsIcEENS_9allocatorIcEEEaSEc) refers (Special) to _printf_s.o(.ARM.Collect$$_printf_percent$$00000014) for _printf_s
    string.cpp.o(.text._ZNSt3__212basic_stringIcNS_11char_traitsIcEENS_9allocatorIcEEEaSEc) refers (Special) to _printf_str.o(.text) for _printf_str
    string.cpp.o(.ARM.exidx.text._ZNSt3__212basic_stringIcNS_11char_traitsIcEENS_9allocatorIcEEEaSEc) refers (Special) to _printf_f.o(.ARM.Collect$$_printf_percent$$00000003) for _printf_f
    string.cpp.o(.ARM.exidx.text._ZNSt3__212basic_stringIcNS_11char_traitsIcEENS_9allocatorIcEEEaSEc) refers (Special) to printf1.o(x$fpl$printf1) for _printf_fp_dec
    string.cpp.o(.ARM.exidx.text._ZNSt3__212basic_stringIcNS_11char_traitsIcEENS_9allocatorIcEEEaSEc) refers (Special) to _printf_percent.o(.ARM.Collect$$_printf_percent$$00000000) for _printf_percent
    string.cpp.o(.ARM.exidx.text._ZNSt3__212basic_stringIcNS_11char_traitsIcEENS_9allocatorIcEEEaSEc) refers (Special) to _printf_s.o(.ARM.Collect$$_printf_percent$$00000014) for _printf_s
    string.cpp.o(.ARM.exidx.text._ZNSt3__212basic_stringIcNS_11char_traitsIcEENS_9allocatorIcEEEaSEc) refers (Special) to _printf_str.o(.text) for _printf_str
    string.cpp.o(.ARM.exidx.text._ZNSt3__212basic_stringIcNS_11char_traitsIcEENS_9allocatorIcEEEaSEc) refers to string.cpp.o(.text._ZNSt3__212basic_stringIcNS_11char_traitsIcEENS_9allocatorIcEEEaSEc) for [Anonymous Symbol]
    string.cpp.o(.text._ZNSt3__212basic_stringIcNS_11char_traitsIcEENS_9allocatorIcEEE6__initEPKcj) refers (Special) to _printf_f.o(.ARM.Collect$$_printf_percent$$00000003) for _printf_f
    string.cpp.o(.text._ZNSt3__212basic_stringIcNS_11char_traitsIcEENS_9allocatorIcEEE6__initEPKcj) refers (Special) to printf1.o(x$fpl$printf1) for _printf_fp_dec
    string.cpp.o(.text._ZNSt3__212basic_stringIcNS_11char_traitsIcEENS_9allocatorIcEEE6__initEPKcj) refers (Special) to _printf_percent.o(.ARM.Collect$$_printf_percent$$00000000) for _printf_percent
    string.cpp.o(.text._ZNSt3__212basic_stringIcNS_11char_traitsIcEENS_9allocatorIcEEE6__initEPKcj) refers (Special) to _printf_s.o(.ARM.Collect$$_printf_percent$$00000014) for _printf_s
    string.cpp.o(.text._ZNSt3__212basic_stringIcNS_11char_traitsIcEENS_9allocatorIcEEE6__initEPKcj) refers (Special) to _printf_str.o(.text) for _printf_str
    string.cpp.o(.text._ZNSt3__212basic_stringIcNS_11char_traitsIcEENS_9allocatorIcEEE6__initEPKcj) refers to new.cpp.o(.text._Znwj) for operator new(unsigned int)
    string.cpp.o(.text._ZNSt3__212basic_stringIcNS_11char_traitsIcEENS_9allocatorIcEEE6__initEPKcj) refers to rt_memcpy_v6.o(.text) for __aeabi_memcpy
    string.cpp.o(.text._ZNSt3__212basic_stringIcNS_11char_traitsIcEENS_9allocatorIcEEE6__initEPKcj) refers to abort.o(.text) for abort
    string.cpp.o(.ARM.exidx.text._ZNSt3__212basic_stringIcNS_11char_traitsIcEENS_9allocatorIcEEE6__initEPKcj) refers (Special) to _printf_f.o(.ARM.Collect$$_printf_percent$$00000003) for _printf_f
    string.cpp.o(.ARM.exidx.text._ZNSt3__212basic_stringIcNS_11char_traitsIcEENS_9allocatorIcEEE6__initEPKcj) refers (Special) to printf1.o(x$fpl$printf1) for _printf_fp_dec
    string.cpp.o(.ARM.exidx.text._ZNSt3__212basic_stringIcNS_11char_traitsIcEENS_9allocatorIcEEE6__initEPKcj) refers (Special) to _printf_percent.o(.ARM.Collect$$_printf_percent$$00000000) for _printf_percent
    string.cpp.o(.ARM.exidx.text._ZNSt3__212basic_stringIcNS_11char_traitsIcEENS_9allocatorIcEEE6__initEPKcj) refers (Special) to _printf_s.o(.ARM.Collect$$_printf_percent$$00000014) for _printf_s
    string.cpp.o(.ARM.exidx.text._ZNSt3__212basic_stringIcNS_11char_traitsIcEENS_9allocatorIcEEE6__initEPKcj) refers (Special) to _printf_str.o(.text) for _printf_str
    string.cpp.o(.ARM.exidx.text._ZNSt3__212basic_stringIcNS_11char_traitsIcEENS_9allocatorIcEEE6__initEPKcj) refers to string.cpp.o(.text._ZNSt3__212basic_stringIcNS_11char_traitsIcEENS_9allocatorIcEEE6__initEPKcj) for [Anonymous Symbol]
    string.cpp.o(.text._ZNSt3__212basic_stringIcNS_11char_traitsIcEENS_9allocatorIcEEE25__init_copy_ctor_externalEPKcj) refers (Special) to _printf_f.o(.ARM.Collect$$_printf_percent$$00000003) for _printf_f
    string.cpp.o(.text._ZNSt3__212basic_stringIcNS_11char_traitsIcEENS_9allocatorIcEEE25__init_copy_ctor_externalEPKcj) refers (Special) to printf1.o(x$fpl$printf1) for _printf_fp_dec
    string.cpp.o(.text._ZNSt3__212basic_stringIcNS_11char_traitsIcEENS_9allocatorIcEEE25__init_copy_ctor_externalEPKcj) refers (Special) to _printf_percent.o(.ARM.Collect$$_printf_percent$$00000000) for _printf_percent
    string.cpp.o(.text._ZNSt3__212basic_stringIcNS_11char_traitsIcEENS_9allocatorIcEEE25__init_copy_ctor_externalEPKcj) refers (Special) to _printf_s.o(.ARM.Collect$$_printf_percent$$00000014) for _printf_s
    string.cpp.o(.text._ZNSt3__212basic_stringIcNS_11char_traitsIcEENS_9allocatorIcEEE25__init_copy_ctor_externalEPKcj) refers (Special) to _printf_str.o(.text) for _printf_str
    string.cpp.o(.text._ZNSt3__212basic_stringIcNS_11char_traitsIcEENS_9allocatorIcEEE25__init_copy_ctor_externalEPKcj) refers to new.cpp.o(.text._Znwj) for operator new(unsigned int)
    string.cpp.o(.text._ZNSt3__212basic_stringIcNS_11char_traitsIcEENS_9allocatorIcEEE25__init_copy_ctor_externalEPKcj) refers to rt_memcpy_v6.o(.text) for __aeabi_memcpy
    string.cpp.o(.text._ZNSt3__212basic_stringIcNS_11char_traitsIcEENS_9allocatorIcEEE25__init_copy_ctor_externalEPKcj) refers to abort.o(.text) for abort
    string.cpp.o(.ARM.exidx.text._ZNSt3__212basic_stringIcNS_11char_traitsIcEENS_9allocatorIcEEE25__init_copy_ctor_externalEPKcj) refers (Special) to _printf_f.o(.ARM.Collect$$_printf_percent$$00000003) for _printf_f
    string.cpp.o(.ARM.exidx.text._ZNSt3__212basic_stringIcNS_11char_traitsIcEENS_9allocatorIcEEE25__init_copy_ctor_externalEPKcj) refers (Special) to printf1.o(x$fpl$printf1) for _printf_fp_dec
    string.cpp.o(.ARM.exidx.text._ZNSt3__212basic_stringIcNS_11char_traitsIcEENS_9allocatorIcEEE25__init_copy_ctor_externalEPKcj) refers (Special) to _printf_percent.o(.ARM.Collect$$_printf_percent$$00000000) for _printf_percent
    string.cpp.o(.ARM.exidx.text._ZNSt3__212basic_stringIcNS_11char_traitsIcEENS_9allocatorIcEEE25__init_copy_ctor_externalEPKcj) refers (Special) to _printf_s.o(.ARM.Collect$$_printf_percent$$00000014) for _printf_s
    string.cpp.o(.ARM.exidx.text._ZNSt3__212basic_stringIcNS_11char_traitsIcEENS_9allocatorIcEEE25__init_copy_ctor_externalEPKcj) refers (Special) to _printf_str.o(.text) for _printf_str
    string.cpp.o(.ARM.exidx.text._ZNSt3__212basic_stringIcNS_11char_traitsIcEENS_9allocatorIcEEE25__init_copy_ctor_externalEPKcj) refers to string.cpp.o(.text._ZNSt3__212basic_stringIcNS_11char_traitsIcEENS_9allocatorIcEEE25__init_copy_ctor_externalEPKcj) for [Anonymous Symbol]
    string.cpp.o(.text._ZNKSt3__212basic_stringIcNS_11char_traitsIcEENS_9allocatorIcEEE2atEj) refers (Special) to _printf_f.o(.ARM.Collect$$_printf_percent$$00000003) for _printf_f
    string.cpp.o(.text._ZNKSt3__212basic_stringIcNS_11char_traitsIcEENS_9allocatorIcEEE2atEj) refers (Special) to printf1.o(x$fpl$printf1) for _printf_fp_dec
    string.cpp.o(.text._ZNKSt3__212basic_stringIcNS_11char_traitsIcEENS_9allocatorIcEEE2atEj) refers (Special) to _printf_percent.o(.ARM.Collect$$_printf_percent$$00000000) for _printf_percent
    string.cpp.o(.text._ZNKSt3__212basic_stringIcNS_11char_traitsIcEENS_9allocatorIcEEE2atEj) refers (Special) to _printf_s.o(.ARM.Collect$$_printf_percent$$00000014) for _printf_s
    string.cpp.o(.text._ZNKSt3__212basic_stringIcNS_11char_traitsIcEENS_9allocatorIcEEE2atEj) refers (Special) to _printf_str.o(.text) for _printf_str
    string.cpp.o(.text._ZNKSt3__212basic_stringIcNS_11char_traitsIcEENS_9allocatorIcEEE2atEj) refers to abort.o(.text) for abort
    string.cpp.o(.ARM.exidx.text._ZNKSt3__212basic_stringIcNS_11char_traitsIcEENS_9allocatorIcEEE2atEj) refers (Special) to _printf_f.o(.ARM.Collect$$_printf_percent$$00000003) for _printf_f
    string.cpp.o(.ARM.exidx.text._ZNKSt3__212basic_stringIcNS_11char_traitsIcEENS_9allocatorIcEEE2atEj) refers (Special) to printf1.o(x$fpl$printf1) for _printf_fp_dec
    string.cpp.o(.ARM.exidx.text._ZNKSt3__212basic_stringIcNS_11char_traitsIcEENS_9allocatorIcEEE2atEj) refers (Special) to _printf_percent.o(.ARM.Collect$$_printf_percent$$00000000) for _printf_percent
    string.cpp.o(.ARM.exidx.text._ZNKSt3__212basic_stringIcNS_11char_traitsIcEENS_9allocatorIcEEE2atEj) refers (Special) to _printf_s.o(.ARM.Collect$$_printf_percent$$00000014) for _printf_s
    string.cpp.o(.ARM.exidx.text._ZNKSt3__212basic_stringIcNS_11char_traitsIcEENS_9allocatorIcEEE2atEj) refers (Special) to _printf_str.o(.text) for _printf_str
    string.cpp.o(.ARM.exidx.text._ZNKSt3__212basic_stringIcNS_11char_traitsIcEENS_9allocatorIcEEE2atEj) refers to string.cpp.o(.text._ZNKSt3__212basic_stringIcNS_11char_traitsIcEENS_9allocatorIcEEE2atEj) for [Anonymous Symbol]
    string.cpp.o(.text._ZNSt3__212basic_stringIcNS_11char_traitsIcEENS_9allocatorIcEEE6insertEjPKcj) refers (Special) to _printf_f.o(.ARM.Collect$$_printf_percent$$00000003) for _printf_f
    string.cpp.o(.text._ZNSt3__212basic_stringIcNS_11char_traitsIcEENS_9allocatorIcEEE6insertEjPKcj) refers (Special) to printf1.o(x$fpl$printf1) for _printf_fp_dec
    string.cpp.o(.text._ZNSt3__212basic_stringIcNS_11char_traitsIcEENS_9allocatorIcEEE6insertEjPKcj) refers (Special) to _printf_percent.o(.ARM.Collect$$_printf_percent$$00000000) for _printf_percent
    string.cpp.o(.text._ZNSt3__212basic_stringIcNS_11char_traitsIcEENS_9allocatorIcEEE6insertEjPKcj) refers (Special) to _printf_s.o(.ARM.Collect$$_printf_percent$$00000014) for _printf_s
    string.cpp.o(.text._ZNSt3__212basic_stringIcNS_11char_traitsIcEENS_9allocatorIcEEE6insertEjPKcj) refers (Special) to _printf_str.o(.text) for _printf_str
    string.cpp.o(.text._ZNSt3__212basic_stringIcNS_11char_traitsIcEENS_9allocatorIcEEE6insertEjPKcj) refers to string.cpp.o(.text._ZNSt3__212basic_stringIcNS_11char_traitsIcEENS_9allocatorIcEEE21__grow_by_and_replaceEjjjjjjPKc) for std::__2::basic_string<char, std::__2::char_traits<char>, std::__2::allocator<char> >::__grow_by_and_replace(unsigned int, unsigned int, unsigned int, unsigned int, unsigned int, unsigned int, char const*)
    string.cpp.o(.text._ZNSt3__212basic_stringIcNS_11char_traitsIcEENS_9allocatorIcEEE6insertEjPKcj) refers to rt_memmove_v6.o(.text) for __aeabi_memmove
    string.cpp.o(.text._ZNSt3__212basic_stringIcNS_11char_traitsIcEENS_9allocatorIcEEE6insertEjPKcj) refers to abort.o(.text) for abort
    string.cpp.o(.ARM.exidx.text._ZNSt3__212basic_stringIcNS_11char_traitsIcEENS_9allocatorIcEEE6insertEjPKcj) refers (Special) to _printf_f.o(.ARM.Collect$$_printf_percent$$00000003) for _printf_f
    string.cpp.o(.ARM.exidx.text._ZNSt3__212basic_stringIcNS_11char_traitsIcEENS_9allocatorIcEEE6insertEjPKcj) refers (Special) to printf1.o(x$fpl$printf1) for _printf_fp_dec
    string.cpp.o(.ARM.exidx.text._ZNSt3__212basic_stringIcNS_11char_traitsIcEENS_9allocatorIcEEE6insertEjPKcj) refers (Special) to _printf_percent.o(.ARM.Collect$$_printf_percent$$00000000) for _printf_percent
    string.cpp.o(.ARM.exidx.text._ZNSt3__212basic_stringIcNS_11char_traitsIcEENS_9allocatorIcEEE6insertEjPKcj) refers (Special) to _printf_s.o(.ARM.Collect$$_printf_percent$$00000014) for _printf_s
    string.cpp.o(.ARM.exidx.text._ZNSt3__212basic_stringIcNS_11char_traitsIcEENS_9allocatorIcEEE6insertEjPKcj) refers (Special) to _printf_str.o(.text) for _printf_str
    string.cpp.o(.ARM.exidx.text._ZNSt3__212basic_stringIcNS_11char_traitsIcEENS_9allocatorIcEEE6insertEjPKcj) refers to string.cpp.o(.text._ZNSt3__212basic_stringIcNS_11char_traitsIcEENS_9allocatorIcEEE6insertEjPKcj) for [Anonymous Symbol]
    string.cpp.o(.text._ZNKSt3__212basic_stringIcNS_11char_traitsIcEENS_9allocatorIcEEE13find_first_ofEPKcjj) refers (Special) to _printf_f.o(.ARM.Collect$$_printf_percent$$00000003) for _printf_f
    string.cpp.o(.text._ZNKSt3__212basic_stringIcNS_11char_traitsIcEENS_9allocatorIcEEE13find_first_ofEPKcjj) refers (Special) to printf1.o(x$fpl$printf1) for _printf_fp_dec
    string.cpp.o(.text._ZNKSt3__212basic_stringIcNS_11char_traitsIcEENS_9allocatorIcEEE13find_first_ofEPKcjj) refers (Special) to _printf_percent.o(.ARM.Collect$$_printf_percent$$00000000) for _printf_percent
    string.cpp.o(.text._ZNKSt3__212basic_stringIcNS_11char_traitsIcEENS_9allocatorIcEEE13find_first_ofEPKcjj) refers (Special) to _printf_s.o(.ARM.Collect$$_printf_percent$$00000014) for _printf_s
    string.cpp.o(.text._ZNKSt3__212basic_stringIcNS_11char_traitsIcEENS_9allocatorIcEEE13find_first_ofEPKcjj) refers (Special) to _printf_str.o(.text) for _printf_str
    string.cpp.o(.ARM.exidx.text._ZNKSt3__212basic_stringIcNS_11char_traitsIcEENS_9allocatorIcEEE13find_first_ofEPKcjj) refers (Special) to _printf_f.o(.ARM.Collect$$_printf_percent$$00000003) for _printf_f
    string.cpp.o(.ARM.exidx.text._ZNKSt3__212basic_stringIcNS_11char_traitsIcEENS_9allocatorIcEEE13find_first_ofEPKcjj) refers (Special) to printf1.o(x$fpl$printf1) for _printf_fp_dec
    string.cpp.o(.ARM.exidx.text._ZNKSt3__212basic_stringIcNS_11char_traitsIcEENS_9allocatorIcEEE13find_first_ofEPKcjj) refers (Special) to _printf_percent.o(.ARM.Collect$$_printf_percent$$00000000) for _printf_percent
    string.cpp.o(.ARM.exidx.text._ZNKSt3__212basic_stringIcNS_11char_traitsIcEENS_9allocatorIcEEE13find_first_ofEPKcjj) refers (Special) to _printf_s.o(.ARM.Collect$$_printf_percent$$00000014) for _printf_s
    string.cpp.o(.ARM.exidx.text._ZNKSt3__212basic_stringIcNS_11char_traitsIcEENS_9allocatorIcEEE13find_first_ofEPKcjj) refers (Special) to _printf_str.o(.text) for _printf_str
    string.cpp.o(.ARM.exidx.text._ZNKSt3__212basic_stringIcNS_11char_traitsIcEENS_9allocatorIcEEE13find_first_ofEPKcjj) refers to string.cpp.o(.text._ZNKSt3__212basic_stringIcNS_11char_traitsIcEENS_9allocatorIcEEE13find_first_ofEPKcjj) for [Anonymous Symbol]
    string.cpp.o(.text._ZNSt3__212basic_stringIcNS_11char_traitsIcEENS_9allocatorIcEEE7replaceEjjjc) refers (Special) to _printf_f.o(.ARM.Collect$$_printf_percent$$00000003) for _printf_f
    string.cpp.o(.text._ZNSt3__212basic_stringIcNS_11char_traitsIcEENS_9allocatorIcEEE7replaceEjjjc) refers (Special) to printf1.o(x$fpl$printf1) for _printf_fp_dec
    string.cpp.o(.text._ZNSt3__212basic_stringIcNS_11char_traitsIcEENS_9allocatorIcEEE7replaceEjjjc) refers (Special) to _printf_percent.o(.ARM.Collect$$_printf_percent$$00000000) for _printf_percent
    string.cpp.o(.text._ZNSt3__212basic_stringIcNS_11char_traitsIcEENS_9allocatorIcEEE7replaceEjjjc) refers (Special) to _printf_s.o(.ARM.Collect$$_printf_percent$$00000014) for _printf_s
    string.cpp.o(.text._ZNSt3__212basic_stringIcNS_11char_traitsIcEENS_9allocatorIcEEE7replaceEjjjc) refers (Special) to _printf_str.o(.text) for _printf_str
    string.cpp.o(.text._ZNSt3__212basic_stringIcNS_11char_traitsIcEENS_9allocatorIcEEE7replaceEjjjc) refers to string.cpp.o(.text._ZNSt3__212basic_stringIcNS_11char_traitsIcEENS_9allocatorIcEEE9__grow_byEjjjjjj) for std::__2::basic_string<char, std::__2::char_traits<char>, std::__2::allocator<char> >::__grow_by(unsigned int, unsigned int, unsigned int, unsigned int, unsigned int, unsigned int)
    string.cpp.o(.text._ZNSt3__212basic_stringIcNS_11char_traitsIcEENS_9allocatorIcEEE7replaceEjjjc) refers to rt_memmove_v6.o(.text) for __aeabi_memmove
    string.cpp.o(.text._ZNSt3__212basic_stringIcNS_11char_traitsIcEENS_9allocatorIcEEE7replaceEjjjc) refers to aeabi_memset.o(.text) for __aeabi_memset
    string.cpp.o(.text._ZNSt3__212basic_stringIcNS_11char_traitsIcEENS_9allocatorIcEEE7replaceEjjjc) refers to abort.o(.text) for abort
    string.cpp.o(.ARM.exidx.text._ZNSt3__212basic_stringIcNS_11char_traitsIcEENS_9allocatorIcEEE7replaceEjjjc) refers (Special) to _printf_f.o(.ARM.Collect$$_printf_percent$$00000003) for _printf_f
    string.cpp.o(.ARM.exidx.text._ZNSt3__212basic_stringIcNS_11char_traitsIcEENS_9allocatorIcEEE7replaceEjjjc) refers (Special) to printf1.o(x$fpl$printf1) for _printf_fp_dec
    string.cpp.o(.ARM.exidx.text._ZNSt3__212basic_stringIcNS_11char_traitsIcEENS_9allocatorIcEEE7replaceEjjjc) refers (Special) to _printf_percent.o(.ARM.Collect$$_printf_percent$$00000000) for _printf_percent
    string.cpp.o(.ARM.exidx.text._ZNSt3__212basic_stringIcNS_11char_traitsIcEENS_9allocatorIcEEE7replaceEjjjc) refers (Special) to _printf_s.o(.ARM.Collect$$_printf_percent$$00000014) for _printf_s
    string.cpp.o(.ARM.exidx.text._ZNSt3__212basic_stringIcNS_11char_traitsIcEENS_9allocatorIcEEE7replaceEjjjc) refers (Special) to _printf_str.o(.text) for _printf_str
    string.cpp.o(.ARM.exidx.text._ZNSt3__212basic_stringIcNS_11char_traitsIcEENS_9allocatorIcEEE7replaceEjjjc) refers to string.cpp.o(.text._ZNSt3__212basic_stringIcNS_11char_traitsIcEENS_9allocatorIcEEE7replaceEjjjc) for [Anonymous Symbol]
    string.cpp.o(.text._ZNSt3__212basic_stringIcNS_11char_traitsIcEENS_9allocatorIcEEE17__assign_externalEPKcj) refers (Special) to _printf_f.o(.ARM.Collect$$_printf_percent$$00000003) for _printf_f
    string.cpp.o(.text._ZNSt3__212basic_stringIcNS_11char_traitsIcEENS_9allocatorIcEEE17__assign_externalEPKcj) refers (Special) to printf1.o(x$fpl$printf1) for _printf_fp_dec
    string.cpp.o(.text._ZNSt3__212basic_stringIcNS_11char_traitsIcEENS_9allocatorIcEEE17__assign_externalEPKcj) refers (Special) to _printf_percent.o(.ARM.Collect$$_printf_percent$$00000000) for _printf_percent
    string.cpp.o(.text._ZNSt3__212basic_stringIcNS_11char_traitsIcEENS_9allocatorIcEEE17__assign_externalEPKcj) refers (Special) to _printf_s.o(.ARM.Collect$$_printf_percent$$00000014) for _printf_s
    string.cpp.o(.text._ZNSt3__212basic_stringIcNS_11char_traitsIcEENS_9allocatorIcEEE17__assign_externalEPKcj) refers (Special) to _printf_str.o(.text) for _printf_str
    string.cpp.o(.text._ZNSt3__212basic_stringIcNS_11char_traitsIcEENS_9allocatorIcEEE17__assign_externalEPKcj) refers to string.cpp.o(.text._ZNSt3__212basic_stringIcNS_11char_traitsIcEENS_9allocatorIcEEE21__grow_by_and_replaceEjjjjjjPKc) for std::__2::basic_string<char, std::__2::char_traits<char>, std::__2::allocator<char> >::__grow_by_and_replace(unsigned int, unsigned int, unsigned int, unsigned int, unsigned int, unsigned int, char const*)
    string.cpp.o(.text._ZNSt3__212basic_stringIcNS_11char_traitsIcEENS_9allocatorIcEEE17__assign_externalEPKcj) refers to rt_memmove_v6.o(.text) for __aeabi_memmove
    string.cpp.o(.ARM.exidx.text._ZNSt3__212basic_stringIcNS_11char_traitsIcEENS_9allocatorIcEEE17__assign_externalEPKcj) refers (Special) to _printf_f.o(.ARM.Collect$$_printf_percent$$00000003) for _printf_f
    string.cpp.o(.ARM.exidx.text._ZNSt3__212basic_stringIcNS_11char_traitsIcEENS_9allocatorIcEEE17__assign_externalEPKcj) refers (Special) to printf1.o(x$fpl$printf1) for _printf_fp_dec
    string.cpp.o(.ARM.exidx.text._ZNSt3__212basic_stringIcNS_11char_traitsIcEENS_9allocatorIcEEE17__assign_externalEPKcj) refers (Special) to _printf_percent.o(.ARM.Collect$$_printf_percent$$00000000) for _printf_percent
    string.cpp.o(.ARM.exidx.text._ZNSt3__212basic_stringIcNS_11char_traitsIcEENS_9allocatorIcEEE17__assign_externalEPKcj) refers (Special) to _printf_s.o(.ARM.Collect$$_printf_percent$$00000014) for _printf_s
    string.cpp.o(.ARM.exidx.text._ZNSt3__212basic_stringIcNS_11char_traitsIcEENS_9allocatorIcEEE17__assign_externalEPKcj) refers (Special) to _printf_str.o(.text) for _printf_str
    string.cpp.o(.ARM.exidx.text._ZNSt3__212basic_stringIcNS_11char_traitsIcEENS_9allocatorIcEEE17__assign_externalEPKcj) refers to string.cpp.o(.text._ZNSt3__212basic_stringIcNS_11char_traitsIcEENS_9allocatorIcEEE17__assign_externalEPKcj) for [Anonymous Symbol]
    string.cpp.o(.text._ZNSt3__212basic_stringIcNS_11char_traitsIcEENS_9allocatorIcEEE17__assign_externalEPKc) refers (Special) to _printf_f.o(.ARM.Collect$$_printf_percent$$00000003) for _printf_f
    string.cpp.o(.text._ZNSt3__212basic_stringIcNS_11char_traitsIcEENS_9allocatorIcEEE17__assign_externalEPKc) refers (Special) to printf1.o(x$fpl$printf1) for _printf_fp_dec
    string.cpp.o(.text._ZNSt3__212basic_stringIcNS_11char_traitsIcEENS_9allocatorIcEEE17__assign_externalEPKc) refers (Special) to _printf_percent.o(.ARM.Collect$$_printf_percent$$00000000) for _printf_percent
    string.cpp.o(.text._ZNSt3__212basic_stringIcNS_11char_traitsIcEENS_9allocatorIcEEE17__assign_externalEPKc) refers (Special) to _printf_s.o(.ARM.Collect$$_printf_percent$$00000014) for _printf_s
    string.cpp.o(.text._ZNSt3__212basic_stringIcNS_11char_traitsIcEENS_9allocatorIcEEE17__assign_externalEPKc) refers (Special) to _printf_str.o(.text) for _printf_str
    string.cpp.o(.text._ZNSt3__212basic_stringIcNS_11char_traitsIcEENS_9allocatorIcEEE17__assign_externalEPKc) refers to strlen.o(.text) for strlen
    string.cpp.o(.text._ZNSt3__212basic_stringIcNS_11char_traitsIcEENS_9allocatorIcEEE17__assign_externalEPKc) refers to string.cpp.o(.text._ZNSt3__212basic_stringIcNS_11char_traitsIcEENS_9allocatorIcEEE17__assign_externalEPKcj) for std::__2::basic_string<char, std::__2::char_traits<char>, std::__2::allocator<char> >::__assign_external(char const*, unsigned int)
    string.cpp.o(.ARM.exidx.text._ZNSt3__212basic_stringIcNS_11char_traitsIcEENS_9allocatorIcEEE17__assign_externalEPKc) refers (Special) to _printf_f.o(.ARM.Collect$$_printf_percent$$00000003) for _printf_f
    string.cpp.o(.ARM.exidx.text._ZNSt3__212basic_stringIcNS_11char_traitsIcEENS_9allocatorIcEEE17__assign_externalEPKc) refers (Special) to printf1.o(x$fpl$printf1) for _printf_fp_dec
    string.cpp.o(.ARM.exidx.text._ZNSt3__212basic_stringIcNS_11char_traitsIcEENS_9allocatorIcEEE17__assign_externalEPKc) refers (Special) to _printf_percent.o(.ARM.Collect$$_printf_percent$$00000000) for _printf_percent
    string.cpp.o(.ARM.exidx.text._ZNSt3__212basic_stringIcNS_11char_traitsIcEENS_9allocatorIcEEE17__assign_externalEPKc) refers (Special) to _printf_s.o(.ARM.Collect$$_printf_percent$$00000014) for _printf_s
    string.cpp.o(.ARM.exidx.text._ZNSt3__212basic_stringIcNS_11char_traitsIcEENS_9allocatorIcEEE17__assign_externalEPKc) refers (Special) to _printf_str.o(.text) for _printf_str
    string.cpp.o(.ARM.exidx.text._ZNSt3__212basic_stringIcNS_11char_traitsIcEENS_9allocatorIcEEE17__assign_externalEPKc) refers to string.cpp.o(.text._ZNSt3__212basic_stringIcNS_11char_traitsIcEENS_9allocatorIcEEE17__assign_externalEPKc) for [Anonymous Symbol]
    string.cpp.o(.text._ZNSt3__212basic_stringIcNS_11char_traitsIcEENS_9allocatorIcEEE7reserveEj) refers (Special) to _printf_f.o(.ARM.Collect$$_printf_percent$$00000003) for _printf_f
    string.cpp.o(.text._ZNSt3__212basic_stringIcNS_11char_traitsIcEENS_9allocatorIcEEE7reserveEj) refers (Special) to printf1.o(x$fpl$printf1) for _printf_fp_dec
    string.cpp.o(.text._ZNSt3__212basic_stringIcNS_11char_traitsIcEENS_9allocatorIcEEE7reserveEj) refers (Special) to _printf_percent.o(.ARM.Collect$$_printf_percent$$00000000) for _printf_percent
    string.cpp.o(.text._ZNSt3__212basic_stringIcNS_11char_traitsIcEENS_9allocatorIcEEE7reserveEj) refers (Special) to _printf_s.o(.ARM.Collect$$_printf_percent$$00000014) for _printf_s
    string.cpp.o(.text._ZNSt3__212basic_stringIcNS_11char_traitsIcEENS_9allocatorIcEEE7reserveEj) refers (Special) to _printf_str.o(.text) for _printf_str
    string.cpp.o(.text._ZNSt3__212basic_stringIcNS_11char_traitsIcEENS_9allocatorIcEEE7reserveEj) refers to new.cpp.o(.text._Znwj) for operator new(unsigned int)
    string.cpp.o(.text._ZNSt3__212basic_stringIcNS_11char_traitsIcEENS_9allocatorIcEEE7reserveEj) refers to rt_memcpy_v6.o(.text) for __aeabi_memcpy
    string.cpp.o(.text._ZNSt3__212basic_stringIcNS_11char_traitsIcEENS_9allocatorIcEEE7reserveEj) refers to new.cpp.o(.text._ZdlPv) for operator delete(void*)
    string.cpp.o(.text._ZNSt3__212basic_stringIcNS_11char_traitsIcEENS_9allocatorIcEEE7reserveEj) refers to abort.o(.text) for abort
    string.cpp.o(.ARM.exidx.text._ZNSt3__212basic_stringIcNS_11char_traitsIcEENS_9allocatorIcEEE7reserveEj) refers (Special) to _printf_f.o(.ARM.Collect$$_printf_percent$$00000003) for _printf_f
    string.cpp.o(.ARM.exidx.text._ZNSt3__212basic_stringIcNS_11char_traitsIcEENS_9allocatorIcEEE7reserveEj) refers (Special) to printf1.o(x$fpl$printf1) for _printf_fp_dec
    string.cpp.o(.ARM.exidx.text._ZNSt3__212basic_stringIcNS_11char_traitsIcEENS_9allocatorIcEEE7reserveEj) refers (Special) to _printf_percent.o(.ARM.Collect$$_printf_percent$$00000000) for _printf_percent
    string.cpp.o(.ARM.exidx.text._ZNSt3__212basic_stringIcNS_11char_traitsIcEENS_9allocatorIcEEE7reserveEj) refers (Special) to _printf_s.o(.ARM.Collect$$_printf_percent$$00000014) for _printf_s
    string.cpp.o(.ARM.exidx.text._ZNSt3__212basic_stringIcNS_11char_traitsIcEENS_9allocatorIcEEE7reserveEj) refers (Special) to _printf_str.o(.text) for _printf_str
    string.cpp.o(.ARM.exidx.text._ZNSt3__212basic_stringIcNS_11char_traitsIcEENS_9allocatorIcEEE7reserveEj) refers to string.cpp.o(.text._ZNSt3__212basic_stringIcNS_11char_traitsIcEENS_9allocatorIcEEE7reserveEj) for [Anonymous Symbol]
    string.cpp.o(.text._ZNSt3__212basic_stringIcNS_11char_traitsIcEENS_9allocatorIcEEE6appendEPKcj) refers (Special) to _printf_f.o(.ARM.Collect$$_printf_percent$$00000003) for _printf_f
    string.cpp.o(.text._ZNSt3__212basic_stringIcNS_11char_traitsIcEENS_9allocatorIcEEE6appendEPKcj) refers (Special) to printf1.o(x$fpl$printf1) for _printf_fp_dec
    string.cpp.o(.text._ZNSt3__212basic_stringIcNS_11char_traitsIcEENS_9allocatorIcEEE6appendEPKcj) refers (Special) to _printf_percent.o(.ARM.Collect$$_printf_percent$$00000000) for _printf_percent
    string.cpp.o(.text._ZNSt3__212basic_stringIcNS_11char_traitsIcEENS_9allocatorIcEEE6appendEPKcj) refers (Special) to _printf_s.o(.ARM.Collect$$_printf_percent$$00000014) for _printf_s
    string.cpp.o(.text._ZNSt3__212basic_stringIcNS_11char_traitsIcEENS_9allocatorIcEEE6appendEPKcj) refers (Special) to _printf_str.o(.text) for _printf_str
    string.cpp.o(.text._ZNSt3__212basic_stringIcNS_11char_traitsIcEENS_9allocatorIcEEE6appendEPKcj) refers to string.cpp.o(.text._ZNSt3__212basic_stringIcNS_11char_traitsIcEENS_9allocatorIcEEE21__grow_by_and_replaceEjjjjjjPKc) for std::__2::basic_string<char, std::__2::char_traits<char>, std::__2::allocator<char> >::__grow_by_and_replace(unsigned int, unsigned int, unsigned int, unsigned int, unsigned int, unsigned int, char const*)
    string.cpp.o(.text._ZNSt3__212basic_stringIcNS_11char_traitsIcEENS_9allocatorIcEEE6appendEPKcj) refers to rt_memcpy_v6.o(.text) for __aeabi_memcpy
    string.cpp.o(.ARM.exidx.text._ZNSt3__212basic_stringIcNS_11char_traitsIcEENS_9allocatorIcEEE6appendEPKcj) refers (Special) to _printf_f.o(.ARM.Collect$$_printf_percent$$00000003) for _printf_f
    string.cpp.o(.ARM.exidx.text._ZNSt3__212basic_stringIcNS_11char_traitsIcEENS_9allocatorIcEEE6appendEPKcj) refers (Special) to printf1.o(x$fpl$printf1) for _printf_fp_dec
    string.cpp.o(.ARM.exidx.text._ZNSt3__212basic_stringIcNS_11char_traitsIcEENS_9allocatorIcEEE6appendEPKcj) refers (Special) to _printf_percent.o(.ARM.Collect$$_printf_percent$$00000000) for _printf_percent
    string.cpp.o(.ARM.exidx.text._ZNSt3__212basic_stringIcNS_11char_traitsIcEENS_9allocatorIcEEE6appendEPKcj) refers (Special) to _printf_s.o(.ARM.Collect$$_printf_percent$$00000014) for _printf_s
    string.cpp.o(.ARM.exidx.text._ZNSt3__212basic_stringIcNS_11char_traitsIcEENS_9allocatorIcEEE6appendEPKcj) refers (Special) to _printf_str.o(.text) for _printf_str
    string.cpp.o(.ARM.exidx.text._ZNSt3__212basic_stringIcNS_11char_traitsIcEENS_9allocatorIcEEE6appendEPKcj) refers to string.cpp.o(.text._ZNSt3__212basic_stringIcNS_11char_traitsIcEENS_9allocatorIcEEE6appendEPKcj) for [Anonymous Symbol]
    string.cpp.o(.text._ZNSt3__212basic_stringIcNS_11char_traitsIcEENS_9allocatorIcEEE6assignERKS5_jj) refers (Special) to _printf_f.o(.ARM.Collect$$_printf_percent$$00000003) for _printf_f
    string.cpp.o(.text._ZNSt3__212basic_stringIcNS_11char_traitsIcEENS_9allocatorIcEEE6assignERKS5_jj) refers (Special) to printf1.o(x$fpl$printf1) for _printf_fp_dec
    string.cpp.o(.text._ZNSt3__212basic_stringIcNS_11char_traitsIcEENS_9allocatorIcEEE6assignERKS5_jj) refers (Special) to _printf_percent.o(.ARM.Collect$$_printf_percent$$00000000) for _printf_percent
    string.cpp.o(.text._ZNSt3__212basic_stringIcNS_11char_traitsIcEENS_9allocatorIcEEE6assignERKS5_jj) refers (Special) to _printf_s.o(.ARM.Collect$$_printf_percent$$00000014) for _printf_s
    string.cpp.o(.text._ZNSt3__212basic_stringIcNS_11char_traitsIcEENS_9allocatorIcEEE6assignERKS5_jj) refers (Special) to _printf_str.o(.text) for _printf_str
    string.cpp.o(.text._ZNSt3__212basic_stringIcNS_11char_traitsIcEENS_9allocatorIcEEE6assignERKS5_jj) refers to string.cpp.o(.text._ZNSt3__212basic_stringIcNS_11char_traitsIcEENS_9allocatorIcEEE6assignEPKcj) for std::__2::basic_string<char, std::__2::char_traits<char>, std::__2::allocator<char> >::assign(char const*, unsigned int)
    string.cpp.o(.text._ZNSt3__212basic_stringIcNS_11char_traitsIcEENS_9allocatorIcEEE6assignERKS5_jj) refers to abort.o(.text) for abort
    string.cpp.o(.ARM.exidx.text._ZNSt3__212basic_stringIcNS_11char_traitsIcEENS_9allocatorIcEEE6assignERKS5_jj) refers (Special) to _printf_f.o(.ARM.Collect$$_printf_percent$$00000003) for _printf_f
    string.cpp.o(.ARM.exidx.text._ZNSt3__212basic_stringIcNS_11char_traitsIcEENS_9allocatorIcEEE6assignERKS5_jj) refers (Special) to printf1.o(x$fpl$printf1) for _printf_fp_dec
    string.cpp.o(.ARM.exidx.text._ZNSt3__212basic_stringIcNS_11char_traitsIcEENS_9allocatorIcEEE6assignERKS5_jj) refers (Special) to _printf_percent.o(.ARM.Collect$$_printf_percent$$00000000) for _printf_percent
    string.cpp.o(.ARM.exidx.text._ZNSt3__212basic_stringIcNS_11char_traitsIcEENS_9allocatorIcEEE6assignERKS5_jj) refers (Special) to _printf_s.o(.ARM.Collect$$_printf_percent$$00000014) for _printf_s
    string.cpp.o(.ARM.exidx.text._ZNSt3__212basic_stringIcNS_11char_traitsIcEENS_9allocatorIcEEE6assignERKS5_jj) refers (Special) to _printf_str.o(.text) for _printf_str
    string.cpp.o(.ARM.exidx.text._ZNSt3__212basic_stringIcNS_11char_traitsIcEENS_9allocatorIcEEE6assignERKS5_jj) refers to string.cpp.o(.text._ZNSt3__212basic_stringIcNS_11char_traitsIcEENS_9allocatorIcEEE6assignERKS5_jj) for [Anonymous Symbol]
    string.cpp.o(.text._ZNSt3__212basic_stringIcNS_11char_traitsIcEENS_9allocatorIcEEE6assignEPKcj) refers (Special) to _printf_f.o(.ARM.Collect$$_printf_percent$$00000003) for _printf_f
    string.cpp.o(.text._ZNSt3__212basic_stringIcNS_11char_traitsIcEENS_9allocatorIcEEE6assignEPKcj) refers (Special) to printf1.o(x$fpl$printf1) for _printf_fp_dec
    string.cpp.o(.text._ZNSt3__212basic_stringIcNS_11char_traitsIcEENS_9allocatorIcEEE6assignEPKcj) refers (Special) to _printf_percent.o(.ARM.Collect$$_printf_percent$$00000000) for _printf_percent
    string.cpp.o(.text._ZNSt3__212basic_stringIcNS_11char_traitsIcEENS_9allocatorIcEEE6assignEPKcj) refers (Special) to _printf_s.o(.ARM.Collect$$_printf_percent$$00000014) for _printf_s
    string.cpp.o(.text._ZNSt3__212basic_stringIcNS_11char_traitsIcEENS_9allocatorIcEEE6assignEPKcj) refers (Special) to _printf_str.o(.text) for _printf_str
    string.cpp.o(.text._ZNSt3__212basic_stringIcNS_11char_traitsIcEENS_9allocatorIcEEE6assignEPKcj) refers to string.cpp.o(.text._ZNSt3__212basic_stringIcNS_11char_traitsIcEENS_9allocatorIcEEE17__assign_externalEPKcj) for std::__2::basic_string<char, std::__2::char_traits<char>, std::__2::allocator<char> >::__assign_external(char const*, unsigned int)
    string.cpp.o(.ARM.exidx.text._ZNSt3__212basic_stringIcNS_11char_traitsIcEENS_9allocatorIcEEE6assignEPKcj) refers (Special) to _printf_f.o(.ARM.Collect$$_printf_percent$$00000003) for _printf_f
    string.cpp.o(.ARM.exidx.text._ZNSt3__212basic_stringIcNS_11char_traitsIcEENS_9allocatorIcEEE6assignEPKcj) refers (Special) to printf1.o(x$fpl$printf1) for _printf_fp_dec
    string.cpp.o(.ARM.exidx.text._ZNSt3__212basic_stringIcNS_11char_traitsIcEENS_9allocatorIcEEE6assignEPKcj) refers (Special) to _printf_percent.o(.ARM.Collect$$_printf_percent$$00000000) for _printf_percent
    string.cpp.o(.ARM.exidx.text._ZNSt3__212basic_stringIcNS_11char_traitsIcEENS_9allocatorIcEEE6assignEPKcj) refers (Special) to _printf_s.o(.ARM.Collect$$_printf_percent$$00000014) for _printf_s
    string.cpp.o(.ARM.exidx.text._ZNSt3__212basic_stringIcNS_11char_traitsIcEENS_9allocatorIcEEE6assignEPKcj) refers (Special) to _printf_str.o(.text) for _printf_str
    string.cpp.o(.ARM.exidx.text._ZNSt3__212basic_stringIcNS_11char_traitsIcEENS_9allocatorIcEEE6assignEPKcj) refers to string.cpp.o(.text._ZNSt3__212basic_stringIcNS_11char_traitsIcEENS_9allocatorIcEEE6assignEPKcj) for [Anonymous Symbol]
    string.cpp.o(.text._ZNKSt3__212basic_stringIcNS_11char_traitsIcEENS_9allocatorIcEEE4copyEPcjj) refers (Special) to _printf_f.o(.ARM.Collect$$_printf_percent$$00000003) for _printf_f
    string.cpp.o(.text._ZNKSt3__212basic_stringIcNS_11char_traitsIcEENS_9allocatorIcEEE4copyEPcjj) refers (Special) to printf1.o(x$fpl$printf1) for _printf_fp_dec
    string.cpp.o(.text._ZNKSt3__212basic_stringIcNS_11char_traitsIcEENS_9allocatorIcEEE4copyEPcjj) refers (Special) to _printf_percent.o(.ARM.Collect$$_printf_percent$$00000000) for _printf_percent
    string.cpp.o(.text._ZNKSt3__212basic_stringIcNS_11char_traitsIcEENS_9allocatorIcEEE4copyEPcjj) refers (Special) to _printf_s.o(.ARM.Collect$$_printf_percent$$00000014) for _printf_s
    string.cpp.o(.text._ZNKSt3__212basic_stringIcNS_11char_traitsIcEENS_9allocatorIcEEE4copyEPcjj) refers (Special) to _printf_str.o(.text) for _printf_str
    string.cpp.o(.text._ZNKSt3__212basic_stringIcNS_11char_traitsIcEENS_9allocatorIcEEE4copyEPcjj) refers to rt_memcpy_v6.o(.text) for __aeabi_memcpy
    string.cpp.o(.text._ZNKSt3__212basic_stringIcNS_11char_traitsIcEENS_9allocatorIcEEE4copyEPcjj) refers to abort.o(.text) for abort
    string.cpp.o(.ARM.exidx.text._ZNKSt3__212basic_stringIcNS_11char_traitsIcEENS_9allocatorIcEEE4copyEPcjj) refers (Special) to _printf_f.o(.ARM.Collect$$_printf_percent$$00000003) for _printf_f
    string.cpp.o(.ARM.exidx.text._ZNKSt3__212basic_stringIcNS_11char_traitsIcEENS_9allocatorIcEEE4copyEPcjj) refers (Special) to printf1.o(x$fpl$printf1) for _printf_fp_dec
    string.cpp.o(.ARM.exidx.text._ZNKSt3__212basic_stringIcNS_11char_traitsIcEENS_9allocatorIcEEE4copyEPcjj) refers (Special) to _printf_percent.o(.ARM.Collect$$_printf_percent$$00000000) for _printf_percent
    string.cpp.o(.ARM.exidx.text._ZNKSt3__212basic_stringIcNS_11char_traitsIcEENS_9allocatorIcEEE4copyEPcjj) refers (Special) to _printf_s.o(.ARM.Collect$$_printf_percent$$00000014) for _printf_s
    string.cpp.o(.ARM.exidx.text._ZNKSt3__212basic_stringIcNS_11char_traitsIcEENS_9allocatorIcEEE4copyEPcjj) refers (Special) to _printf_str.o(.text) for _printf_str
    string.cpp.o(.ARM.exidx.text._ZNKSt3__212basic_stringIcNS_11char_traitsIcEENS_9allocatorIcEEE4copyEPcjj) refers to string.cpp.o(.text._ZNKSt3__212basic_stringIcNS_11char_traitsIcEENS_9allocatorIcEEE4copyEPcjj) for [Anonymous Symbol]
    string.cpp.o(.text._ZNSt3__212basic_stringIcNS_11char_traitsIcEENS_9allocatorIcEEEC2ERKS5_jjRKS4_) refers (Special) to _printf_f.o(.ARM.Collect$$_printf_percent$$00000003) for _printf_f
    string.cpp.o(.text._ZNSt3__212basic_stringIcNS_11char_traitsIcEENS_9allocatorIcEEEC2ERKS5_jjRKS4_) refers (Special) to printf1.o(x$fpl$printf1) for _printf_fp_dec
    string.cpp.o(.text._ZNSt3__212basic_stringIcNS_11char_traitsIcEENS_9allocatorIcEEEC2ERKS5_jjRKS4_) refers (Special) to _printf_percent.o(.ARM.Collect$$_printf_percent$$00000000) for _printf_percent
    string.cpp.o(.text._ZNSt3__212basic_stringIcNS_11char_traitsIcEENS_9allocatorIcEEEC2ERKS5_jjRKS4_) refers (Special) to _printf_s.o(.ARM.Collect$$_printf_percent$$00000014) for _printf_s
    string.cpp.o(.text._ZNSt3__212basic_stringIcNS_11char_traitsIcEENS_9allocatorIcEEEC2ERKS5_jjRKS4_) refers (Special) to _printf_str.o(.text) for _printf_str
    string.cpp.o(.text._ZNSt3__212basic_stringIcNS_11char_traitsIcEENS_9allocatorIcEEEC2ERKS5_jjRKS4_) refers to new.cpp.o(.text._Znwj) for operator new(unsigned int)
    string.cpp.o(.text._ZNSt3__212basic_stringIcNS_11char_traitsIcEENS_9allocatorIcEEEC2ERKS5_jjRKS4_) refers to rt_memcpy_v6.o(.text) for __aeabi_memcpy
    string.cpp.o(.text._ZNSt3__212basic_stringIcNS_11char_traitsIcEENS_9allocatorIcEEEC2ERKS5_jjRKS4_) refers to abort.o(.text) for abort
    string.cpp.o(.ARM.exidx.text._ZNSt3__212basic_stringIcNS_11char_traitsIcEENS_9allocatorIcEEEC2ERKS5_jjRKS4_) refers (Special) to _printf_f.o(.ARM.Collect$$_printf_percent$$00000003) for _printf_f
    string.cpp.o(.ARM.exidx.text._ZNSt3__212basic_stringIcNS_11char_traitsIcEENS_9allocatorIcEEEC2ERKS5_jjRKS4_) refers (Special) to printf1.o(x$fpl$printf1) for _printf_fp_dec
    string.cpp.o(.ARM.exidx.text._ZNSt3__212basic_stringIcNS_11char_traitsIcEENS_9allocatorIcEEEC2ERKS5_jjRKS4_) refers (Special) to _printf_percent.o(.ARM.Collect$$_printf_percent$$00000000) for _printf_percent
    string.cpp.o(.ARM.exidx.text._ZNSt3__212basic_stringIcNS_11char_traitsIcEENS_9allocatorIcEEEC2ERKS5_jjRKS4_) refers (Special) to _printf_s.o(.ARM.Collect$$_printf_percent$$00000014) for _printf_s
    string.cpp.o(.ARM.exidx.text._ZNSt3__212basic_stringIcNS_11char_traitsIcEENS_9allocatorIcEEEC2ERKS5_jjRKS4_) refers (Special) to _printf_str.o(.text) for _printf_str
    string.cpp.o(.ARM.exidx.text._ZNSt3__212basic_stringIcNS_11char_traitsIcEENS_9allocatorIcEEEC2ERKS5_jjRKS4_) refers to string.cpp.o(.text._ZNSt3__212basic_stringIcNS_11char_traitsIcEENS_9allocatorIcEEEC2ERKS5_jjRKS4_) for [Anonymous Symbol]
    string.cpp.o(.text._ZNKSt3__212basic_stringIcNS_11char_traitsIcEENS_9allocatorIcEEE4findEcj) refers (Special) to _printf_f.o(.ARM.Collect$$_printf_percent$$00000003) for _printf_f
    string.cpp.o(.text._ZNKSt3__212basic_stringIcNS_11char_traitsIcEENS_9allocatorIcEEE4findEcj) refers (Special) to printf1.o(x$fpl$printf1) for _printf_fp_dec
    string.cpp.o(.text._ZNKSt3__212basic_stringIcNS_11char_traitsIcEENS_9allocatorIcEEE4findEcj) refers (Special) to _printf_percent.o(.ARM.Collect$$_printf_percent$$00000000) for _printf_percent
    string.cpp.o(.text._ZNKSt3__212basic_stringIcNS_11char_traitsIcEENS_9allocatorIcEEE4findEcj) refers (Special) to _printf_s.o(.ARM.Collect$$_printf_percent$$00000014) for _printf_s
    string.cpp.o(.text._ZNKSt3__212basic_stringIcNS_11char_traitsIcEENS_9allocatorIcEEE4findEcj) refers (Special) to _printf_str.o(.text) for _printf_str
    string.cpp.o(.text._ZNKSt3__212basic_stringIcNS_11char_traitsIcEENS_9allocatorIcEEE4findEcj) refers to memchr.o(.text) for memchr
    string.cpp.o(.ARM.exidx.text._ZNKSt3__212basic_stringIcNS_11char_traitsIcEENS_9allocatorIcEEE4findEcj) refers (Special) to _printf_f.o(.ARM.Collect$$_printf_percent$$00000003) for _printf_f
    string.cpp.o(.ARM.exidx.text._ZNKSt3__212basic_stringIcNS_11char_traitsIcEENS_9allocatorIcEEE4findEcj) refers (Special) to printf1.o(x$fpl$printf1) for _printf_fp_dec
    string.cpp.o(.ARM.exidx.text._ZNKSt3__212basic_stringIcNS_11char_traitsIcEENS_9allocatorIcEEE4findEcj) refers (Special) to _printf_percent.o(.ARM.Collect$$_printf_percent$$00000000) for _printf_percent
    string.cpp.o(.ARM.exidx.text._ZNKSt3__212basic_stringIcNS_11char_traitsIcEENS_9allocatorIcEEE4findEcj) refers (Special) to _printf_s.o(.ARM.Collect$$_printf_percent$$00000014) for _printf_s
    string.cpp.o(.ARM.exidx.text._ZNKSt3__212basic_stringIcNS_11char_traitsIcEENS_9allocatorIcEEE4findEcj) refers (Special) to _printf_str.o(.text) for _printf_str
    string.cpp.o(.ARM.exidx.text._ZNKSt3__212basic_stringIcNS_11char_traitsIcEENS_9allocatorIcEEE4findEcj) refers to string.cpp.o(.text._ZNKSt3__212basic_stringIcNS_11char_traitsIcEENS_9allocatorIcEEE4findEcj) for [Anonymous Symbol]
    string.cpp.o(.text._ZNSt3__212basic_stringIcNS_11char_traitsIcEENS_9allocatorIcEEE6__initEjc) refers (Special) to _printf_f.o(.ARM.Collect$$_printf_percent$$00000003) for _printf_f
    string.cpp.o(.text._ZNSt3__212basic_stringIcNS_11char_traitsIcEENS_9allocatorIcEEE6__initEjc) refers (Special) to printf1.o(x$fpl$printf1) for _printf_fp_dec
    string.cpp.o(.text._ZNSt3__212basic_stringIcNS_11char_traitsIcEENS_9allocatorIcEEE6__initEjc) refers (Special) to _printf_percent.o(.ARM.Collect$$_printf_percent$$00000000) for _printf_percent
    string.cpp.o(.text._ZNSt3__212basic_stringIcNS_11char_traitsIcEENS_9allocatorIcEEE6__initEjc) refers (Special) to _printf_s.o(.ARM.Collect$$_printf_percent$$00000014) for _printf_s
    string.cpp.o(.text._ZNSt3__212basic_stringIcNS_11char_traitsIcEENS_9allocatorIcEEE6__initEjc) refers (Special) to _printf_str.o(.text) for _printf_str
    string.cpp.o(.text._ZNSt3__212basic_stringIcNS_11char_traitsIcEENS_9allocatorIcEEE6__initEjc) refers to new.cpp.o(.text._Znwj) for operator new(unsigned int)
    string.cpp.o(.text._ZNSt3__212basic_stringIcNS_11char_traitsIcEENS_9allocatorIcEEE6__initEjc) refers to aeabi_memset.o(.text) for __aeabi_memset
    string.cpp.o(.text._ZNSt3__212basic_stringIcNS_11char_traitsIcEENS_9allocatorIcEEE6__initEjc) refers to abort.o(.text) for abort
    string.cpp.o(.ARM.exidx.text._ZNSt3__212basic_stringIcNS_11char_traitsIcEENS_9allocatorIcEEE6__initEjc) refers (Special) to _printf_f.o(.ARM.Collect$$_printf_percent$$00000003) for _printf_f
    string.cpp.o(.ARM.exidx.text._ZNSt3__212basic_stringIcNS_11char_traitsIcEENS_9allocatorIcEEE6__initEjc) refers (Special) to printf1.o(x$fpl$printf1) for _printf_fp_dec
    string.cpp.o(.ARM.exidx.text._ZNSt3__212basic_stringIcNS_11char_traitsIcEENS_9allocatorIcEEE6__initEjc) refers (Special) to _printf_percent.o(.ARM.Collect$$_printf_percent$$00000000) for _printf_percent
    string.cpp.o(.ARM.exidx.text._ZNSt3__212basic_stringIcNS_11char_traitsIcEENS_9allocatorIcEEE6__initEjc) refers (Special) to _printf_s.o(.ARM.Collect$$_printf_percent$$00000014) for _printf_s
    string.cpp.o(.ARM.exidx.text._ZNSt3__212basic_stringIcNS_11char_traitsIcEENS_9allocatorIcEEE6__initEjc) refers (Special) to _printf_str.o(.text) for _printf_str
    string.cpp.o(.ARM.exidx.text._ZNSt3__212basic_stringIcNS_11char_traitsIcEENS_9allocatorIcEEE6__initEjc) refers to string.cpp.o(.text._ZNSt3__212basic_stringIcNS_11char_traitsIcEENS_9allocatorIcEEE6__initEjc) for [Anonymous Symbol]
    string.cpp.o(.text._ZNSt3__212basic_stringIcNS_11char_traitsIcEENS_9allocatorIcEEE6insertEjPKc) refers (Special) to _printf_f.o(.ARM.Collect$$_printf_percent$$00000003) for _printf_f
    string.cpp.o(.text._ZNSt3__212basic_stringIcNS_11char_traitsIcEENS_9allocatorIcEEE6insertEjPKc) refers (Special) to printf1.o(x$fpl$printf1) for _printf_fp_dec
    string.cpp.o(.text._ZNSt3__212basic_stringIcNS_11char_traitsIcEENS_9allocatorIcEEE6insertEjPKc) refers (Special) to _printf_percent.o(.ARM.Collect$$_printf_percent$$00000000) for _printf_percent
    string.cpp.o(.text._ZNSt3__212basic_stringIcNS_11char_traitsIcEENS_9allocatorIcEEE6insertEjPKc) refers (Special) to _printf_s.o(.ARM.Collect$$_printf_percent$$00000014) for _printf_s
    string.cpp.o(.text._ZNSt3__212basic_stringIcNS_11char_traitsIcEENS_9allocatorIcEEE6insertEjPKc) refers (Special) to _printf_str.o(.text) for _printf_str
    string.cpp.o(.text._ZNSt3__212basic_stringIcNS_11char_traitsIcEENS_9allocatorIcEEE6insertEjPKc) refers to strlen.o(.text) for strlen
    string.cpp.o(.text._ZNSt3__212basic_stringIcNS_11char_traitsIcEENS_9allocatorIcEEE6insertEjPKc) refers to string.cpp.o(.text._ZNSt3__212basic_stringIcNS_11char_traitsIcEENS_9allocatorIcEEE6insertEjPKcj) for std::__2::basic_string<char, std::__2::char_traits<char>, std::__2::allocator<char> >::insert(unsigned int, char const*, unsigned int)
    string.cpp.o(.ARM.exidx.text._ZNSt3__212basic_stringIcNS_11char_traitsIcEENS_9allocatorIcEEE6insertEjPKc) refers (Special) to _printf_f.o(.ARM.Collect$$_printf_percent$$00000003) for _printf_f
    string.cpp.o(.ARM.exidx.text._ZNSt3__212basic_stringIcNS_11char_traitsIcEENS_9allocatorIcEEE6insertEjPKc) refers (Special) to printf1.o(x$fpl$printf1) for _printf_fp_dec
    string.cpp.o(.ARM.exidx.text._ZNSt3__212basic_stringIcNS_11char_traitsIcEENS_9allocatorIcEEE6insertEjPKc) refers (Special) to _printf_percent.o(.ARM.Collect$$_printf_percent$$00000000) for _printf_percent
    string.cpp.o(.ARM.exidx.text._ZNSt3__212basic_stringIcNS_11char_traitsIcEENS_9allocatorIcEEE6insertEjPKc) refers (Special) to _printf_s.o(.ARM.Collect$$_printf_percent$$00000014) for _printf_s
    string.cpp.o(.ARM.exidx.text._ZNSt3__212basic_stringIcNS_11char_traitsIcEENS_9allocatorIcEEE6insertEjPKc) refers (Special) to _printf_str.o(.text) for _printf_str
    string.cpp.o(.ARM.exidx.text._ZNSt3__212basic_stringIcNS_11char_traitsIcEENS_9allocatorIcEEE6insertEjPKc) refers to string.cpp.o(.text._ZNSt3__212basic_stringIcNS_11char_traitsIcEENS_9allocatorIcEEE6insertEjPKc) for [Anonymous Symbol]
    string.cpp.o(.text._ZNKSt3__212basic_stringIcNS_11char_traitsIcEENS_9allocatorIcEEE12find_last_ofEPKcjj) refers (Special) to _printf_f.o(.ARM.Collect$$_printf_percent$$00000003) for _printf_f
    string.cpp.o(.text._ZNKSt3__212basic_stringIcNS_11char_traitsIcEENS_9allocatorIcEEE12find_last_ofEPKcjj) refers (Special) to printf1.o(x$fpl$printf1) for _printf_fp_dec
    string.cpp.o(.text._ZNKSt3__212basic_stringIcNS_11char_traitsIcEENS_9allocatorIcEEE12find_last_ofEPKcjj) refers (Special) to _printf_percent.o(.ARM.Collect$$_printf_percent$$00000000) for _printf_percent
    string.cpp.o(.text._ZNKSt3__212basic_stringIcNS_11char_traitsIcEENS_9allocatorIcEEE12find_last_ofEPKcjj) refers (Special) to _printf_s.o(.ARM.Collect$$_printf_percent$$00000014) for _printf_s
    string.cpp.o(.text._ZNKSt3__212basic_stringIcNS_11char_traitsIcEENS_9allocatorIcEEE12find_last_ofEPKcjj) refers (Special) to _printf_str.o(.text) for _printf_str
    string.cpp.o(.text._ZNKSt3__212basic_stringIcNS_11char_traitsIcEENS_9allocatorIcEEE12find_last_ofEPKcjj) refers to memchr.o(.text) for memchr
    string.cpp.o(.ARM.exidx.text._ZNKSt3__212basic_stringIcNS_11char_traitsIcEENS_9allocatorIcEEE12find_last_ofEPKcjj) refers (Special) to _printf_f.o(.ARM.Collect$$_printf_percent$$00000003) for _printf_f
    string.cpp.o(.ARM.exidx.text._ZNKSt3__212basic_stringIcNS_11char_traitsIcEENS_9allocatorIcEEE12find_last_ofEPKcjj) refers (Special) to printf1.o(x$fpl$printf1) for _printf_fp_dec
    string.cpp.o(.ARM.exidx.text._ZNKSt3__212basic_stringIcNS_11char_traitsIcEENS_9allocatorIcEEE12find_last_ofEPKcjj) refers (Special) to _printf_percent.o(.ARM.Collect$$_printf_percent$$00000000) for _printf_percent
    string.cpp.o(.ARM.exidx.text._ZNKSt3__212basic_stringIcNS_11char_traitsIcEENS_9allocatorIcEEE12find_last_ofEPKcjj) refers (Special) to _printf_s.o(.ARM.Collect$$_printf_percent$$00000014) for _printf_s
    string.cpp.o(.ARM.exidx.text._ZNKSt3__212basic_stringIcNS_11char_traitsIcEENS_9allocatorIcEEE12find_last_ofEPKcjj) refers (Special) to _printf_str.o(.text) for _printf_str
    string.cpp.o(.ARM.exidx.text._ZNKSt3__212basic_stringIcNS_11char_traitsIcEENS_9allocatorIcEEE12find_last_ofEPKcjj) refers to string.cpp.o(.text._ZNKSt3__212basic_stringIcNS_11char_traitsIcEENS_9allocatorIcEEE12find_last_ofEPKcjj) for [Anonymous Symbol]
    string.cpp.o(.text._ZNSt3__212basic_stringIcNS_11char_traitsIcEENS_9allocatorIcEEE17__assign_no_aliasILb0EEERS5_PKcj) refers (Special) to _printf_f.o(.ARM.Collect$$_printf_percent$$00000003) for _printf_f
    string.cpp.o(.text._ZNSt3__212basic_stringIcNS_11char_traitsIcEENS_9allocatorIcEEE17__assign_no_aliasILb0EEERS5_PKcj) refers (Special) to printf1.o(x$fpl$printf1) for _printf_fp_dec
    string.cpp.o(.text._ZNSt3__212basic_stringIcNS_11char_traitsIcEENS_9allocatorIcEEE17__assign_no_aliasILb0EEERS5_PKcj) refers (Special) to _printf_percent.o(.ARM.Collect$$_printf_percent$$00000000) for _printf_percent
    string.cpp.o(.text._ZNSt3__212basic_stringIcNS_11char_traitsIcEENS_9allocatorIcEEE17__assign_no_aliasILb0EEERS5_PKcj) refers (Special) to _printf_s.o(.ARM.Collect$$_printf_percent$$00000014) for _printf_s
    string.cpp.o(.text._ZNSt3__212basic_stringIcNS_11char_traitsIcEENS_9allocatorIcEEE17__assign_no_aliasILb0EEERS5_PKcj) refers (Special) to _printf_str.o(.text) for _printf_str
    string.cpp.o(.text._ZNSt3__212basic_stringIcNS_11char_traitsIcEENS_9allocatorIcEEE17__assign_no_aliasILb0EEERS5_PKcj) refers to rt_memcpy_v6.o(.text) for __aeabi_memcpy
    string.cpp.o(.text._ZNSt3__212basic_stringIcNS_11char_traitsIcEENS_9allocatorIcEEE17__assign_no_aliasILb0EEERS5_PKcj) refers to string.cpp.o(.text._ZNSt3__212basic_stringIcNS_11char_traitsIcEENS_9allocatorIcEEE21__grow_by_and_replaceEjjjjjjPKc) for std::__2::basic_string<char, std::__2::char_traits<char>, std::__2::allocator<char> >::__grow_by_and_replace(unsigned int, unsigned int, unsigned int, unsigned int, unsigned int, unsigned int, char const*)
    string.cpp.o(.ARM.exidx.text._ZNSt3__212basic_stringIcNS_11char_traitsIcEENS_9allocatorIcEEE17__assign_no_aliasILb0EEERS5_PKcj) refers (Special) to _printf_f.o(.ARM.Collect$$_printf_percent$$00000003) for _printf_f
    string.cpp.o(.ARM.exidx.text._ZNSt3__212basic_stringIcNS_11char_traitsIcEENS_9allocatorIcEEE17__assign_no_aliasILb0EEERS5_PKcj) refers (Special) to printf1.o(x$fpl$printf1) for _printf_fp_dec
    string.cpp.o(.ARM.exidx.text._ZNSt3__212basic_stringIcNS_11char_traitsIcEENS_9allocatorIcEEE17__assign_no_aliasILb0EEERS5_PKcj) refers (Special) to _printf_percent.o(.ARM.Collect$$_printf_percent$$00000000) for _printf_percent
    string.cpp.o(.ARM.exidx.text._ZNSt3__212basic_stringIcNS_11char_traitsIcEENS_9allocatorIcEEE17__assign_no_aliasILb0EEERS5_PKcj) refers (Special) to _printf_s.o(.ARM.Collect$$_printf_percent$$00000014) for _printf_s
    string.cpp.o(.ARM.exidx.text._ZNSt3__212basic_stringIcNS_11char_traitsIcEENS_9allocatorIcEEE17__assign_no_aliasILb0EEERS5_PKcj) refers (Special) to _printf_str.o(.text) for _printf_str
    string.cpp.o(.ARM.exidx.text._ZNSt3__212basic_stringIcNS_11char_traitsIcEENS_9allocatorIcEEE17__assign_no_aliasILb0EEERS5_PKcj) refers to string.cpp.o(.text._ZNSt3__212basic_stringIcNS_11char_traitsIcEENS_9allocatorIcEEE17__assign_no_aliasILb0EEERS5_PKcj) for [Anonymous Symbol]
    string.cpp.o(.text._ZNSt3__212basic_stringIcNS_11char_traitsIcEENS_9allocatorIcEEE17__assign_no_aliasILb1EEERS5_PKcj) refers (Special) to _printf_f.o(.ARM.Collect$$_printf_percent$$00000003) for _printf_f
    string.cpp.o(.text._ZNSt3__212basic_stringIcNS_11char_traitsIcEENS_9allocatorIcEEE17__assign_no_aliasILb1EEERS5_PKcj) refers (Special) to printf1.o(x$fpl$printf1) for _printf_fp_dec
    string.cpp.o(.text._ZNSt3__212basic_stringIcNS_11char_traitsIcEENS_9allocatorIcEEE17__assign_no_aliasILb1EEERS5_PKcj) refers (Special) to _printf_percent.o(.ARM.Collect$$_printf_percent$$00000000) for _printf_percent
    string.cpp.o(.text._ZNSt3__212basic_stringIcNS_11char_traitsIcEENS_9allocatorIcEEE17__assign_no_aliasILb1EEERS5_PKcj) refers (Special) to _printf_s.o(.ARM.Collect$$_printf_percent$$00000014) for _printf_s
    string.cpp.o(.text._ZNSt3__212basic_stringIcNS_11char_traitsIcEENS_9allocatorIcEEE17__assign_no_aliasILb1EEERS5_PKcj) refers (Special) to _printf_str.o(.text) for _printf_str
    string.cpp.o(.text._ZNSt3__212basic_stringIcNS_11char_traitsIcEENS_9allocatorIcEEE17__assign_no_aliasILb1EEERS5_PKcj) refers to rt_memcpy_v6.o(.text) for __aeabi_memcpy
    string.cpp.o(.text._ZNSt3__212basic_stringIcNS_11char_traitsIcEENS_9allocatorIcEEE17__assign_no_aliasILb1EEERS5_PKcj) refers to string.cpp.o(.text._ZNSt3__212basic_stringIcNS_11char_traitsIcEENS_9allocatorIcEEE21__grow_by_and_replaceEjjjjjjPKc) for std::__2::basic_string<char, std::__2::char_traits<char>, std::__2::allocator<char> >::__grow_by_and_replace(unsigned int, unsigned int, unsigned int, unsigned int, unsigned int, unsigned int, char const*)
    string.cpp.o(.ARM.exidx.text._ZNSt3__212basic_stringIcNS_11char_traitsIcEENS_9allocatorIcEEE17__assign_no_aliasILb1EEERS5_PKcj) refers (Special) to _printf_f.o(.ARM.Collect$$_printf_percent$$00000003) for _printf_f
    string.cpp.o(.ARM.exidx.text._ZNSt3__212basic_stringIcNS_11char_traitsIcEENS_9allocatorIcEEE17__assign_no_aliasILb1EEERS5_PKcj) refers (Special) to printf1.o(x$fpl$printf1) for _printf_fp_dec
    string.cpp.o(.ARM.exidx.text._ZNSt3__212basic_stringIcNS_11char_traitsIcEENS_9allocatorIcEEE17__assign_no_aliasILb1EEERS5_PKcj) refers (Special) to _printf_percent.o(.ARM.Collect$$_printf_percent$$00000000) for _printf_percent
    string.cpp.o(.ARM.exidx.text._ZNSt3__212basic_stringIcNS_11char_traitsIcEENS_9allocatorIcEEE17__assign_no_aliasILb1EEERS5_PKcj) refers (Special) to _printf_s.o(.ARM.Collect$$_printf_percent$$00000014) for _printf_s
    string.cpp.o(.ARM.exidx.text._ZNSt3__212basic_stringIcNS_11char_traitsIcEENS_9allocatorIcEEE17__assign_no_aliasILb1EEERS5_PKcj) refers (Special) to _printf_str.o(.text) for _printf_str
    string.cpp.o(.ARM.exidx.text._ZNSt3__212basic_stringIcNS_11char_traitsIcEENS_9allocatorIcEEE17__assign_no_aliasILb1EEERS5_PKcj) refers to string.cpp.o(.text._ZNSt3__212basic_stringIcNS_11char_traitsIcEENS_9allocatorIcEEE17__assign_no_aliasILb1EEERS5_PKcj) for [Anonymous Symbol]
    string.cpp.o(.text._ZNSt3__212basic_stringIcNS_11char_traitsIcEENS_9allocatorIcEEE9push_backEc) refers (Special) to _printf_f.o(.ARM.Collect$$_printf_percent$$00000003) for _printf_f
    string.cpp.o(.text._ZNSt3__212basic_stringIcNS_11char_traitsIcEENS_9allocatorIcEEE9push_backEc) refers (Special) to printf1.o(x$fpl$printf1) for _printf_fp_dec
    string.cpp.o(.text._ZNSt3__212basic_stringIcNS_11char_traitsIcEENS_9allocatorIcEEE9push_backEc) refers (Special) to _printf_percent.o(.ARM.Collect$$_printf_percent$$00000000) for _printf_percent
    string.cpp.o(.text._ZNSt3__212basic_stringIcNS_11char_traitsIcEENS_9allocatorIcEEE9push_backEc) refers (Special) to _printf_s.o(.ARM.Collect$$_printf_percent$$00000014) for _printf_s
    string.cpp.o(.text._ZNSt3__212basic_stringIcNS_11char_traitsIcEENS_9allocatorIcEEE9push_backEc) refers (Special) to _printf_str.o(.text) for _printf_str
    string.cpp.o(.text._ZNSt3__212basic_stringIcNS_11char_traitsIcEENS_9allocatorIcEEE9push_backEc) refers to string.cpp.o(.text._ZNSt3__212basic_stringIcNS_11char_traitsIcEENS_9allocatorIcEEE9__grow_byEjjjjjj) for std::__2::basic_string<char, std::__2::char_traits<char>, std::__2::allocator<char> >::__grow_by(unsigned int, unsigned int, unsigned int, unsigned int, unsigned int, unsigned int)
    string.cpp.o(.ARM.exidx.text._ZNSt3__212basic_stringIcNS_11char_traitsIcEENS_9allocatorIcEEE9push_backEc) refers (Special) to _printf_f.o(.ARM.Collect$$_printf_percent$$00000003) for _printf_f
    string.cpp.o(.ARM.exidx.text._ZNSt3__212basic_stringIcNS_11char_traitsIcEENS_9allocatorIcEEE9push_backEc) refers (Special) to printf1.o(x$fpl$printf1) for _printf_fp_dec
    string.cpp.o(.ARM.exidx.text._ZNSt3__212basic_stringIcNS_11char_traitsIcEENS_9allocatorIcEEE9push_backEc) refers (Special) to _printf_percent.o(.ARM.Collect$$_printf_percent$$00000000) for _printf_percent
    string.cpp.o(.ARM.exidx.text._ZNSt3__212basic_stringIcNS_11char_traitsIcEENS_9allocatorIcEEE9push_backEc) refers (Special) to _printf_s.o(.ARM.Collect$$_printf_percent$$00000014) for _printf_s
    string.cpp.o(.ARM.exidx.text._ZNSt3__212basic_stringIcNS_11char_traitsIcEENS_9allocatorIcEEE9push_backEc) refers (Special) to _printf_str.o(.text) for _printf_str
    string.cpp.o(.ARM.exidx.text._ZNSt3__212basic_stringIcNS_11char_traitsIcEENS_9allocatorIcEEE9push_backEc) refers to string.cpp.o(.text._ZNSt3__212basic_stringIcNS_11char_traitsIcEENS_9allocatorIcEEE9push_backEc) for [Anonymous Symbol]
    string.cpp.o(.text._ZNSt3__212basic_stringIcNS_11char_traitsIcEENS_9allocatorIcEEE6appendEjc) refers (Special) to _printf_f.o(.ARM.Collect$$_printf_percent$$00000003) for _printf_f
    string.cpp.o(.text._ZNSt3__212basic_stringIcNS_11char_traitsIcEENS_9allocatorIcEEE6appendEjc) refers (Special) to printf1.o(x$fpl$printf1) for _printf_fp_dec
    string.cpp.o(.text._ZNSt3__212basic_stringIcNS_11char_traitsIcEENS_9allocatorIcEEE6appendEjc) refers (Special) to _printf_percent.o(.ARM.Collect$$_printf_percent$$00000000) for _printf_percent
    string.cpp.o(.text._ZNSt3__212basic_stringIcNS_11char_traitsIcEENS_9allocatorIcEEE6appendEjc) refers (Special) to _printf_s.o(.ARM.Collect$$_printf_percent$$00000014) for _printf_s
    string.cpp.o(.text._ZNSt3__212basic_stringIcNS_11char_traitsIcEENS_9allocatorIcEEE6appendEjc) refers (Special) to _printf_str.o(.text) for _printf_str
    string.cpp.o(.text._ZNSt3__212basic_stringIcNS_11char_traitsIcEENS_9allocatorIcEEE6appendEjc) refers to string.cpp.o(.text._ZNSt3__212basic_stringIcNS_11char_traitsIcEENS_9allocatorIcEEE9__grow_byEjjjjjj) for std::__2::basic_string<char, std::__2::char_traits<char>, std::__2::allocator<char> >::__grow_by(unsigned int, unsigned int, unsigned int, unsigned int, unsigned int, unsigned int)
    string.cpp.o(.text._ZNSt3__212basic_stringIcNS_11char_traitsIcEENS_9allocatorIcEEE6appendEjc) refers to aeabi_memset.o(.text) for __aeabi_memset
    string.cpp.o(.ARM.exidx.text._ZNSt3__212basic_stringIcNS_11char_traitsIcEENS_9allocatorIcEEE6appendEjc) refers (Special) to _printf_f.o(.ARM.Collect$$_printf_percent$$00000003) for _printf_f
    string.cpp.o(.ARM.exidx.text._ZNSt3__212basic_stringIcNS_11char_traitsIcEENS_9allocatorIcEEE6appendEjc) refers (Special) to printf1.o(x$fpl$printf1) for _printf_fp_dec
    string.cpp.o(.ARM.exidx.text._ZNSt3__212basic_stringIcNS_11char_traitsIcEENS_9allocatorIcEEE6appendEjc) refers (Special) to _printf_percent.o(.ARM.Collect$$_printf_percent$$00000000) for _printf_percent
    string.cpp.o(.ARM.exidx.text._ZNSt3__212basic_stringIcNS_11char_traitsIcEENS_9allocatorIcEEE6appendEjc) refers (Special) to _printf_s.o(.ARM.Collect$$_printf_percent$$00000014) for _printf_s
    string.cpp.o(.ARM.exidx.text._ZNSt3__212basic_stringIcNS_11char_traitsIcEENS_9allocatorIcEEE6appendEjc) refers (Special) to _printf_str.o(.text) for _printf_str
    string.cpp.o(.ARM.exidx.text._ZNSt3__212basic_stringIcNS_11char_traitsIcEENS_9allocatorIcEEE6appendEjc) refers to string.cpp.o(.text._ZNSt3__212basic_stringIcNS_11char_traitsIcEENS_9allocatorIcEEE6appendEjc) for [Anonymous Symbol]
    string.cpp.o(.text._ZNKSt3__212basic_stringIcNS_11char_traitsIcEENS_9allocatorIcEEE5rfindEcj) refers (Special) to _printf_f.o(.ARM.Collect$$_printf_percent$$00000003) for _printf_f
    string.cpp.o(.text._ZNKSt3__212basic_stringIcNS_11char_traitsIcEENS_9allocatorIcEEE5rfindEcj) refers (Special) to printf1.o(x$fpl$printf1) for _printf_fp_dec
    string.cpp.o(.text._ZNKSt3__212basic_stringIcNS_11char_traitsIcEENS_9allocatorIcEEE5rfindEcj) refers (Special) to _printf_percent.o(.ARM.Collect$$_printf_percent$$00000000) for _printf_percent
    string.cpp.o(.text._ZNKSt3__212basic_stringIcNS_11char_traitsIcEENS_9allocatorIcEEE5rfindEcj) refers (Special) to _printf_s.o(.ARM.Collect$$_printf_percent$$00000014) for _printf_s
    string.cpp.o(.text._ZNKSt3__212basic_stringIcNS_11char_traitsIcEENS_9allocatorIcEEE5rfindEcj) refers (Special) to _printf_str.o(.text) for _printf_str
    string.cpp.o(.ARM.exidx.text._ZNKSt3__212basic_stringIcNS_11char_traitsIcEENS_9allocatorIcEEE5rfindEcj) refers (Special) to _printf_f.o(.ARM.Collect$$_printf_percent$$00000003) for _printf_f
    string.cpp.o(.ARM.exidx.text._ZNKSt3__212basic_stringIcNS_11char_traitsIcEENS_9allocatorIcEEE5rfindEcj) refers (Special) to printf1.o(x$fpl$printf1) for _printf_fp_dec
    string.cpp.o(.ARM.exidx.text._ZNKSt3__212basic_stringIcNS_11char_traitsIcEENS_9allocatorIcEEE5rfindEcj) refers (Special) to _printf_percent.o(.ARM.Collect$$_printf_percent$$00000000) for _printf_percent
    string.cpp.o(.ARM.exidx.text._ZNKSt3__212basic_stringIcNS_11char_traitsIcEENS_9allocatorIcEEE5rfindEcj) refers (Special) to _printf_s.o(.ARM.Collect$$_printf_percent$$00000014) for _printf_s
    string.cpp.o(.ARM.exidx.text._ZNKSt3__212basic_stringIcNS_11char_traitsIcEENS_9allocatorIcEEE5rfindEcj) refers (Special) to _printf_str.o(.text) for _printf_str
    string.cpp.o(.ARM.exidx.text._ZNKSt3__212basic_stringIcNS_11char_traitsIcEENS_9allocatorIcEEE5rfindEcj) refers to string.cpp.o(.text._ZNKSt3__212basic_stringIcNS_11char_traitsIcEENS_9allocatorIcEEE5rfindEcj) for [Anonymous Symbol]
    string.cpp.o(.text._ZNSt3__212basic_stringIcNS_11char_traitsIcEENS_9allocatorIcEEE6assignEjc) refers (Special) to _printf_f.o(.ARM.Collect$$_printf_percent$$00000003) for _printf_f
    string.cpp.o(.text._ZNSt3__212basic_stringIcNS_11char_traitsIcEENS_9allocatorIcEEE6assignEjc) refers (Special) to printf1.o(x$fpl$printf1) for _printf_fp_dec
    string.cpp.o(.text._ZNSt3__212basic_stringIcNS_11char_traitsIcEENS_9allocatorIcEEE6assignEjc) refers (Special) to _printf_percent.o(.ARM.Collect$$_printf_percent$$00000000) for _printf_percent
    string.cpp.o(.text._ZNSt3__212basic_stringIcNS_11char_traitsIcEENS_9allocatorIcEEE6assignEjc) refers (Special) to _printf_s.o(.ARM.Collect$$_printf_percent$$00000014) for _printf_s
    string.cpp.o(.text._ZNSt3__212basic_stringIcNS_11char_traitsIcEENS_9allocatorIcEEE6assignEjc) refers (Special) to _printf_str.o(.text) for _printf_str
    string.cpp.o(.text._ZNSt3__212basic_stringIcNS_11char_traitsIcEENS_9allocatorIcEEE6assignEjc) refers to string.cpp.o(.text._ZNSt3__212basic_stringIcNS_11char_traitsIcEENS_9allocatorIcEEE9__grow_byEjjjjjj) for std::__2::basic_string<char, std::__2::char_traits<char>, std::__2::allocator<char> >::__grow_by(unsigned int, unsigned int, unsigned int, unsigned int, unsigned int, unsigned int)
    string.cpp.o(.text._ZNSt3__212basic_stringIcNS_11char_traitsIcEENS_9allocatorIcEEE6assignEjc) refers to aeabi_memset.o(.text) for __aeabi_memset
    string.cpp.o(.ARM.exidx.text._ZNSt3__212basic_stringIcNS_11char_traitsIcEENS_9allocatorIcEEE6assignEjc) refers (Special) to _printf_f.o(.ARM.Collect$$_printf_percent$$00000003) for _printf_f
    string.cpp.o(.ARM.exidx.text._ZNSt3__212basic_stringIcNS_11char_traitsIcEENS_9allocatorIcEEE6assignEjc) refers (Special) to printf1.o(x$fpl$printf1) for _printf_fp_dec
    string.cpp.o(.ARM.exidx.text._ZNSt3__212basic_stringIcNS_11char_traitsIcEENS_9allocatorIcEEE6assignEjc) refers (Special) to _printf_percent.o(.ARM.Collect$$_printf_percent$$00000000) for _printf_percent
    string.cpp.o(.ARM.exidx.text._ZNSt3__212basic_stringIcNS_11char_traitsIcEENS_9allocatorIcEEE6assignEjc) refers (Special) to _printf_s.o(.ARM.Collect$$_printf_percent$$00000014) for _printf_s
    string.cpp.o(.ARM.exidx.text._ZNSt3__212basic_stringIcNS_11char_traitsIcEENS_9allocatorIcEEE6assignEjc) refers (Special) to _printf_str.o(.text) for _printf_str
    string.cpp.o(.ARM.exidx.text._ZNSt3__212basic_stringIcNS_11char_traitsIcEENS_9allocatorIcEEE6assignEjc) refers to string.cpp.o(.text._ZNSt3__212basic_stringIcNS_11char_traitsIcEENS_9allocatorIcEEE6assignEjc) for [Anonymous Symbol]
    string.cpp.o(.text._ZNSt3__212basic_stringIcNS_11char_traitsIcEENS_9allocatorIcEEE26__erase_external_with_moveEjj) refers (Special) to _printf_f.o(.ARM.Collect$$_printf_percent$$00000003) for _printf_f
    string.cpp.o(.text._ZNSt3__212basic_stringIcNS_11char_traitsIcEENS_9allocatorIcEEE26__erase_external_with_moveEjj) refers (Special) to printf1.o(x$fpl$printf1) for _printf_fp_dec
    string.cpp.o(.text._ZNSt3__212basic_stringIcNS_11char_traitsIcEENS_9allocatorIcEEE26__erase_external_with_moveEjj) refers (Special) to _printf_percent.o(.ARM.Collect$$_printf_percent$$00000000) for _printf_percent
    string.cpp.o(.text._ZNSt3__212basic_stringIcNS_11char_traitsIcEENS_9allocatorIcEEE26__erase_external_with_moveEjj) refers (Special) to _printf_s.o(.ARM.Collect$$_printf_percent$$00000014) for _printf_s
    string.cpp.o(.text._ZNSt3__212basic_stringIcNS_11char_traitsIcEENS_9allocatorIcEEE26__erase_external_with_moveEjj) refers (Special) to _printf_str.o(.text) for _printf_str
    string.cpp.o(.text._ZNSt3__212basic_stringIcNS_11char_traitsIcEENS_9allocatorIcEEE26__erase_external_with_moveEjj) refers to rt_memmove_v6.o(.text) for __aeabi_memmove
    string.cpp.o(.ARM.exidx.text._ZNSt3__212basic_stringIcNS_11char_traitsIcEENS_9allocatorIcEEE26__erase_external_with_moveEjj) refers (Special) to _printf_f.o(.ARM.Collect$$_printf_percent$$00000003) for _printf_f
    string.cpp.o(.ARM.exidx.text._ZNSt3__212basic_stringIcNS_11char_traitsIcEENS_9allocatorIcEEE26__erase_external_with_moveEjj) refers (Special) to printf1.o(x$fpl$printf1) for _printf_fp_dec
    string.cpp.o(.ARM.exidx.text._ZNSt3__212basic_stringIcNS_11char_traitsIcEENS_9allocatorIcEEE26__erase_external_with_moveEjj) refers (Special) to _printf_percent.o(.ARM.Collect$$_printf_percent$$00000000) for _printf_percent
    string.cpp.o(.ARM.exidx.text._ZNSt3__212basic_stringIcNS_11char_traitsIcEENS_9allocatorIcEEE26__erase_external_with_moveEjj) refers (Special) to _printf_s.o(.ARM.Collect$$_printf_percent$$00000014) for _printf_s
    string.cpp.o(.ARM.exidx.text._ZNSt3__212basic_stringIcNS_11char_traitsIcEENS_9allocatorIcEEE26__erase_external_with_moveEjj) refers (Special) to _printf_str.o(.text) for _printf_str
    string.cpp.o(.ARM.exidx.text._ZNSt3__212basic_stringIcNS_11char_traitsIcEENS_9allocatorIcEEE26__erase_external_with_moveEjj) refers to string.cpp.o(.text._ZNSt3__212basic_stringIcNS_11char_traitsIcEENS_9allocatorIcEEE26__erase_external_with_moveEjj) for [Anonymous Symbol]
    string.cpp.o(.text._ZNSt3__212basic_stringIcNS_11char_traitsIcEENS_9allocatorIcEEE6appendERKS5_jj) refers (Special) to _printf_f.o(.ARM.Collect$$_printf_percent$$00000003) for _printf_f
    string.cpp.o(.text._ZNSt3__212basic_stringIcNS_11char_traitsIcEENS_9allocatorIcEEE6appendERKS5_jj) refers (Special) to printf1.o(x$fpl$printf1) for _printf_fp_dec
    string.cpp.o(.text._ZNSt3__212basic_stringIcNS_11char_traitsIcEENS_9allocatorIcEEE6appendERKS5_jj) refers (Special) to _printf_percent.o(.ARM.Collect$$_printf_percent$$00000000) for _printf_percent
    string.cpp.o(.text._ZNSt3__212basic_stringIcNS_11char_traitsIcEENS_9allocatorIcEEE6appendERKS5_jj) refers (Special) to _printf_s.o(.ARM.Collect$$_printf_percent$$00000014) for _printf_s
    string.cpp.o(.text._ZNSt3__212basic_stringIcNS_11char_traitsIcEENS_9allocatorIcEEE6appendERKS5_jj) refers (Special) to _printf_str.o(.text) for _printf_str
    string.cpp.o(.text._ZNSt3__212basic_stringIcNS_11char_traitsIcEENS_9allocatorIcEEE6appendERKS5_jj) refers to string.cpp.o(.text._ZNSt3__212basic_stringIcNS_11char_traitsIcEENS_9allocatorIcEEE6appendEPKcj) for std::__2::basic_string<char, std::__2::char_traits<char>, std::__2::allocator<char> >::append(char const*, unsigned int)
    string.cpp.o(.text._ZNSt3__212basic_stringIcNS_11char_traitsIcEENS_9allocatorIcEEE6appendERKS5_jj) refers to abort.o(.text) for abort
    string.cpp.o(.ARM.exidx.text._ZNSt3__212basic_stringIcNS_11char_traitsIcEENS_9allocatorIcEEE6appendERKS5_jj) refers (Special) to _printf_f.o(.ARM.Collect$$_printf_percent$$00000003) for _printf_f
    string.cpp.o(.ARM.exidx.text._ZNSt3__212basic_stringIcNS_11char_traitsIcEENS_9allocatorIcEEE6appendERKS5_jj) refers (Special) to printf1.o(x$fpl$printf1) for _printf_fp_dec
    string.cpp.o(.ARM.exidx.text._ZNSt3__212basic_stringIcNS_11char_traitsIcEENS_9allocatorIcEEE6appendERKS5_jj) refers (Special) to _printf_percent.o(.ARM.Collect$$_printf_percent$$00000000) for _printf_percent
    string.cpp.o(.ARM.exidx.text._ZNSt3__212basic_stringIcNS_11char_traitsIcEENS_9allocatorIcEEE6appendERKS5_jj) refers (Special) to _printf_s.o(.ARM.Collect$$_printf_percent$$00000014) for _printf_s
    string.cpp.o(.ARM.exidx.text._ZNSt3__212basic_stringIcNS_11char_traitsIcEENS_9allocatorIcEEE6appendERKS5_jj) refers (Special) to _printf_str.o(.text) for _printf_str
    string.cpp.o(.ARM.exidx.text._ZNSt3__212basic_stringIcNS_11char_traitsIcEENS_9allocatorIcEEE6appendERKS5_jj) refers to string.cpp.o(.text._ZNSt3__212basic_stringIcNS_11char_traitsIcEENS_9allocatorIcEEE6appendERKS5_jj) for [Anonymous Symbol]
    string.cpp.o(.text._ZNKSt3__212basic_stringIcNS_11char_traitsIcEENS_9allocatorIcEEE7compareEPKc) refers (Special) to _printf_f.o(.ARM.Collect$$_printf_percent$$00000003) for _printf_f
    string.cpp.o(.text._ZNKSt3__212basic_stringIcNS_11char_traitsIcEENS_9allocatorIcEEE7compareEPKc) refers (Special) to printf1.o(x$fpl$printf1) for _printf_fp_dec
    string.cpp.o(.text._ZNKSt3__212basic_stringIcNS_11char_traitsIcEENS_9allocatorIcEEE7compareEPKc) refers (Special) to _printf_percent.o(.ARM.Collect$$_printf_percent$$00000000) for _printf_percent
    string.cpp.o(.text._ZNKSt3__212basic_stringIcNS_11char_traitsIcEENS_9allocatorIcEEE7compareEPKc) refers (Special) to _printf_s.o(.ARM.Collect$$_printf_percent$$00000014) for _printf_s
    string.cpp.o(.text._ZNKSt3__212basic_stringIcNS_11char_traitsIcEENS_9allocatorIcEEE7compareEPKc) refers (Special) to _printf_str.o(.text) for _printf_str
    string.cpp.o(.text._ZNKSt3__212basic_stringIcNS_11char_traitsIcEENS_9allocatorIcEEE7compareEPKc) refers to strlen.o(.text) for strlen
    string.cpp.o(.text._ZNKSt3__212basic_stringIcNS_11char_traitsIcEENS_9allocatorIcEEE7compareEPKc) refers to string.cpp.o(.text._ZNKSt3__212basic_stringIcNS_11char_traitsIcEENS_9allocatorIcEEE7compareEjjPKcj) for std::__2::basic_string<char, std::__2::char_traits<char>, std::__2::allocator<char> >::compare(unsigned int, unsigned int, char const*, unsigned int) const
    string.cpp.o(.ARM.exidx.text._ZNKSt3__212basic_stringIcNS_11char_traitsIcEENS_9allocatorIcEEE7compareEPKc) refers (Special) to _printf_f.o(.ARM.Collect$$_printf_percent$$00000003) for _printf_f
    string.cpp.o(.ARM.exidx.text._ZNKSt3__212basic_stringIcNS_11char_traitsIcEENS_9allocatorIcEEE7compareEPKc) refers (Special) to printf1.o(x$fpl$printf1) for _printf_fp_dec
    string.cpp.o(.ARM.exidx.text._ZNKSt3__212basic_stringIcNS_11char_traitsIcEENS_9allocatorIcEEE7compareEPKc) refers (Special) to _printf_percent.o(.ARM.Collect$$_printf_percent$$00000000) for _printf_percent
    string.cpp.o(.ARM.exidx.text._ZNKSt3__212basic_stringIcNS_11char_traitsIcEENS_9allocatorIcEEE7compareEPKc) refers (Special) to _printf_s.o(.ARM.Collect$$_printf_percent$$00000014) for _printf_s
    string.cpp.o(.ARM.exidx.text._ZNKSt3__212basic_stringIcNS_11char_traitsIcEENS_9allocatorIcEEE7compareEPKc) refers (Special) to _printf_str.o(.text) for _printf_str
    string.cpp.o(.ARM.exidx.text._ZNKSt3__212basic_stringIcNS_11char_traitsIcEENS_9allocatorIcEEE7compareEPKc) refers to string.cpp.o(.text._ZNKSt3__212basic_stringIcNS_11char_traitsIcEENS_9allocatorIcEEE7compareEPKc) for [Anonymous Symbol]
    string.cpp.o(.text._ZNKSt3__212basic_stringIcNS_11char_traitsIcEENS_9allocatorIcEEE7compareEjjPKcj) refers (Special) to _printf_f.o(.ARM.Collect$$_printf_percent$$00000003) for _printf_f
    string.cpp.o(.text._ZNKSt3__212basic_stringIcNS_11char_traitsIcEENS_9allocatorIcEEE7compareEjjPKcj) refers (Special) to printf1.o(x$fpl$printf1) for _printf_fp_dec
    string.cpp.o(.text._ZNKSt3__212basic_stringIcNS_11char_traitsIcEENS_9allocatorIcEEE7compareEjjPKcj) refers (Special) to _printf_percent.o(.ARM.Collect$$_printf_percent$$00000000) for _printf_percent
    string.cpp.o(.text._ZNKSt3__212basic_stringIcNS_11char_traitsIcEENS_9allocatorIcEEE7compareEjjPKcj) refers (Special) to _printf_s.o(.ARM.Collect$$_printf_percent$$00000014) for _printf_s
    string.cpp.o(.text._ZNKSt3__212basic_stringIcNS_11char_traitsIcEENS_9allocatorIcEEE7compareEjjPKcj) refers (Special) to _printf_str.o(.text) for _printf_str
    string.cpp.o(.text._ZNKSt3__212basic_stringIcNS_11char_traitsIcEENS_9allocatorIcEEE7compareEjjPKcj) refers to memcmp.o(.text) for memcmp
    string.cpp.o(.text._ZNKSt3__212basic_stringIcNS_11char_traitsIcEENS_9allocatorIcEEE7compareEjjPKcj) refers to abort.o(.text) for abort
    string.cpp.o(.ARM.exidx.text._ZNKSt3__212basic_stringIcNS_11char_traitsIcEENS_9allocatorIcEEE7compareEjjPKcj) refers (Special) to _printf_f.o(.ARM.Collect$$_printf_percent$$00000003) for _printf_f
    string.cpp.o(.ARM.exidx.text._ZNKSt3__212basic_stringIcNS_11char_traitsIcEENS_9allocatorIcEEE7compareEjjPKcj) refers (Special) to printf1.o(x$fpl$printf1) for _printf_fp_dec
    string.cpp.o(.ARM.exidx.text._ZNKSt3__212basic_stringIcNS_11char_traitsIcEENS_9allocatorIcEEE7compareEjjPKcj) refers (Special) to _printf_percent.o(.ARM.Collect$$_printf_percent$$00000000) for _printf_percent
    string.cpp.o(.ARM.exidx.text._ZNKSt3__212basic_stringIcNS_11char_traitsIcEENS_9allocatorIcEEE7compareEjjPKcj) refers (Special) to _printf_s.o(.ARM.Collect$$_printf_percent$$00000014) for _printf_s
    string.cpp.o(.ARM.exidx.text._ZNKSt3__212basic_stringIcNS_11char_traitsIcEENS_9allocatorIcEEE7compareEjjPKcj) refers (Special) to _printf_str.o(.text) for _printf_str
    string.cpp.o(.ARM.exidx.text._ZNKSt3__212basic_stringIcNS_11char_traitsIcEENS_9allocatorIcEEE7compareEjjPKcj) refers to string.cpp.o(.text._ZNKSt3__212basic_stringIcNS_11char_traitsIcEENS_9allocatorIcEEE7compareEjjPKcj) for [Anonymous Symbol]
    string.cpp.o(.text._ZNKSt3__212basic_stringIcNS_11char_traitsIcEENS_9allocatorIcEEE7compareEjjPKc) refers (Special) to _printf_f.o(.ARM.Collect$$_printf_percent$$00000003) for _printf_f
    string.cpp.o(.text._ZNKSt3__212basic_stringIcNS_11char_traitsIcEENS_9allocatorIcEEE7compareEjjPKc) refers (Special) to printf1.o(x$fpl$printf1) for _printf_fp_dec
    string.cpp.o(.text._ZNKSt3__212basic_stringIcNS_11char_traitsIcEENS_9allocatorIcEEE7compareEjjPKc) refers (Special) to _printf_percent.o(.ARM.Collect$$_printf_percent$$00000000) for _printf_percent
    string.cpp.o(.text._ZNKSt3__212basic_stringIcNS_11char_traitsIcEENS_9allocatorIcEEE7compareEjjPKc) refers (Special) to _printf_s.o(.ARM.Collect$$_printf_percent$$00000014) for _printf_s
    string.cpp.o(.text._ZNKSt3__212basic_stringIcNS_11char_traitsIcEENS_9allocatorIcEEE7compareEjjPKc) refers (Special) to _printf_str.o(.text) for _printf_str
    string.cpp.o(.text._ZNKSt3__212basic_stringIcNS_11char_traitsIcEENS_9allocatorIcEEE7compareEjjPKc) refers to strlen.o(.text) for strlen
    string.cpp.o(.text._ZNKSt3__212basic_stringIcNS_11char_traitsIcEENS_9allocatorIcEEE7compareEjjPKc) refers to string.cpp.o(.text._ZNKSt3__212basic_stringIcNS_11char_traitsIcEENS_9allocatorIcEEE7compareEjjPKcj) for std::__2::basic_string<char, std::__2::char_traits<char>, std::__2::allocator<char> >::compare(unsigned int, unsigned int, char const*, unsigned int) const
    string.cpp.o(.ARM.exidx.text._ZNKSt3__212basic_stringIcNS_11char_traitsIcEENS_9allocatorIcEEE7compareEjjPKc) refers (Special) to _printf_f.o(.ARM.Collect$$_printf_percent$$00000003) for _printf_f
    string.cpp.o(.ARM.exidx.text._ZNKSt3__212basic_stringIcNS_11char_traitsIcEENS_9allocatorIcEEE7compareEjjPKc) refers (Special) to printf1.o(x$fpl$printf1) for _printf_fp_dec
    string.cpp.o(.ARM.exidx.text._ZNKSt3__212basic_stringIcNS_11char_traitsIcEENS_9allocatorIcEEE7compareEjjPKc) refers (Special) to _printf_percent.o(.ARM.Collect$$_printf_percent$$00000000) for _printf_percent
    string.cpp.o(.ARM.exidx.text._ZNKSt3__212basic_stringIcNS_11char_traitsIcEENS_9allocatorIcEEE7compareEjjPKc) refers (Special) to _printf_s.o(.ARM.Collect$$_printf_percent$$00000014) for _printf_s
    string.cpp.o(.ARM.exidx.text._ZNKSt3__212basic_stringIcNS_11char_traitsIcEENS_9allocatorIcEEE7compareEjjPKc) refers (Special) to _printf_str.o(.text) for _printf_str
    string.cpp.o(.ARM.exidx.text._ZNKSt3__212basic_stringIcNS_11char_traitsIcEENS_9allocatorIcEEE7compareEjjPKc) refers to string.cpp.o(.text._ZNKSt3__212basic_stringIcNS_11char_traitsIcEENS_9allocatorIcEEE7compareEjjPKc) for [Anonymous Symbol]
    string.cpp.o(.text._ZNSt3__212basic_stringIcNS_11char_traitsIcEENS_9allocatorIcEEE2atEj) refers (Special) to _printf_f.o(.ARM.Collect$$_printf_percent$$00000003) for _printf_f
    string.cpp.o(.text._ZNSt3__212basic_stringIcNS_11char_traitsIcEENS_9allocatorIcEEE2atEj) refers (Special) to printf1.o(x$fpl$printf1) for _printf_fp_dec
    string.cpp.o(.text._ZNSt3__212basic_stringIcNS_11char_traitsIcEENS_9allocatorIcEEE2atEj) refers (Special) to _printf_percent.o(.ARM.Collect$$_printf_percent$$00000000) for _printf_percent
    string.cpp.o(.text._ZNSt3__212basic_stringIcNS_11char_traitsIcEENS_9allocatorIcEEE2atEj) refers (Special) to _printf_s.o(.ARM.Collect$$_printf_percent$$00000014) for _printf_s
    string.cpp.o(.text._ZNSt3__212basic_stringIcNS_11char_traitsIcEENS_9allocatorIcEEE2atEj) refers (Special) to _printf_str.o(.text) for _printf_str
    string.cpp.o(.text._ZNSt3__212basic_stringIcNS_11char_traitsIcEENS_9allocatorIcEEE2atEj) refers to abort.o(.text) for abort
    string.cpp.o(.ARM.exidx.text._ZNSt3__212basic_stringIcNS_11char_traitsIcEENS_9allocatorIcEEE2atEj) refers (Special) to _printf_f.o(.ARM.Collect$$_printf_percent$$00000003) for _printf_f
    string.cpp.o(.ARM.exidx.text._ZNSt3__212basic_stringIcNS_11char_traitsIcEENS_9allocatorIcEEE2atEj) refers (Special) to printf1.o(x$fpl$printf1) for _printf_fp_dec
    string.cpp.o(.ARM.exidx.text._ZNSt3__212basic_stringIcNS_11char_traitsIcEENS_9allocatorIcEEE2atEj) refers (Special) to _printf_percent.o(.ARM.Collect$$_printf_percent$$00000000) for _printf_percent
    string.cpp.o(.ARM.exidx.text._ZNSt3__212basic_stringIcNS_11char_traitsIcEENS_9allocatorIcEEE2atEj) refers (Special) to _printf_s.o(.ARM.Collect$$_printf_percent$$00000014) for _printf_s
    string.cpp.o(.ARM.exidx.text._ZNSt3__212basic_stringIcNS_11char_traitsIcEENS_9allocatorIcEEE2atEj) refers (Special) to _printf_str.o(.text) for _printf_str
    string.cpp.o(.ARM.exidx.text._ZNSt3__212basic_stringIcNS_11char_traitsIcEENS_9allocatorIcEEE2atEj) refers to string.cpp.o(.text._ZNSt3__212basic_stringIcNS_11char_traitsIcEENS_9allocatorIcEEE2atEj) for [Anonymous Symbol]
    string.cpp.o(.text._ZNKSt3__212basic_stringIcNS_11char_traitsIcEENS_9allocatorIcEEE4findEPKcjj) refers (Special) to _printf_f.o(.ARM.Collect$$_printf_percent$$00000003) for _printf_f
    string.cpp.o(.text._ZNKSt3__212basic_stringIcNS_11char_traitsIcEENS_9allocatorIcEEE4findEPKcjj) refers (Special) to printf1.o(x$fpl$printf1) for _printf_fp_dec
    string.cpp.o(.text._ZNKSt3__212basic_stringIcNS_11char_traitsIcEENS_9allocatorIcEEE4findEPKcjj) refers (Special) to _printf_percent.o(.ARM.Collect$$_printf_percent$$00000000) for _printf_percent
    string.cpp.o(.text._ZNKSt3__212basic_stringIcNS_11char_traitsIcEENS_9allocatorIcEEE4findEPKcjj) refers (Special) to _printf_s.o(.ARM.Collect$$_printf_percent$$00000014) for _printf_s
    string.cpp.o(.text._ZNKSt3__212basic_stringIcNS_11char_traitsIcEENS_9allocatorIcEEE4findEPKcjj) refers (Special) to _printf_str.o(.text) for _printf_str
    string.cpp.o(.text._ZNKSt3__212basic_stringIcNS_11char_traitsIcEENS_9allocatorIcEEE4findEPKcjj) refers to memchr.o(.text) for memchr
    string.cpp.o(.text._ZNKSt3__212basic_stringIcNS_11char_traitsIcEENS_9allocatorIcEEE4findEPKcjj) refers to memcmp.o(.text) for memcmp
    string.cpp.o(.ARM.exidx.text._ZNKSt3__212basic_stringIcNS_11char_traitsIcEENS_9allocatorIcEEE4findEPKcjj) refers (Special) to _printf_f.o(.ARM.Collect$$_printf_percent$$00000003) for _printf_f
    string.cpp.o(.ARM.exidx.text._ZNKSt3__212basic_stringIcNS_11char_traitsIcEENS_9allocatorIcEEE4findEPKcjj) refers (Special) to printf1.o(x$fpl$printf1) for _printf_fp_dec
    string.cpp.o(.ARM.exidx.text._ZNKSt3__212basic_stringIcNS_11char_traitsIcEENS_9allocatorIcEEE4findEPKcjj) refers (Special) to _printf_percent.o(.ARM.Collect$$_printf_percent$$00000000) for _printf_percent
    string.cpp.o(.ARM.exidx.text._ZNKSt3__212basic_stringIcNS_11char_traitsIcEENS_9allocatorIcEEE4findEPKcjj) refers (Special) to _printf_s.o(.ARM.Collect$$_printf_percent$$00000014) for _printf_s
    string.cpp.o(.ARM.exidx.text._ZNKSt3__212basic_stringIcNS_11char_traitsIcEENS_9allocatorIcEEE4findEPKcjj) refers (Special) to _printf_str.o(.text) for _printf_str
    string.cpp.o(.ARM.exidx.text._ZNKSt3__212basic_stringIcNS_11char_traitsIcEENS_9allocatorIcEEE4findEPKcjj) refers to string.cpp.o(.text._ZNKSt3__212basic_stringIcNS_11char_traitsIcEENS_9allocatorIcEEE4findEPKcjj) for [Anonymous Symbol]
    string.cpp.o(.text._ZNKSt3__212basic_stringIcNS_11char_traitsIcEENS_9allocatorIcEEE7compareEjjRKS5_jj) refers (Special) to _printf_f.o(.ARM.Collect$$_printf_percent$$00000003) for _printf_f
    string.cpp.o(.text._ZNKSt3__212basic_stringIcNS_11char_traitsIcEENS_9allocatorIcEEE7compareEjjRKS5_jj) refers (Special) to printf1.o(x$fpl$printf1) for _printf_fp_dec
    string.cpp.o(.text._ZNKSt3__212basic_stringIcNS_11char_traitsIcEENS_9allocatorIcEEE7compareEjjRKS5_jj) refers (Special) to _printf_percent.o(.ARM.Collect$$_printf_percent$$00000000) for _printf_percent
    string.cpp.o(.text._ZNKSt3__212basic_stringIcNS_11char_traitsIcEENS_9allocatorIcEEE7compareEjjRKS5_jj) refers (Special) to _printf_s.o(.ARM.Collect$$_printf_percent$$00000014) for _printf_s
    string.cpp.o(.text._ZNKSt3__212basic_stringIcNS_11char_traitsIcEENS_9allocatorIcEEE7compareEjjRKS5_jj) refers (Special) to _printf_str.o(.text) for _printf_str
    string.cpp.o(.text._ZNKSt3__212basic_stringIcNS_11char_traitsIcEENS_9allocatorIcEEE7compareEjjRKS5_jj) refers to string.cpp.o(.text._ZNKSt3__217basic_string_viewIcNS_11char_traitsIcEEE7compareES3_) for std::__2::basic_string_view<char, std::__2::char_traits<char> >::compare(std::__2::basic_string_view<char, std::__2::char_traits<char> >) const
    string.cpp.o(.text._ZNKSt3__212basic_stringIcNS_11char_traitsIcEENS_9allocatorIcEEE7compareEjjRKS5_jj) refers to abort.o(.text) for abort
    string.cpp.o(.ARM.exidx.text._ZNKSt3__212basic_stringIcNS_11char_traitsIcEENS_9allocatorIcEEE7compareEjjRKS5_jj) refers (Special) to _printf_f.o(.ARM.Collect$$_printf_percent$$00000003) for _printf_f
    string.cpp.o(.ARM.exidx.text._ZNKSt3__212basic_stringIcNS_11char_traitsIcEENS_9allocatorIcEEE7compareEjjRKS5_jj) refers (Special) to printf1.o(x$fpl$printf1) for _printf_fp_dec
    string.cpp.o(.ARM.exidx.text._ZNKSt3__212basic_stringIcNS_11char_traitsIcEENS_9allocatorIcEEE7compareEjjRKS5_jj) refers (Special) to _printf_percent.o(.ARM.Collect$$_printf_percent$$00000000) for _printf_percent
    string.cpp.o(.ARM.exidx.text._ZNKSt3__212basic_stringIcNS_11char_traitsIcEENS_9allocatorIcEEE7compareEjjRKS5_jj) refers (Special) to _printf_s.o(.ARM.Collect$$_printf_percent$$00000014) for _printf_s
    string.cpp.o(.ARM.exidx.text._ZNKSt3__212basic_stringIcNS_11char_traitsIcEENS_9allocatorIcEEE7compareEjjRKS5_jj) refers (Special) to _printf_str.o(.text) for _printf_str
    string.cpp.o(.ARM.exidx.text._ZNKSt3__212basic_stringIcNS_11char_traitsIcEENS_9allocatorIcEEE7compareEjjRKS5_jj) refers to string.cpp.o(.text._ZNKSt3__212basic_stringIcNS_11char_traitsIcEENS_9allocatorIcEEE7compareEjjRKS5_jj) for [Anonymous Symbol]
    string.cpp.o(.text._ZNSt3__212basic_stringIcNS_11char_traitsIcEENS_9allocatorIcEEE6appendEPKc) refers (Special) to _printf_f.o(.ARM.Collect$$_printf_percent$$00000003) for _printf_f
    string.cpp.o(.text._ZNSt3__212basic_stringIcNS_11char_traitsIcEENS_9allocatorIcEEE6appendEPKc) refers (Special) to printf1.o(x$fpl$printf1) for _printf_fp_dec
    string.cpp.o(.text._ZNSt3__212basic_stringIcNS_11char_traitsIcEENS_9allocatorIcEEE6appendEPKc) refers (Special) to _printf_percent.o(.ARM.Collect$$_printf_percent$$00000000) for _printf_percent
    string.cpp.o(.text._ZNSt3__212basic_stringIcNS_11char_traitsIcEENS_9allocatorIcEEE6appendEPKc) refers (Special) to _printf_s.o(.ARM.Collect$$_printf_percent$$00000014) for _printf_s
    string.cpp.o(.text._ZNSt3__212basic_stringIcNS_11char_traitsIcEENS_9allocatorIcEEE6appendEPKc) refers (Special) to _printf_str.o(.text) for _printf_str
    string.cpp.o(.text._ZNSt3__212basic_stringIcNS_11char_traitsIcEENS_9allocatorIcEEE6appendEPKc) refers to strlen.o(.text) for strlen
    string.cpp.o(.text._ZNSt3__212basic_stringIcNS_11char_traitsIcEENS_9allocatorIcEEE6appendEPKc) refers to string.cpp.o(.text._ZNSt3__212basic_stringIcNS_11char_traitsIcEENS_9allocatorIcEEE6appendEPKcj) for std::__2::basic_string<char, std::__2::char_traits<char>, std::__2::allocator<char> >::append(char const*, unsigned int)
    string.cpp.o(.ARM.exidx.text._ZNSt3__212basic_stringIcNS_11char_traitsIcEENS_9allocatorIcEEE6appendEPKc) refers (Special) to _printf_f.o(.ARM.Collect$$_printf_percent$$00000003) for _printf_f
    string.cpp.o(.ARM.exidx.text._ZNSt3__212basic_stringIcNS_11char_traitsIcEENS_9allocatorIcEEE6appendEPKc) refers (Special) to printf1.o(x$fpl$printf1) for _printf_fp_dec
    string.cpp.o(.ARM.exidx.text._ZNSt3__212basic_stringIcNS_11char_traitsIcEENS_9allocatorIcEEE6appendEPKc) refers (Special) to _printf_percent.o(.ARM.Collect$$_printf_percent$$00000000) for _printf_percent
    string.cpp.o(.ARM.exidx.text._ZNSt3__212basic_stringIcNS_11char_traitsIcEENS_9allocatorIcEEE6appendEPKc) refers (Special) to _printf_s.o(.ARM.Collect$$_printf_percent$$00000014) for _printf_s
    string.cpp.o(.ARM.exidx.text._ZNSt3__212basic_stringIcNS_11char_traitsIcEENS_9allocatorIcEEE6appendEPKc) refers (Special) to _printf_str.o(.text) for _printf_str
    string.cpp.o(.ARM.exidx.text._ZNSt3__212basic_stringIcNS_11char_traitsIcEENS_9allocatorIcEEE6appendEPKc) refers to string.cpp.o(.text._ZNSt3__212basic_stringIcNS_11char_traitsIcEENS_9allocatorIcEEE6appendEPKc) for [Anonymous Symbol]
    string.cpp.o(.text._ZNSt3__212basic_stringIcNS_11char_traitsIcEENS_9allocatorIcEEE7replaceEjjRKS5_jj) refers (Special) to _printf_f.o(.ARM.Collect$$_printf_percent$$00000003) for _printf_f
    string.cpp.o(.text._ZNSt3__212basic_stringIcNS_11char_traitsIcEENS_9allocatorIcEEE7replaceEjjRKS5_jj) refers (Special) to printf1.o(x$fpl$printf1) for _printf_fp_dec
    string.cpp.o(.text._ZNSt3__212basic_stringIcNS_11char_traitsIcEENS_9allocatorIcEEE7replaceEjjRKS5_jj) refers (Special) to _printf_percent.o(.ARM.Collect$$_printf_percent$$00000000) for _printf_percent
    string.cpp.o(.text._ZNSt3__212basic_stringIcNS_11char_traitsIcEENS_9allocatorIcEEE7replaceEjjRKS5_jj) refers (Special) to _printf_s.o(.ARM.Collect$$_printf_percent$$00000014) for _printf_s
    string.cpp.o(.text._ZNSt3__212basic_stringIcNS_11char_traitsIcEENS_9allocatorIcEEE7replaceEjjRKS5_jj) refers (Special) to _printf_str.o(.text) for _printf_str
    string.cpp.o(.text._ZNSt3__212basic_stringIcNS_11char_traitsIcEENS_9allocatorIcEEE7replaceEjjRKS5_jj) refers to string.cpp.o(.text._ZNSt3__212basic_stringIcNS_11char_traitsIcEENS_9allocatorIcEEE7replaceEjjPKcj) for std::__2::basic_string<char, std::__2::char_traits<char>, std::__2::allocator<char> >::replace(unsigned int, unsigned int, char const*, unsigned int)
    string.cpp.o(.text._ZNSt3__212basic_stringIcNS_11char_traitsIcEENS_9allocatorIcEEE7replaceEjjRKS5_jj) refers to abort.o(.text) for abort
    string.cpp.o(.ARM.exidx.text._ZNSt3__212basic_stringIcNS_11char_traitsIcEENS_9allocatorIcEEE7replaceEjjRKS5_jj) refers (Special) to _printf_f.o(.ARM.Collect$$_printf_percent$$00000003) for _printf_f
    string.cpp.o(.ARM.exidx.text._ZNSt3__212basic_stringIcNS_11char_traitsIcEENS_9allocatorIcEEE7replaceEjjRKS5_jj) refers (Special) to printf1.o(x$fpl$printf1) for _printf_fp_dec
    string.cpp.o(.ARM.exidx.text._ZNSt3__212basic_stringIcNS_11char_traitsIcEENS_9allocatorIcEEE7replaceEjjRKS5_jj) refers (Special) to _printf_percent.o(.ARM.Collect$$_printf_percent$$00000000) for _printf_percent
    string.cpp.o(.ARM.exidx.text._ZNSt3__212basic_stringIcNS_11char_traitsIcEENS_9allocatorIcEEE7replaceEjjRKS5_jj) refers (Special) to _printf_s.o(.ARM.Collect$$_printf_percent$$00000014) for _printf_s
    string.cpp.o(.ARM.exidx.text._ZNSt3__212basic_stringIcNS_11char_traitsIcEENS_9allocatorIcEEE7replaceEjjRKS5_jj) refers (Special) to _printf_str.o(.text) for _printf_str
    string.cpp.o(.ARM.exidx.text._ZNSt3__212basic_stringIcNS_11char_traitsIcEENS_9allocatorIcEEE7replaceEjjRKS5_jj) refers to string.cpp.o(.text._ZNSt3__212basic_stringIcNS_11char_traitsIcEENS_9allocatorIcEEE7replaceEjjRKS5_jj) for [Anonymous Symbol]
    string.cpp.o(.text._ZNSt3__212basic_stringIcNS_11char_traitsIcEENS_9allocatorIcEEE6insertENS_11__wrap_iterIPKcEEc) refers (Special) to _printf_f.o(.ARM.Collect$$_printf_percent$$00000003) for _printf_f
    string.cpp.o(.text._ZNSt3__212basic_stringIcNS_11char_traitsIcEENS_9allocatorIcEEE6insertENS_11__wrap_iterIPKcEEc) refers (Special) to printf1.o(x$fpl$printf1) for _printf_fp_dec
    string.cpp.o(.text._ZNSt3__212basic_stringIcNS_11char_traitsIcEENS_9allocatorIcEEE6insertENS_11__wrap_iterIPKcEEc) refers (Special) to _printf_percent.o(.ARM.Collect$$_printf_percent$$00000000) for _printf_percent
    string.cpp.o(.text._ZNSt3__212basic_stringIcNS_11char_traitsIcEENS_9allocatorIcEEE6insertENS_11__wrap_iterIPKcEEc) refers (Special) to _printf_s.o(.ARM.Collect$$_printf_percent$$00000014) for _printf_s
    string.cpp.o(.text._ZNSt3__212basic_stringIcNS_11char_traitsIcEENS_9allocatorIcEEE6insertENS_11__wrap_iterIPKcEEc) refers (Special) to _printf_str.o(.text) for _printf_str
    string.cpp.o(.text._ZNSt3__212basic_stringIcNS_11char_traitsIcEENS_9allocatorIcEEE6insertENS_11__wrap_iterIPKcEEc) refers to string.cpp.o(.text._ZNSt3__212basic_stringIcNS_11char_traitsIcEENS_9allocatorIcEEE9__grow_byEjjjjjj) for std::__2::basic_string<char, std::__2::char_traits<char>, std::__2::allocator<char> >::__grow_by(unsigned int, unsigned int, unsigned int, unsigned int, unsigned int, unsigned int)
    string.cpp.o(.text._ZNSt3__212basic_stringIcNS_11char_traitsIcEENS_9allocatorIcEEE6insertENS_11__wrap_iterIPKcEEc) refers to rt_memmove_v6.o(.text) for __aeabi_memmove
    string.cpp.o(.ARM.exidx.text._ZNSt3__212basic_stringIcNS_11char_traitsIcEENS_9allocatorIcEEE6insertENS_11__wrap_iterIPKcEEc) refers (Special) to _printf_f.o(.ARM.Collect$$_printf_percent$$00000003) for _printf_f
    string.cpp.o(.ARM.exidx.text._ZNSt3__212basic_stringIcNS_11char_traitsIcEENS_9allocatorIcEEE6insertENS_11__wrap_iterIPKcEEc) refers (Special) to printf1.o(x$fpl$printf1) for _printf_fp_dec
    string.cpp.o(.ARM.exidx.text._ZNSt3__212basic_stringIcNS_11char_traitsIcEENS_9allocatorIcEEE6insertENS_11__wrap_iterIPKcEEc) refers (Special) to _printf_percent.o(.ARM.Collect$$_printf_percent$$00000000) for _printf_percent
    string.cpp.o(.ARM.exidx.text._ZNSt3__212basic_stringIcNS_11char_traitsIcEENS_9allocatorIcEEE6insertENS_11__wrap_iterIPKcEEc) refers (Special) to _printf_s.o(.ARM.Collect$$_printf_percent$$00000014) for _printf_s
    string.cpp.o(.ARM.exidx.text._ZNSt3__212basic_stringIcNS_11char_traitsIcEENS_9allocatorIcEEE6insertENS_11__wrap_iterIPKcEEc) refers (Special) to _printf_str.o(.text) for _printf_str
    string.cpp.o(.ARM.exidx.text._ZNSt3__212basic_stringIcNS_11char_traitsIcEENS_9allocatorIcEEE6insertENS_11__wrap_iterIPKcEEc) refers to string.cpp.o(.text._ZNSt3__212basic_stringIcNS_11char_traitsIcEENS_9allocatorIcEEE6insertENS_11__wrap_iterIPKcEEc) for [Anonymous Symbol]
    string.cpp.o(.text._ZNSt3__212basic_stringIcNS_11char_traitsIcEENS_9allocatorIcEEE6resizeEjc) refers (Special) to _printf_f.o(.ARM.Collect$$_printf_percent$$00000003) for _printf_f
    string.cpp.o(.text._ZNSt3__212basic_stringIcNS_11char_traitsIcEENS_9allocatorIcEEE6resizeEjc) refers (Special) to printf1.o(x$fpl$printf1) for _printf_fp_dec
    string.cpp.o(.text._ZNSt3__212basic_stringIcNS_11char_traitsIcEENS_9allocatorIcEEE6resizeEjc) refers (Special) to _printf_percent.o(.ARM.Collect$$_printf_percent$$00000000) for _printf_percent
    string.cpp.o(.text._ZNSt3__212basic_stringIcNS_11char_traitsIcEENS_9allocatorIcEEE6resizeEjc) refers (Special) to _printf_s.o(.ARM.Collect$$_printf_percent$$00000014) for _printf_s
    string.cpp.o(.text._ZNSt3__212basic_stringIcNS_11char_traitsIcEENS_9allocatorIcEEE6resizeEjc) refers (Special) to _printf_str.o(.text) for _printf_str
    string.cpp.o(.text._ZNSt3__212basic_stringIcNS_11char_traitsIcEENS_9allocatorIcEEE6resizeEjc) refers to string.cpp.o(.text._ZNSt3__212basic_stringIcNS_11char_traitsIcEENS_9allocatorIcEEE6appendEjc) for std::__2::basic_string<char, std::__2::char_traits<char>, std::__2::allocator<char> >::append(unsigned int, char)
    string.cpp.o(.ARM.exidx.text._ZNSt3__212basic_stringIcNS_11char_traitsIcEENS_9allocatorIcEEE6resizeEjc) refers (Special) to _printf_f.o(.ARM.Collect$$_printf_percent$$00000003) for _printf_f
    string.cpp.o(.ARM.exidx.text._ZNSt3__212basic_stringIcNS_11char_traitsIcEENS_9allocatorIcEEE6resizeEjc) refers (Special) to printf1.o(x$fpl$printf1) for _printf_fp_dec
    string.cpp.o(.ARM.exidx.text._ZNSt3__212basic_stringIcNS_11char_traitsIcEENS_9allocatorIcEEE6resizeEjc) refers (Special) to _printf_percent.o(.ARM.Collect$$_printf_percent$$00000000) for _printf_percent
    string.cpp.o(.ARM.exidx.text._ZNSt3__212basic_stringIcNS_11char_traitsIcEENS_9allocatorIcEEE6resizeEjc) refers (Special) to _printf_s.o(.ARM.Collect$$_printf_percent$$00000014) for _printf_s
    string.cpp.o(.ARM.exidx.text._ZNSt3__212basic_stringIcNS_11char_traitsIcEENS_9allocatorIcEEE6resizeEjc) refers (Special) to _printf_str.o(.text) for _printf_str
    string.cpp.o(.ARM.exidx.text._ZNSt3__212basic_stringIcNS_11char_traitsIcEENS_9allocatorIcEEE6resizeEjc) refers to string.cpp.o(.text._ZNSt3__212basic_stringIcNS_11char_traitsIcEENS_9allocatorIcEEE6resizeEjc) for [Anonymous Symbol]
    string.cpp.o(.text._ZNSt3__212basic_stringIcNS_11char_traitsIcEENS_9allocatorIcEEE6insertEjRKS5_jj) refers (Special) to _printf_f.o(.ARM.Collect$$_printf_percent$$00000003) for _printf_f
    string.cpp.o(.text._ZNSt3__212basic_stringIcNS_11char_traitsIcEENS_9allocatorIcEEE6insertEjRKS5_jj) refers (Special) to printf1.o(x$fpl$printf1) for _printf_fp_dec
    string.cpp.o(.text._ZNSt3__212basic_stringIcNS_11char_traitsIcEENS_9allocatorIcEEE6insertEjRKS5_jj) refers (Special) to _printf_percent.o(.ARM.Collect$$_printf_percent$$00000000) for _printf_percent
    string.cpp.o(.text._ZNSt3__212basic_stringIcNS_11char_traitsIcEENS_9allocatorIcEEE6insertEjRKS5_jj) refers (Special) to _printf_s.o(.ARM.Collect$$_printf_percent$$00000014) for _printf_s
    string.cpp.o(.text._ZNSt3__212basic_stringIcNS_11char_traitsIcEENS_9allocatorIcEEE6insertEjRKS5_jj) refers (Special) to _printf_str.o(.text) for _printf_str
    string.cpp.o(.text._ZNSt3__212basic_stringIcNS_11char_traitsIcEENS_9allocatorIcEEE6insertEjRKS5_jj) refers to string.cpp.o(.text._ZNSt3__212basic_stringIcNS_11char_traitsIcEENS_9allocatorIcEEE6insertEjPKcj) for std::__2::basic_string<char, std::__2::char_traits<char>, std::__2::allocator<char> >::insert(unsigned int, char const*, unsigned int)
    string.cpp.o(.text._ZNSt3__212basic_stringIcNS_11char_traitsIcEENS_9allocatorIcEEE6insertEjRKS5_jj) refers to abort.o(.text) for abort
    string.cpp.o(.ARM.exidx.text._ZNSt3__212basic_stringIcNS_11char_traitsIcEENS_9allocatorIcEEE6insertEjRKS5_jj) refers (Special) to _printf_f.o(.ARM.Collect$$_printf_percent$$00000003) for _printf_f
    string.cpp.o(.ARM.exidx.text._ZNSt3__212basic_stringIcNS_11char_traitsIcEENS_9allocatorIcEEE6insertEjRKS5_jj) refers (Special) to printf1.o(x$fpl$printf1) for _printf_fp_dec
    string.cpp.o(.ARM.exidx.text._ZNSt3__212basic_stringIcNS_11char_traitsIcEENS_9allocatorIcEEE6insertEjRKS5_jj) refers (Special) to _printf_percent.o(.ARM.Collect$$_printf_percent$$00000000) for _printf_percent
    string.cpp.o(.ARM.exidx.text._ZNSt3__212basic_stringIcNS_11char_traitsIcEENS_9allocatorIcEEE6insertEjRKS5_jj) refers (Special) to _printf_s.o(.ARM.Collect$$_printf_percent$$00000014) for _printf_s
    string.cpp.o(.ARM.exidx.text._ZNSt3__212basic_stringIcNS_11char_traitsIcEENS_9allocatorIcEEE6insertEjRKS5_jj) refers (Special) to _printf_str.o(.text) for _printf_str
    string.cpp.o(.ARM.exidx.text._ZNSt3__212basic_stringIcNS_11char_traitsIcEENS_9allocatorIcEEE6insertEjRKS5_jj) refers to string.cpp.o(.text._ZNSt3__212basic_stringIcNS_11char_traitsIcEENS_9allocatorIcEEE6insertEjRKS5_jj) for [Anonymous Symbol]
    string.cpp.o(.text._ZNSt3__212basic_stringIwNS_11char_traitsIwEENS_9allocatorIwEEE7replaceEjjPKwj) refers (Special) to _printf_f.o(.ARM.Collect$$_printf_percent$$00000003) for _printf_f
    string.cpp.o(.text._ZNSt3__212basic_stringIwNS_11char_traitsIwEENS_9allocatorIwEEE7replaceEjjPKwj) refers (Special) to printf1.o(x$fpl$printf1) for _printf_fp_dec
    string.cpp.o(.text._ZNSt3__212basic_stringIwNS_11char_traitsIwEENS_9allocatorIwEEE7replaceEjjPKwj) refers (Special) to _printf_percent.o(.ARM.Collect$$_printf_percent$$00000000) for _printf_percent
    string.cpp.o(.text._ZNSt3__212basic_stringIwNS_11char_traitsIwEENS_9allocatorIwEEE7replaceEjjPKwj) refers (Special) to _printf_s.o(.ARM.Collect$$_printf_percent$$00000014) for _printf_s
    string.cpp.o(.text._ZNSt3__212basic_stringIwNS_11char_traitsIwEENS_9allocatorIwEEE7replaceEjjPKwj) refers (Special) to _printf_str.o(.text) for _printf_str
    string.cpp.o(.text._ZNSt3__212basic_stringIwNS_11char_traitsIwEENS_9allocatorIwEEE7replaceEjjPKwj) refers to string.cpp.o(.text._ZNSt3__212basic_stringIwNS_11char_traitsIwEENS_9allocatorIwEEE21__grow_by_and_replaceEjjjjjjPKw) for std::__2::basic_string<wchar_t, std::__2::char_traits<wchar_t>, std::__2::allocator<wchar_t> >::__grow_by_and_replace(unsigned int, unsigned int, unsigned int, unsigned int, unsigned int, unsigned int, wchar_t const*)
    string.cpp.o(.text._ZNSt3__212basic_stringIwNS_11char_traitsIwEENS_9allocatorIwEEE7replaceEjjPKwj) refers to wmemmove.o(.text) for wmemmove
    string.cpp.o(.text._ZNSt3__212basic_stringIwNS_11char_traitsIwEENS_9allocatorIwEEE7replaceEjjPKwj) refers to abort.o(.text) for abort
    string.cpp.o(.ARM.exidx.text._ZNSt3__212basic_stringIwNS_11char_traitsIwEENS_9allocatorIwEEE7replaceEjjPKwj) refers (Special) to _printf_f.o(.ARM.Collect$$_printf_percent$$00000003) for _printf_f
    string.cpp.o(.ARM.exidx.text._ZNSt3__212basic_stringIwNS_11char_traitsIwEENS_9allocatorIwEEE7replaceEjjPKwj) refers (Special) to printf1.o(x$fpl$printf1) for _printf_fp_dec
    string.cpp.o(.ARM.exidx.text._ZNSt3__212basic_stringIwNS_11char_traitsIwEENS_9allocatorIwEEE7replaceEjjPKwj) refers (Special) to _printf_percent.o(.ARM.Collect$$_printf_percent$$00000000) for _printf_percent
    string.cpp.o(.ARM.exidx.text._ZNSt3__212basic_stringIwNS_11char_traitsIwEENS_9allocatorIwEEE7replaceEjjPKwj) refers (Special) to _printf_s.o(.ARM.Collect$$_printf_percent$$00000014) for _printf_s
    string.cpp.o(.ARM.exidx.text._ZNSt3__212basic_stringIwNS_11char_traitsIwEENS_9allocatorIwEEE7replaceEjjPKwj) refers (Special) to _printf_str.o(.text) for _printf_str
    string.cpp.o(.ARM.exidx.text._ZNSt3__212basic_stringIwNS_11char_traitsIwEENS_9allocatorIwEEE7replaceEjjPKwj) refers to string.cpp.o(.text._ZNSt3__212basic_stringIwNS_11char_traitsIwEENS_9allocatorIwEEE7replaceEjjPKwj) for [Anonymous Symbol]
    string.cpp.o(.text._ZNSt3__212basic_stringIwNS_11char_traitsIwEENS_9allocatorIwEEE21__grow_by_and_replaceEjjjjjjPKw) refers (Special) to _printf_f.o(.ARM.Collect$$_printf_percent$$00000003) for _printf_f
    string.cpp.o(.text._ZNSt3__212basic_stringIwNS_11char_traitsIwEENS_9allocatorIwEEE21__grow_by_and_replaceEjjjjjjPKw) refers (Special) to printf1.o(x$fpl$printf1) for _printf_fp_dec
    string.cpp.o(.text._ZNSt3__212basic_stringIwNS_11char_traitsIwEENS_9allocatorIwEEE21__grow_by_and_replaceEjjjjjjPKw) refers (Special) to _printf_percent.o(.ARM.Collect$$_printf_percent$$00000000) for _printf_percent
    string.cpp.o(.text._ZNSt3__212basic_stringIwNS_11char_traitsIwEENS_9allocatorIwEEE21__grow_by_and_replaceEjjjjjjPKw) refers (Special) to _printf_s.o(.ARM.Collect$$_printf_percent$$00000014) for _printf_s
    string.cpp.o(.text._ZNSt3__212basic_stringIwNS_11char_traitsIwEENS_9allocatorIwEEE21__grow_by_and_replaceEjjjjjjPKw) refers (Special) to _printf_str.o(.text) for _printf_str
    string.cpp.o(.text._ZNSt3__212basic_stringIwNS_11char_traitsIwEENS_9allocatorIwEEE21__grow_by_and_replaceEjjjjjjPKw) refers to abort.o(.text) for abort
    string.cpp.o(.text._ZNSt3__212basic_stringIwNS_11char_traitsIwEENS_9allocatorIwEEE21__grow_by_and_replaceEjjjjjjPKw) refers to new.cpp.o(.text._Znwj) for operator new(unsigned int)
    string.cpp.o(.text._ZNSt3__212basic_stringIwNS_11char_traitsIwEENS_9allocatorIwEEE21__grow_by_and_replaceEjjjjjjPKw) refers to wmemcpy.o(.text) for wmemcpy
    string.cpp.o(.text._ZNSt3__212basic_stringIwNS_11char_traitsIwEENS_9allocatorIwEEE21__grow_by_and_replaceEjjjjjjPKw) refers to new.cpp.o(.text._ZdlPv) for operator delete(void*)
    string.cpp.o(.ARM.exidx.text._ZNSt3__212basic_stringIwNS_11char_traitsIwEENS_9allocatorIwEEE21__grow_by_and_replaceEjjjjjjPKw) refers (Special) to _printf_f.o(.ARM.Collect$$_printf_percent$$00000003) for _printf_f
    string.cpp.o(.ARM.exidx.text._ZNSt3__212basic_stringIwNS_11char_traitsIwEENS_9allocatorIwEEE21__grow_by_and_replaceEjjjjjjPKw) refers (Special) to printf1.o(x$fpl$printf1) for _printf_fp_dec
    string.cpp.o(.ARM.exidx.text._ZNSt3__212basic_stringIwNS_11char_traitsIwEENS_9allocatorIwEEE21__grow_by_and_replaceEjjjjjjPKw) refers (Special) to _printf_percent.o(.ARM.Collect$$_printf_percent$$00000000) for _printf_percent
    string.cpp.o(.ARM.exidx.text._ZNSt3__212basic_stringIwNS_11char_traitsIwEENS_9allocatorIwEEE21__grow_by_and_replaceEjjjjjjPKw) refers (Special) to _printf_s.o(.ARM.Collect$$_printf_percent$$00000014) for _printf_s
    string.cpp.o(.ARM.exidx.text._ZNSt3__212basic_stringIwNS_11char_traitsIwEENS_9allocatorIwEEE21__grow_by_and_replaceEjjjjjjPKw) refers (Special) to _printf_str.o(.text) for _printf_str
    string.cpp.o(.ARM.exidx.text._ZNSt3__212basic_stringIwNS_11char_traitsIwEENS_9allocatorIwEEE21__grow_by_and_replaceEjjjjjjPKw) refers to string.cpp.o(.text._ZNSt3__212basic_stringIwNS_11char_traitsIwEENS_9allocatorIwEEE21__grow_by_and_replaceEjjjjjjPKw) for [Anonymous Symbol]
    string.cpp.o(.text._ZNKSt3__212basic_stringIwNS_11char_traitsIwEENS_9allocatorIwEEE5rfindEPKwjj) refers (Special) to _printf_f.o(.ARM.Collect$$_printf_percent$$00000003) for _printf_f
    string.cpp.o(.text._ZNKSt3__212basic_stringIwNS_11char_traitsIwEENS_9allocatorIwEEE5rfindEPKwjj) refers (Special) to printf1.o(x$fpl$printf1) for _printf_fp_dec
    string.cpp.o(.text._ZNKSt3__212basic_stringIwNS_11char_traitsIwEENS_9allocatorIwEEE5rfindEPKwjj) refers (Special) to _printf_percent.o(.ARM.Collect$$_printf_percent$$00000000) for _printf_percent
    string.cpp.o(.text._ZNKSt3__212basic_stringIwNS_11char_traitsIwEENS_9allocatorIwEEE5rfindEPKwjj) refers (Special) to _printf_s.o(.ARM.Collect$$_printf_percent$$00000014) for _printf_s
    string.cpp.o(.text._ZNKSt3__212basic_stringIwNS_11char_traitsIwEENS_9allocatorIwEEE5rfindEPKwjj) refers (Special) to _printf_str.o(.text) for _printf_str
    string.cpp.o(.ARM.exidx.text._ZNKSt3__212basic_stringIwNS_11char_traitsIwEENS_9allocatorIwEEE5rfindEPKwjj) refers (Special) to _printf_f.o(.ARM.Collect$$_printf_percent$$00000003) for _printf_f
    string.cpp.o(.ARM.exidx.text._ZNKSt3__212basic_stringIwNS_11char_traitsIwEENS_9allocatorIwEEE5rfindEPKwjj) refers (Special) to printf1.o(x$fpl$printf1) for _printf_fp_dec
    string.cpp.o(.ARM.exidx.text._ZNKSt3__212basic_stringIwNS_11char_traitsIwEENS_9allocatorIwEEE5rfindEPKwjj) refers (Special) to _printf_percent.o(.ARM.Collect$$_printf_percent$$00000000) for _printf_percent
    string.cpp.o(.ARM.exidx.text._ZNKSt3__212basic_stringIwNS_11char_traitsIwEENS_9allocatorIwEEE5rfindEPKwjj) refers (Special) to _printf_s.o(.ARM.Collect$$_printf_percent$$00000014) for _printf_s
    string.cpp.o(.ARM.exidx.text._ZNKSt3__212basic_stringIwNS_11char_traitsIwEENS_9allocatorIwEEE5rfindEPKwjj) refers (Special) to _printf_str.o(.text) for _printf_str
    string.cpp.o(.ARM.exidx.text._ZNKSt3__212basic_stringIwNS_11char_traitsIwEENS_9allocatorIwEEE5rfindEPKwjj) refers to string.cpp.o(.text._ZNKSt3__212basic_stringIwNS_11char_traitsIwEENS_9allocatorIwEEE5rfindEPKwjj) for [Anonymous Symbol]
    string.cpp.o(.text._ZNSt3__212basic_stringIwNS_11char_traitsIwEENS_9allocatorIwEEE6__initEPKwjj) refers (Special) to _printf_f.o(.ARM.Collect$$_printf_percent$$00000003) for _printf_f
    string.cpp.o(.text._ZNSt3__212basic_stringIwNS_11char_traitsIwEENS_9allocatorIwEEE6__initEPKwjj) refers (Special) to printf1.o(x$fpl$printf1) for _printf_fp_dec
    string.cpp.o(.text._ZNSt3__212basic_stringIwNS_11char_traitsIwEENS_9allocatorIwEEE6__initEPKwjj) refers (Special) to _printf_percent.o(.ARM.Collect$$_printf_percent$$00000000) for _printf_percent
    string.cpp.o(.text._ZNSt3__212basic_stringIwNS_11char_traitsIwEENS_9allocatorIwEEE6__initEPKwjj) refers (Special) to _printf_s.o(.ARM.Collect$$_printf_percent$$00000014) for _printf_s
    string.cpp.o(.text._ZNSt3__212basic_stringIwNS_11char_traitsIwEENS_9allocatorIwEEE6__initEPKwjj) refers (Special) to _printf_str.o(.text) for _printf_str
    string.cpp.o(.text._ZNSt3__212basic_stringIwNS_11char_traitsIwEENS_9allocatorIwEEE6__initEPKwjj) refers to new.cpp.o(.text._Znwj) for operator new(unsigned int)
    string.cpp.o(.text._ZNSt3__212basic_stringIwNS_11char_traitsIwEENS_9allocatorIwEEE6__initEPKwjj) refers to wmemcpy.o(.text) for wmemcpy
    string.cpp.o(.text._ZNSt3__212basic_stringIwNS_11char_traitsIwEENS_9allocatorIwEEE6__initEPKwjj) refers to abort.o(.text) for abort
    string.cpp.o(.ARM.exidx.text._ZNSt3__212basic_stringIwNS_11char_traitsIwEENS_9allocatorIwEEE6__initEPKwjj) refers (Special) to _printf_f.o(.ARM.Collect$$_printf_percent$$00000003) for _printf_f
    string.cpp.o(.ARM.exidx.text._ZNSt3__212basic_stringIwNS_11char_traitsIwEENS_9allocatorIwEEE6__initEPKwjj) refers (Special) to printf1.o(x$fpl$printf1) for _printf_fp_dec
    string.cpp.o(.ARM.exidx.text._ZNSt3__212basic_stringIwNS_11char_traitsIwEENS_9allocatorIwEEE6__initEPKwjj) refers (Special) to _printf_percent.o(.ARM.Collect$$_printf_percent$$00000000) for _printf_percent
    string.cpp.o(.ARM.exidx.text._ZNSt3__212basic_stringIwNS_11char_traitsIwEENS_9allocatorIwEEE6__initEPKwjj) refers (Special) to _printf_s.o(.ARM.Collect$$_printf_percent$$00000014) for _printf_s
    string.cpp.o(.ARM.exidx.text._ZNSt3__212basic_stringIwNS_11char_traitsIwEENS_9allocatorIwEEE6__initEPKwjj) refers (Special) to _printf_str.o(.text) for _printf_str
    string.cpp.o(.ARM.exidx.text._ZNSt3__212basic_stringIwNS_11char_traitsIwEENS_9allocatorIwEEE6__initEPKwjj) refers to string.cpp.o(.text._ZNSt3__212basic_stringIwNS_11char_traitsIwEENS_9allocatorIwEEE6__initEPKwjj) for [Anonymous Symbol]
    string.cpp.o(.text._ZNSt3__212basic_stringIwNS_11char_traitsIwEENS_9allocatorIwEEE7replaceEjjPKw) refers (Special) to _printf_f.o(.ARM.Collect$$_printf_percent$$00000003) for _printf_f
    string.cpp.o(.text._ZNSt3__212basic_stringIwNS_11char_traitsIwEENS_9allocatorIwEEE7replaceEjjPKw) refers (Special) to printf1.o(x$fpl$printf1) for _printf_fp_dec
    string.cpp.o(.text._ZNSt3__212basic_stringIwNS_11char_traitsIwEENS_9allocatorIwEEE7replaceEjjPKw) refers (Special) to _printf_percent.o(.ARM.Collect$$_printf_percent$$00000000) for _printf_percent
    string.cpp.o(.text._ZNSt3__212basic_stringIwNS_11char_traitsIwEENS_9allocatorIwEEE7replaceEjjPKw) refers (Special) to _printf_s.o(.ARM.Collect$$_printf_percent$$00000014) for _printf_s
    string.cpp.o(.text._ZNSt3__212basic_stringIwNS_11char_traitsIwEENS_9allocatorIwEEE7replaceEjjPKw) refers (Special) to _printf_str.o(.text) for _printf_str
    string.cpp.o(.text._ZNSt3__212basic_stringIwNS_11char_traitsIwEENS_9allocatorIwEEE7replaceEjjPKw) refers to wcslen.o(.text) for wcslen
    string.cpp.o(.text._ZNSt3__212basic_stringIwNS_11char_traitsIwEENS_9allocatorIwEEE7replaceEjjPKw) refers to string.cpp.o(.text._ZNSt3__212basic_stringIwNS_11char_traitsIwEENS_9allocatorIwEEE7replaceEjjPKwj) for std::__2::basic_string<wchar_t, std::__2::char_traits<wchar_t>, std::__2::allocator<wchar_t> >::replace(unsigned int, unsigned int, wchar_t const*, unsigned int)
    string.cpp.o(.ARM.exidx.text._ZNSt3__212basic_stringIwNS_11char_traitsIwEENS_9allocatorIwEEE7replaceEjjPKw) refers (Special) to _printf_f.o(.ARM.Collect$$_printf_percent$$00000003) for _printf_f
    string.cpp.o(.ARM.exidx.text._ZNSt3__212basic_stringIwNS_11char_traitsIwEENS_9allocatorIwEEE7replaceEjjPKw) refers (Special) to printf1.o(x$fpl$printf1) for _printf_fp_dec
    string.cpp.o(.ARM.exidx.text._ZNSt3__212basic_stringIwNS_11char_traitsIwEENS_9allocatorIwEEE7replaceEjjPKw) refers (Special) to _printf_percent.o(.ARM.Collect$$_printf_percent$$00000000) for _printf_percent
    string.cpp.o(.ARM.exidx.text._ZNSt3__212basic_stringIwNS_11char_traitsIwEENS_9allocatorIwEEE7replaceEjjPKw) refers (Special) to _printf_s.o(.ARM.Collect$$_printf_percent$$00000014) for _printf_s
    string.cpp.o(.ARM.exidx.text._ZNSt3__212basic_stringIwNS_11char_traitsIwEENS_9allocatorIwEEE7replaceEjjPKw) refers (Special) to _printf_str.o(.text) for _printf_str
    string.cpp.o(.ARM.exidx.text._ZNSt3__212basic_stringIwNS_11char_traitsIwEENS_9allocatorIwEEE7replaceEjjPKw) refers to string.cpp.o(.text._ZNSt3__212basic_stringIwNS_11char_traitsIwEENS_9allocatorIwEEE7replaceEjjPKw) for [Anonymous Symbol]
    string.cpp.o(.text._ZNKSt3__212basic_stringIwNS_11char_traitsIwEENS_9allocatorIwEEE16find_last_not_ofEPKwjj) refers (Special) to _printf_f.o(.ARM.Collect$$_printf_percent$$00000003) for _printf_f
    string.cpp.o(.text._ZNKSt3__212basic_stringIwNS_11char_traitsIwEENS_9allocatorIwEEE16find_last_not_ofEPKwjj) refers (Special) to printf1.o(x$fpl$printf1) for _printf_fp_dec
    string.cpp.o(.text._ZNKSt3__212basic_stringIwNS_11char_traitsIwEENS_9allocatorIwEEE16find_last_not_ofEPKwjj) refers (Special) to _printf_percent.o(.ARM.Collect$$_printf_percent$$00000000) for _printf_percent
    string.cpp.o(.text._ZNKSt3__212basic_stringIwNS_11char_traitsIwEENS_9allocatorIwEEE16find_last_not_ofEPKwjj) refers (Special) to _printf_s.o(.ARM.Collect$$_printf_percent$$00000014) for _printf_s
    string.cpp.o(.text._ZNKSt3__212basic_stringIwNS_11char_traitsIwEENS_9allocatorIwEEE16find_last_not_ofEPKwjj) refers (Special) to _printf_str.o(.text) for _printf_str
    string.cpp.o(.text._ZNKSt3__212basic_stringIwNS_11char_traitsIwEENS_9allocatorIwEEE16find_last_not_ofEPKwjj) refers to wmemchr.o(.text) for wmemchr
    string.cpp.o(.ARM.exidx.text._ZNKSt3__212basic_stringIwNS_11char_traitsIwEENS_9allocatorIwEEE16find_last_not_ofEPKwjj) refers (Special) to _printf_f.o(.ARM.Collect$$_printf_percent$$00000003) for _printf_f
    string.cpp.o(.ARM.exidx.text._ZNKSt3__212basic_stringIwNS_11char_traitsIwEENS_9allocatorIwEEE16find_last_not_ofEPKwjj) refers (Special) to printf1.o(x$fpl$printf1) for _printf_fp_dec
    string.cpp.o(.ARM.exidx.text._ZNKSt3__212basic_stringIwNS_11char_traitsIwEENS_9allocatorIwEEE16find_last_not_ofEPKwjj) refers (Special) to _printf_percent.o(.ARM.Collect$$_printf_percent$$00000000) for _printf_percent
    string.cpp.o(.ARM.exidx.text._ZNKSt3__212basic_stringIwNS_11char_traitsIwEENS_9allocatorIwEEE16find_last_not_ofEPKwjj) refers (Special) to _printf_s.o(.ARM.Collect$$_printf_percent$$00000014) for _printf_s
    string.cpp.o(.ARM.exidx.text._ZNKSt3__212basic_stringIwNS_11char_traitsIwEENS_9allocatorIwEEE16find_last_not_ofEPKwjj) refers (Special) to _printf_str.o(.text) for _printf_str
    string.cpp.o(.ARM.exidx.text._ZNKSt3__212basic_stringIwNS_11char_traitsIwEENS_9allocatorIwEEE16find_last_not_ofEPKwjj) refers to string.cpp.o(.text._ZNKSt3__212basic_stringIwNS_11char_traitsIwEENS_9allocatorIwEEE16find_last_not_ofEPKwjj) for [Anonymous Symbol]
    string.cpp.o(.text._ZNSt3__212basic_stringIwNS_11char_traitsIwEENS_9allocatorIwEEED2Ev) refers (Special) to _printf_f.o(.ARM.Collect$$_printf_percent$$00000003) for _printf_f
    string.cpp.o(.text._ZNSt3__212basic_stringIwNS_11char_traitsIwEENS_9allocatorIwEEED2Ev) refers (Special) to printf1.o(x$fpl$printf1) for _printf_fp_dec
    string.cpp.o(.text._ZNSt3__212basic_stringIwNS_11char_traitsIwEENS_9allocatorIwEEED2Ev) refers (Special) to _printf_percent.o(.ARM.Collect$$_printf_percent$$00000000) for _printf_percent
    string.cpp.o(.text._ZNSt3__212basic_stringIwNS_11char_traitsIwEENS_9allocatorIwEEED2Ev) refers (Special) to _printf_s.o(.ARM.Collect$$_printf_percent$$00000014) for _printf_s
    string.cpp.o(.text._ZNSt3__212basic_stringIwNS_11char_traitsIwEENS_9allocatorIwEEED2Ev) refers (Special) to _printf_str.o(.text) for _printf_str
    string.cpp.o(.text._ZNSt3__212basic_stringIwNS_11char_traitsIwEENS_9allocatorIwEEED2Ev) refers to new.cpp.o(.text._ZdlPv) for operator delete(void*)
    string.cpp.o(.ARM.exidx.text._ZNSt3__212basic_stringIwNS_11char_traitsIwEENS_9allocatorIwEEED2Ev) refers (Special) to _printf_f.o(.ARM.Collect$$_printf_percent$$00000003) for _printf_f
    string.cpp.o(.ARM.exidx.text._ZNSt3__212basic_stringIwNS_11char_traitsIwEENS_9allocatorIwEEED2Ev) refers (Special) to printf1.o(x$fpl$printf1) for _printf_fp_dec
    string.cpp.o(.ARM.exidx.text._ZNSt3__212basic_stringIwNS_11char_traitsIwEENS_9allocatorIwEEED2Ev) refers (Special) to _printf_percent.o(.ARM.Collect$$_printf_percent$$00000000) for _printf_percent
    string.cpp.o(.ARM.exidx.text._ZNSt3__212basic_stringIwNS_11char_traitsIwEENS_9allocatorIwEEED2Ev) refers (Special) to _printf_s.o(.ARM.Collect$$_printf_percent$$00000014) for _printf_s
    string.cpp.o(.ARM.exidx.text._ZNSt3__212basic_stringIwNS_11char_traitsIwEENS_9allocatorIwEEED2Ev) refers (Special) to _printf_str.o(.text) for _printf_str
    string.cpp.o(.ARM.exidx.text._ZNSt3__212basic_stringIwNS_11char_traitsIwEENS_9allocatorIwEEED2Ev) refers to string.cpp.o(.text._ZNSt3__212basic_stringIwNS_11char_traitsIwEENS_9allocatorIwEEED2Ev) for [Anonymous Symbol]
    string.cpp.o(.text._ZNKSt3__212basic_stringIwNS_11char_traitsIwEENS_9allocatorIwEEE17find_first_not_ofEPKwjj) refers (Special) to _printf_f.o(.ARM.Collect$$_printf_percent$$00000003) for _printf_f
    string.cpp.o(.text._ZNKSt3__212basic_stringIwNS_11char_traitsIwEENS_9allocatorIwEEE17find_first_not_ofEPKwjj) refers (Special) to printf1.o(x$fpl$printf1) for _printf_fp_dec
    string.cpp.o(.text._ZNKSt3__212basic_stringIwNS_11char_traitsIwEENS_9allocatorIwEEE17find_first_not_ofEPKwjj) refers (Special) to _printf_percent.o(.ARM.Collect$$_printf_percent$$00000000) for _printf_percent
    string.cpp.o(.text._ZNKSt3__212basic_stringIwNS_11char_traitsIwEENS_9allocatorIwEEE17find_first_not_ofEPKwjj) refers (Special) to _printf_s.o(.ARM.Collect$$_printf_percent$$00000014) for _printf_s
    string.cpp.o(.text._ZNKSt3__212basic_stringIwNS_11char_traitsIwEENS_9allocatorIwEEE17find_first_not_ofEPKwjj) refers (Special) to _printf_str.o(.text) for _printf_str
    string.cpp.o(.text._ZNKSt3__212basic_stringIwNS_11char_traitsIwEENS_9allocatorIwEEE17find_first_not_ofEPKwjj) refers to wmemchr.o(.text) for wmemchr
    string.cpp.o(.ARM.exidx.text._ZNKSt3__212basic_stringIwNS_11char_traitsIwEENS_9allocatorIwEEE17find_first_not_ofEPKwjj) refers (Special) to _printf_f.o(.ARM.Collect$$_printf_percent$$00000003) for _printf_f
    string.cpp.o(.ARM.exidx.text._ZNKSt3__212basic_stringIwNS_11char_traitsIwEENS_9allocatorIwEEE17find_first_not_ofEPKwjj) refers (Special) to printf1.o(x$fpl$printf1) for _printf_fp_dec
    string.cpp.o(.ARM.exidx.text._ZNKSt3__212basic_stringIwNS_11char_traitsIwEENS_9allocatorIwEEE17find_first_not_ofEPKwjj) refers (Special) to _printf_percent.o(.ARM.Collect$$_printf_percent$$00000000) for _printf_percent
    string.cpp.o(.ARM.exidx.text._ZNKSt3__212basic_stringIwNS_11char_traitsIwEENS_9allocatorIwEEE17find_first_not_ofEPKwjj) refers (Special) to _printf_s.o(.ARM.Collect$$_printf_percent$$00000014) for _printf_s
    string.cpp.o(.ARM.exidx.text._ZNKSt3__212basic_stringIwNS_11char_traitsIwEENS_9allocatorIwEEE17find_first_not_ofEPKwjj) refers (Special) to _printf_str.o(.text) for _printf_str
    string.cpp.o(.ARM.exidx.text._ZNKSt3__212basic_stringIwNS_11char_traitsIwEENS_9allocatorIwEEE17find_first_not_ofEPKwjj) refers to string.cpp.o(.text._ZNKSt3__212basic_stringIwNS_11char_traitsIwEENS_9allocatorIwEEE17find_first_not_ofEPKwjj) for [Anonymous Symbol]
    string.cpp.o(.text._ZNSt3__212basic_stringIwNS_11char_traitsIwEENS_9allocatorIwEEE6insertEjjw) refers (Special) to _printf_f.o(.ARM.Collect$$_printf_percent$$00000003) for _printf_f
    string.cpp.o(.text._ZNSt3__212basic_stringIwNS_11char_traitsIwEENS_9allocatorIwEEE6insertEjjw) refers (Special) to printf1.o(x$fpl$printf1) for _printf_fp_dec
    string.cpp.o(.text._ZNSt3__212basic_stringIwNS_11char_traitsIwEENS_9allocatorIwEEE6insertEjjw) refers (Special) to _printf_percent.o(.ARM.Collect$$_printf_percent$$00000000) for _printf_percent
    string.cpp.o(.text._ZNSt3__212basic_stringIwNS_11char_traitsIwEENS_9allocatorIwEEE6insertEjjw) refers (Special) to _printf_s.o(.ARM.Collect$$_printf_percent$$00000014) for _printf_s
    string.cpp.o(.text._ZNSt3__212basic_stringIwNS_11char_traitsIwEENS_9allocatorIwEEE6insertEjjw) refers (Special) to _printf_str.o(.text) for _printf_str
    string.cpp.o(.text._ZNSt3__212basic_stringIwNS_11char_traitsIwEENS_9allocatorIwEEE6insertEjjw) refers to string.cpp.o(.text._ZNSt3__212basic_stringIwNS_11char_traitsIwEENS_9allocatorIwEEE9__grow_byEjjjjjj) for std::__2::basic_string<wchar_t, std::__2::char_traits<wchar_t>, std::__2::allocator<wchar_t> >::__grow_by(unsigned int, unsigned int, unsigned int, unsigned int, unsigned int, unsigned int)
    string.cpp.o(.text._ZNSt3__212basic_stringIwNS_11char_traitsIwEENS_9allocatorIwEEE6insertEjjw) refers to wmemmove.o(.text) for wmemmove
    string.cpp.o(.text._ZNSt3__212basic_stringIwNS_11char_traitsIwEENS_9allocatorIwEEE6insertEjjw) refers to wmemset.o(.text) for wmemset
    string.cpp.o(.text._ZNSt3__212basic_stringIwNS_11char_traitsIwEENS_9allocatorIwEEE6insertEjjw) refers to abort.o(.text) for abort
    string.cpp.o(.ARM.exidx.text._ZNSt3__212basic_stringIwNS_11char_traitsIwEENS_9allocatorIwEEE6insertEjjw) refers (Special) to _printf_f.o(.ARM.Collect$$_printf_percent$$00000003) for _printf_f
    string.cpp.o(.ARM.exidx.text._ZNSt3__212basic_stringIwNS_11char_traitsIwEENS_9allocatorIwEEE6insertEjjw) refers (Special) to printf1.o(x$fpl$printf1) for _printf_fp_dec
    string.cpp.o(.ARM.exidx.text._ZNSt3__212basic_stringIwNS_11char_traitsIwEENS_9allocatorIwEEE6insertEjjw) refers (Special) to _printf_percent.o(.ARM.Collect$$_printf_percent$$00000000) for _printf_percent
    string.cpp.o(.ARM.exidx.text._ZNSt3__212basic_stringIwNS_11char_traitsIwEENS_9allocatorIwEEE6insertEjjw) refers (Special) to _printf_s.o(.ARM.Collect$$_printf_percent$$00000014) for _printf_s
    string.cpp.o(.ARM.exidx.text._ZNSt3__212basic_stringIwNS_11char_traitsIwEENS_9allocatorIwEEE6insertEjjw) refers (Special) to _printf_str.o(.text) for _printf_str
    string.cpp.o(.ARM.exidx.text._ZNSt3__212basic_stringIwNS_11char_traitsIwEENS_9allocatorIwEEE6insertEjjw) refers to string.cpp.o(.text._ZNSt3__212basic_stringIwNS_11char_traitsIwEENS_9allocatorIwEEE6insertEjjw) for [Anonymous Symbol]
    string.cpp.o(.text._ZNSt3__212basic_stringIwNS_11char_traitsIwEENS_9allocatorIwEEE9__grow_byEjjjjjj) refers (Special) to _printf_f.o(.ARM.Collect$$_printf_percent$$00000003) for _printf_f
    string.cpp.o(.text._ZNSt3__212basic_stringIwNS_11char_traitsIwEENS_9allocatorIwEEE9__grow_byEjjjjjj) refers (Special) to printf1.o(x$fpl$printf1) for _printf_fp_dec
    string.cpp.o(.text._ZNSt3__212basic_stringIwNS_11char_traitsIwEENS_9allocatorIwEEE9__grow_byEjjjjjj) refers (Special) to _printf_percent.o(.ARM.Collect$$_printf_percent$$00000000) for _printf_percent
    string.cpp.o(.text._ZNSt3__212basic_stringIwNS_11char_traitsIwEENS_9allocatorIwEEE9__grow_byEjjjjjj) refers (Special) to _printf_s.o(.ARM.Collect$$_printf_percent$$00000014) for _printf_s
    string.cpp.o(.text._ZNSt3__212basic_stringIwNS_11char_traitsIwEENS_9allocatorIwEEE9__grow_byEjjjjjj) refers (Special) to _printf_str.o(.text) for _printf_str
    string.cpp.o(.text._ZNSt3__212basic_stringIwNS_11char_traitsIwEENS_9allocatorIwEEE9__grow_byEjjjjjj) refers to new.cpp.o(.text._Znwj) for operator new(unsigned int)
    string.cpp.o(.text._ZNSt3__212basic_stringIwNS_11char_traitsIwEENS_9allocatorIwEEE9__grow_byEjjjjjj) refers to wmemcpy.o(.text) for wmemcpy
    string.cpp.o(.text._ZNSt3__212basic_stringIwNS_11char_traitsIwEENS_9allocatorIwEEE9__grow_byEjjjjjj) refers to new.cpp.o(.text._ZdlPv) for operator delete(void*)
    string.cpp.o(.text._ZNSt3__212basic_stringIwNS_11char_traitsIwEENS_9allocatorIwEEE9__grow_byEjjjjjj) refers to abort.o(.text) for abort
    string.cpp.o(.ARM.exidx.text._ZNSt3__212basic_stringIwNS_11char_traitsIwEENS_9allocatorIwEEE9__grow_byEjjjjjj) refers (Special) to _printf_f.o(.ARM.Collect$$_printf_percent$$00000003) for _printf_f
    string.cpp.o(.ARM.exidx.text._ZNSt3__212basic_stringIwNS_11char_traitsIwEENS_9allocatorIwEEE9__grow_byEjjjjjj) refers (Special) to printf1.o(x$fpl$printf1) for _printf_fp_dec
    string.cpp.o(.ARM.exidx.text._ZNSt3__212basic_stringIwNS_11char_traitsIwEENS_9allocatorIwEEE9__grow_byEjjjjjj) refers (Special) to _printf_percent.o(.ARM.Collect$$_printf_percent$$00000000) for _printf_percent
    string.cpp.o(.ARM.exidx.text._ZNSt3__212basic_stringIwNS_11char_traitsIwEENS_9allocatorIwEEE9__grow_byEjjjjjj) refers (Special) to _printf_s.o(.ARM.Collect$$_printf_percent$$00000014) for _printf_s
    string.cpp.o(.ARM.exidx.text._ZNSt3__212basic_stringIwNS_11char_traitsIwEENS_9allocatorIwEEE9__grow_byEjjjjjj) refers (Special) to _printf_str.o(.text) for _printf_str
    string.cpp.o(.ARM.exidx.text._ZNSt3__212basic_stringIwNS_11char_traitsIwEENS_9allocatorIwEEE9__grow_byEjjjjjj) refers to string.cpp.o(.text._ZNSt3__212basic_stringIwNS_11char_traitsIwEENS_9allocatorIwEEE9__grow_byEjjjjjj) for [Anonymous Symbol]
    string.cpp.o(.text._ZNSt3__212basic_stringIwNS_11char_traitsIwEENS_9allocatorIwEEEaSEw) refers (Special) to _printf_f.o(.ARM.Collect$$_printf_percent$$00000003) for _printf_f
    string.cpp.o(.text._ZNSt3__212basic_stringIwNS_11char_traitsIwEENS_9allocatorIwEEEaSEw) refers (Special) to printf1.o(x$fpl$printf1) for _printf_fp_dec
    string.cpp.o(.text._ZNSt3__212basic_stringIwNS_11char_traitsIwEENS_9allocatorIwEEEaSEw) refers (Special) to _printf_percent.o(.ARM.Collect$$_printf_percent$$00000000) for _printf_percent
    string.cpp.o(.text._ZNSt3__212basic_stringIwNS_11char_traitsIwEENS_9allocatorIwEEEaSEw) refers (Special) to _printf_s.o(.ARM.Collect$$_printf_percent$$00000014) for _printf_s
    string.cpp.o(.text._ZNSt3__212basic_stringIwNS_11char_traitsIwEENS_9allocatorIwEEEaSEw) refers (Special) to _printf_str.o(.text) for _printf_str
    string.cpp.o(.ARM.exidx.text._ZNSt3__212basic_stringIwNS_11char_traitsIwEENS_9allocatorIwEEEaSEw) refers (Special) to _printf_f.o(.ARM.Collect$$_printf_percent$$00000003) for _printf_f
    string.cpp.o(.ARM.exidx.text._ZNSt3__212basic_stringIwNS_11char_traitsIwEENS_9allocatorIwEEEaSEw) refers (Special) to printf1.o(x$fpl$printf1) for _printf_fp_dec
    string.cpp.o(.ARM.exidx.text._ZNSt3__212basic_stringIwNS_11char_traitsIwEENS_9allocatorIwEEEaSEw) refers (Special) to _printf_percent.o(.ARM.Collect$$_printf_percent$$00000000) for _printf_percent
    string.cpp.o(.ARM.exidx.text._ZNSt3__212basic_stringIwNS_11char_traitsIwEENS_9allocatorIwEEEaSEw) refers (Special) to _printf_s.o(.ARM.Collect$$_printf_percent$$00000014) for _printf_s
    string.cpp.o(.ARM.exidx.text._ZNSt3__212basic_stringIwNS_11char_traitsIwEENS_9allocatorIwEEEaSEw) refers (Special) to _printf_str.o(.text) for _printf_str
    string.cpp.o(.ARM.exidx.text._ZNSt3__212basic_stringIwNS_11char_traitsIwEENS_9allocatorIwEEEaSEw) refers to string.cpp.o(.text._ZNSt3__212basic_stringIwNS_11char_traitsIwEENS_9allocatorIwEEEaSEw) for [Anonymous Symbol]
    string.cpp.o(.text._ZNSt3__212basic_stringIwNS_11char_traitsIwEENS_9allocatorIwEEE6__initEPKwj) refers (Special) to _printf_f.o(.ARM.Collect$$_printf_percent$$00000003) for _printf_f
    string.cpp.o(.text._ZNSt3__212basic_stringIwNS_11char_traitsIwEENS_9allocatorIwEEE6__initEPKwj) refers (Special) to printf1.o(x$fpl$printf1) for _printf_fp_dec
    string.cpp.o(.text._ZNSt3__212basic_stringIwNS_11char_traitsIwEENS_9allocatorIwEEE6__initEPKwj) refers (Special) to _printf_percent.o(.ARM.Collect$$_printf_percent$$00000000) for _printf_percent
    string.cpp.o(.text._ZNSt3__212basic_stringIwNS_11char_traitsIwEENS_9allocatorIwEEE6__initEPKwj) refers (Special) to _printf_s.o(.ARM.Collect$$_printf_percent$$00000014) for _printf_s
    string.cpp.o(.text._ZNSt3__212basic_stringIwNS_11char_traitsIwEENS_9allocatorIwEEE6__initEPKwj) refers (Special) to _printf_str.o(.text) for _printf_str
    string.cpp.o(.text._ZNSt3__212basic_stringIwNS_11char_traitsIwEENS_9allocatorIwEEE6__initEPKwj) refers to new.cpp.o(.text._Znwj) for operator new(unsigned int)
    string.cpp.o(.text._ZNSt3__212basic_stringIwNS_11char_traitsIwEENS_9allocatorIwEEE6__initEPKwj) refers to wmemcpy.o(.text) for wmemcpy
    string.cpp.o(.text._ZNSt3__212basic_stringIwNS_11char_traitsIwEENS_9allocatorIwEEE6__initEPKwj) refers to abort.o(.text) for abort
    string.cpp.o(.ARM.exidx.text._ZNSt3__212basic_stringIwNS_11char_traitsIwEENS_9allocatorIwEEE6__initEPKwj) refers (Special) to _printf_f.o(.ARM.Collect$$_printf_percent$$00000003) for _printf_f
    string.cpp.o(.ARM.exidx.text._ZNSt3__212basic_stringIwNS_11char_traitsIwEENS_9allocatorIwEEE6__initEPKwj) refers (Special) to printf1.o(x$fpl$printf1) for _printf_fp_dec
    string.cpp.o(.ARM.exidx.text._ZNSt3__212basic_stringIwNS_11char_traitsIwEENS_9allocatorIwEEE6__initEPKwj) refers (Special) to _printf_percent.o(.ARM.Collect$$_printf_percent$$00000000) for _printf_percent
    string.cpp.o(.ARM.exidx.text._ZNSt3__212basic_stringIwNS_11char_traitsIwEENS_9allocatorIwEEE6__initEPKwj) refers (Special) to _printf_s.o(.ARM.Collect$$_printf_percent$$00000014) for _printf_s
    string.cpp.o(.ARM.exidx.text._ZNSt3__212basic_stringIwNS_11char_traitsIwEENS_9allocatorIwEEE6__initEPKwj) refers (Special) to _printf_str.o(.text) for _printf_str
    string.cpp.o(.ARM.exidx.text._ZNSt3__212basic_stringIwNS_11char_traitsIwEENS_9allocatorIwEEE6__initEPKwj) refers to string.cpp.o(.text._ZNSt3__212basic_stringIwNS_11char_traitsIwEENS_9allocatorIwEEE6__initEPKwj) for [Anonymous Symbol]
    string.cpp.o(.text._ZNSt3__212basic_stringIwNS_11char_traitsIwEENS_9allocatorIwEEE25__init_copy_ctor_externalEPKwj) refers (Special) to _printf_f.o(.ARM.Collect$$_printf_percent$$00000003) for _printf_f
    string.cpp.o(.text._ZNSt3__212basic_stringIwNS_11char_traitsIwEENS_9allocatorIwEEE25__init_copy_ctor_externalEPKwj) refers (Special) to printf1.o(x$fpl$printf1) for _printf_fp_dec
    string.cpp.o(.text._ZNSt3__212basic_stringIwNS_11char_traitsIwEENS_9allocatorIwEEE25__init_copy_ctor_externalEPKwj) refers (Special) to _printf_percent.o(.ARM.Collect$$_printf_percent$$00000000) for _printf_percent
    string.cpp.o(.text._ZNSt3__212basic_stringIwNS_11char_traitsIwEENS_9allocatorIwEEE25__init_copy_ctor_externalEPKwj) refers (Special) to _printf_s.o(.ARM.Collect$$_printf_percent$$00000014) for _printf_s
    string.cpp.o(.text._ZNSt3__212basic_stringIwNS_11char_traitsIwEENS_9allocatorIwEEE25__init_copy_ctor_externalEPKwj) refers (Special) to _printf_str.o(.text) for _printf_str
    string.cpp.o(.text._ZNSt3__212basic_stringIwNS_11char_traitsIwEENS_9allocatorIwEEE25__init_copy_ctor_externalEPKwj) refers to new.cpp.o(.text._Znwj) for operator new(unsigned int)
    string.cpp.o(.text._ZNSt3__212basic_stringIwNS_11char_traitsIwEENS_9allocatorIwEEE25__init_copy_ctor_externalEPKwj) refers to wmemcpy.o(.text) for wmemcpy
    string.cpp.o(.text._ZNSt3__212basic_stringIwNS_11char_traitsIwEENS_9allocatorIwEEE25__init_copy_ctor_externalEPKwj) refers to abort.o(.text) for abort
    string.cpp.o(.ARM.exidx.text._ZNSt3__212basic_stringIwNS_11char_traitsIwEENS_9allocatorIwEEE25__init_copy_ctor_externalEPKwj) refers (Special) to _printf_f.o(.ARM.Collect$$_printf_percent$$00000003) for _printf_f
    string.cpp.o(.ARM.exidx.text._ZNSt3__212basic_stringIwNS_11char_traitsIwEENS_9allocatorIwEEE25__init_copy_ctor_externalEPKwj) refers (Special) to printf1.o(x$fpl$printf1) for _printf_fp_dec
    string.cpp.o(.ARM.exidx.text._ZNSt3__212basic_stringIwNS_11char_traitsIwEENS_9allocatorIwEEE25__init_copy_ctor_externalEPKwj) refers (Special) to _printf_percent.o(.ARM.Collect$$_printf_percent$$00000000) for _printf_percent
    string.cpp.o(.ARM.exidx.text._ZNSt3__212basic_stringIwNS_11char_traitsIwEENS_9allocatorIwEEE25__init_copy_ctor_externalEPKwj) refers (Special) to _printf_s.o(.ARM.Collect$$_printf_percent$$00000014) for _printf_s
    string.cpp.o(.ARM.exidx.text._ZNSt3__212basic_stringIwNS_11char_traitsIwEENS_9allocatorIwEEE25__init_copy_ctor_externalEPKwj) refers (Special) to _printf_str.o(.text) for _printf_str
    string.cpp.o(.ARM.exidx.text._ZNSt3__212basic_stringIwNS_11char_traitsIwEENS_9allocatorIwEEE25__init_copy_ctor_externalEPKwj) refers to string.cpp.o(.text._ZNSt3__212basic_stringIwNS_11char_traitsIwEENS_9allocatorIwEEE25__init_copy_ctor_externalEPKwj) for [Anonymous Symbol]
    string.cpp.o(.text._ZNKSt3__212basic_stringIwNS_11char_traitsIwEENS_9allocatorIwEEE2atEj) refers (Special) to _printf_f.o(.ARM.Collect$$_printf_percent$$00000003) for _printf_f
    string.cpp.o(.text._ZNKSt3__212basic_stringIwNS_11char_traitsIwEENS_9allocatorIwEEE2atEj) refers (Special) to printf1.o(x$fpl$printf1) for _printf_fp_dec
    string.cpp.o(.text._ZNKSt3__212basic_stringIwNS_11char_traitsIwEENS_9allocatorIwEEE2atEj) refers (Special) to _printf_percent.o(.ARM.Collect$$_printf_percent$$00000000) for _printf_percent
    string.cpp.o(.text._ZNKSt3__212basic_stringIwNS_11char_traitsIwEENS_9allocatorIwEEE2atEj) refers (Special) to _printf_s.o(.ARM.Collect$$_printf_percent$$00000014) for _printf_s
    string.cpp.o(.text._ZNKSt3__212basic_stringIwNS_11char_traitsIwEENS_9allocatorIwEEE2atEj) refers (Special) to _printf_str.o(.text) for _printf_str
    string.cpp.o(.text._ZNKSt3__212basic_stringIwNS_11char_traitsIwEENS_9allocatorIwEEE2atEj) refers to abort.o(.text) for abort
    string.cpp.o(.ARM.exidx.text._ZNKSt3__212basic_stringIwNS_11char_traitsIwEENS_9allocatorIwEEE2atEj) refers (Special) to _printf_f.o(.ARM.Collect$$_printf_percent$$00000003) for _printf_f
    string.cpp.o(.ARM.exidx.text._ZNKSt3__212basic_stringIwNS_11char_traitsIwEENS_9allocatorIwEEE2atEj) refers (Special) to printf1.o(x$fpl$printf1) for _printf_fp_dec
    string.cpp.o(.ARM.exidx.text._ZNKSt3__212basic_stringIwNS_11char_traitsIwEENS_9allocatorIwEEE2atEj) refers (Special) to _printf_percent.o(.ARM.Collect$$_printf_percent$$00000000) for _printf_percent
    string.cpp.o(.ARM.exidx.text._ZNKSt3__212basic_stringIwNS_11char_traitsIwEENS_9allocatorIwEEE2atEj) refers (Special) to _printf_s.o(.ARM.Collect$$_printf_percent$$00000014) for _printf_s
    string.cpp.o(.ARM.exidx.text._ZNKSt3__212basic_stringIwNS_11char_traitsIwEENS_9allocatorIwEEE2atEj) refers (Special) to _printf_str.o(.text) for _printf_str
    string.cpp.o(.ARM.exidx.text._ZNKSt3__212basic_stringIwNS_11char_traitsIwEENS_9allocatorIwEEE2atEj) refers to string.cpp.o(.text._ZNKSt3__212basic_stringIwNS_11char_traitsIwEENS_9allocatorIwEEE2atEj) for [Anonymous Symbol]
    string.cpp.o(.text._ZNSt3__212basic_stringIwNS_11char_traitsIwEENS_9allocatorIwEEE6insertEjPKwj) refers (Special) to _printf_f.o(.ARM.Collect$$_printf_percent$$00000003) for _printf_f
    string.cpp.o(.text._ZNSt3__212basic_stringIwNS_11char_traitsIwEENS_9allocatorIwEEE6insertEjPKwj) refers (Special) to printf1.o(x$fpl$printf1) for _printf_fp_dec
    string.cpp.o(.text._ZNSt3__212basic_stringIwNS_11char_traitsIwEENS_9allocatorIwEEE6insertEjPKwj) refers (Special) to _printf_percent.o(.ARM.Collect$$_printf_percent$$00000000) for _printf_percent
    string.cpp.o(.text._ZNSt3__212basic_stringIwNS_11char_traitsIwEENS_9allocatorIwEEE6insertEjPKwj) refers (Special) to _printf_s.o(.ARM.Collect$$_printf_percent$$00000014) for _printf_s
    string.cpp.o(.text._ZNSt3__212basic_stringIwNS_11char_traitsIwEENS_9allocatorIwEEE6insertEjPKwj) refers (Special) to _printf_str.o(.text) for _printf_str
    string.cpp.o(.text._ZNSt3__212basic_stringIwNS_11char_traitsIwEENS_9allocatorIwEEE6insertEjPKwj) refers to string.cpp.o(.text._ZNSt3__212basic_stringIwNS_11char_traitsIwEENS_9allocatorIwEEE21__grow_by_and_replaceEjjjjjjPKw) for std::__2::basic_string<wchar_t, std::__2::char_traits<wchar_t>, std::__2::allocator<wchar_t> >::__grow_by_and_replace(unsigned int, unsigned int, unsigned int, unsigned int, unsigned int, unsigned int, wchar_t const*)
    string.cpp.o(.text._ZNSt3__212basic_stringIwNS_11char_traitsIwEENS_9allocatorIwEEE6insertEjPKwj) refers to wmemmove.o(.text) for wmemmove
    string.cpp.o(.text._ZNSt3__212basic_stringIwNS_11char_traitsIwEENS_9allocatorIwEEE6insertEjPKwj) refers to abort.o(.text) for abort
    string.cpp.o(.ARM.exidx.text._ZNSt3__212basic_stringIwNS_11char_traitsIwEENS_9allocatorIwEEE6insertEjPKwj) refers (Special) to _printf_f.o(.ARM.Collect$$_printf_percent$$00000003) for _printf_f
    string.cpp.o(.ARM.exidx.text._ZNSt3__212basic_stringIwNS_11char_traitsIwEENS_9allocatorIwEEE6insertEjPKwj) refers (Special) to printf1.o(x$fpl$printf1) for _printf_fp_dec
    string.cpp.o(.ARM.exidx.text._ZNSt3__212basic_stringIwNS_11char_traitsIwEENS_9allocatorIwEEE6insertEjPKwj) refers (Special) to _printf_percent.o(.ARM.Collect$$_printf_percent$$00000000) for _printf_percent
    string.cpp.o(.ARM.exidx.text._ZNSt3__212basic_stringIwNS_11char_traitsIwEENS_9allocatorIwEEE6insertEjPKwj) refers (Special) to _printf_s.o(.ARM.Collect$$_printf_percent$$00000014) for _printf_s
    string.cpp.o(.ARM.exidx.text._ZNSt3__212basic_stringIwNS_11char_traitsIwEENS_9allocatorIwEEE6insertEjPKwj) refers (Special) to _printf_str.o(.text) for _printf_str
    string.cpp.o(.ARM.exidx.text._ZNSt3__212basic_stringIwNS_11char_traitsIwEENS_9allocatorIwEEE6insertEjPKwj) refers to string.cpp.o(.text._ZNSt3__212basic_stringIwNS_11char_traitsIwEENS_9allocatorIwEEE6insertEjPKwj) for [Anonymous Symbol]
    string.cpp.o(.text._ZNKSt3__212basic_stringIwNS_11char_traitsIwEENS_9allocatorIwEEE13find_first_ofEPKwjj) refers (Special) to _printf_f.o(.ARM.Collect$$_printf_percent$$00000003) for _printf_f
    string.cpp.o(.text._ZNKSt3__212basic_stringIwNS_11char_traitsIwEENS_9allocatorIwEEE13find_first_ofEPKwjj) refers (Special) to printf1.o(x$fpl$printf1) for _printf_fp_dec
    string.cpp.o(.text._ZNKSt3__212basic_stringIwNS_11char_traitsIwEENS_9allocatorIwEEE13find_first_ofEPKwjj) refers (Special) to _printf_percent.o(.ARM.Collect$$_printf_percent$$00000000) for _printf_percent
    string.cpp.o(.text._ZNKSt3__212basic_stringIwNS_11char_traitsIwEENS_9allocatorIwEEE13find_first_ofEPKwjj) refers (Special) to _printf_s.o(.ARM.Collect$$_printf_percent$$00000014) for _printf_s
    string.cpp.o(.text._ZNKSt3__212basic_stringIwNS_11char_traitsIwEENS_9allocatorIwEEE13find_first_ofEPKwjj) refers (Special) to _printf_str.o(.text) for _printf_str
    string.cpp.o(.ARM.exidx.text._ZNKSt3__212basic_stringIwNS_11char_traitsIwEENS_9allocatorIwEEE13find_first_ofEPKwjj) refers (Special) to _printf_f.o(.ARM.Collect$$_printf_percent$$00000003) for _printf_f
    string.cpp.o(.ARM.exidx.text._ZNKSt3__212basic_stringIwNS_11char_traitsIwEENS_9allocatorIwEEE13find_first_ofEPKwjj) refers (Special) to printf1.o(x$fpl$printf1) for _printf_fp_dec
    string.cpp.o(.ARM.exidx.text._ZNKSt3__212basic_stringIwNS_11char_traitsIwEENS_9allocatorIwEEE13find_first_ofEPKwjj) refers (Special) to _printf_percent.o(.ARM.Collect$$_printf_percent$$00000000) for _printf_percent
    string.cpp.o(.ARM.exidx.text._ZNKSt3__212basic_stringIwNS_11char_traitsIwEENS_9allocatorIwEEE13find_first_ofEPKwjj) refers (Special) to _printf_s.o(.ARM.Collect$$_printf_percent$$00000014) for _printf_s
    string.cpp.o(.ARM.exidx.text._ZNKSt3__212basic_stringIwNS_11char_traitsIwEENS_9allocatorIwEEE13find_first_ofEPKwjj) refers (Special) to _printf_str.o(.text) for _printf_str
    string.cpp.o(.ARM.exidx.text._ZNKSt3__212basic_stringIwNS_11char_traitsIwEENS_9allocatorIwEEE13find_first_ofEPKwjj) refers to string.cpp.o(.text._ZNKSt3__212basic_stringIwNS_11char_traitsIwEENS_9allocatorIwEEE13find_first_ofEPKwjj) for [Anonymous Symbol]
    string.cpp.o(.text._ZNSt3__212basic_stringIwNS_11char_traitsIwEENS_9allocatorIwEEE7replaceEjjjw) refers (Special) to _printf_f.o(.ARM.Collect$$_printf_percent$$00000003) for _printf_f
    string.cpp.o(.text._ZNSt3__212basic_stringIwNS_11char_traitsIwEENS_9allocatorIwEEE7replaceEjjjw) refers (Special) to printf1.o(x$fpl$printf1) for _printf_fp_dec
    string.cpp.o(.text._ZNSt3__212basic_stringIwNS_11char_traitsIwEENS_9allocatorIwEEE7replaceEjjjw) refers (Special) to _printf_percent.o(.ARM.Collect$$_printf_percent$$00000000) for _printf_percent
    string.cpp.o(.text._ZNSt3__212basic_stringIwNS_11char_traitsIwEENS_9allocatorIwEEE7replaceEjjjw) refers (Special) to _printf_s.o(.ARM.Collect$$_printf_percent$$00000014) for _printf_s
    string.cpp.o(.text._ZNSt3__212basic_stringIwNS_11char_traitsIwEENS_9allocatorIwEEE7replaceEjjjw) refers (Special) to _printf_str.o(.text) for _printf_str
    string.cpp.o(.text._ZNSt3__212basic_stringIwNS_11char_traitsIwEENS_9allocatorIwEEE7replaceEjjjw) refers to string.cpp.o(.text._ZNSt3__212basic_stringIwNS_11char_traitsIwEENS_9allocatorIwEEE9__grow_byEjjjjjj) for std::__2::basic_string<wchar_t, std::__2::char_traits<wchar_t>, std::__2::allocator<wchar_t> >::__grow_by(unsigned int, unsigned int, unsigned int, unsigned int, unsigned int, unsigned int)
    string.cpp.o(.text._ZNSt3__212basic_stringIwNS_11char_traitsIwEENS_9allocatorIwEEE7replaceEjjjw) refers to wmemmove.o(.text) for wmemmove
    string.cpp.o(.text._ZNSt3__212basic_stringIwNS_11char_traitsIwEENS_9allocatorIwEEE7replaceEjjjw) refers to wmemset.o(.text) for wmemset
    string.cpp.o(.text._ZNSt3__212basic_stringIwNS_11char_traitsIwEENS_9allocatorIwEEE7replaceEjjjw) refers to abort.o(.text) for abort
    string.cpp.o(.ARM.exidx.text._ZNSt3__212basic_stringIwNS_11char_traitsIwEENS_9allocatorIwEEE7replaceEjjjw) refers (Special) to _printf_f.o(.ARM.Collect$$_printf_percent$$00000003) for _printf_f
    string.cpp.o(.ARM.exidx.text._ZNSt3__212basic_stringIwNS_11char_traitsIwEENS_9allocatorIwEEE7replaceEjjjw) refers (Special) to printf1.o(x$fpl$printf1) for _printf_fp_dec
    string.cpp.o(.ARM.exidx.text._ZNSt3__212basic_stringIwNS_11char_traitsIwEENS_9allocatorIwEEE7replaceEjjjw) refers (Special) to _printf_percent.o(.ARM.Collect$$_printf_percent$$00000000) for _printf_percent
    string.cpp.o(.ARM.exidx.text._ZNSt3__212basic_stringIwNS_11char_traitsIwEENS_9allocatorIwEEE7replaceEjjjw) refers (Special) to _printf_s.o(.ARM.Collect$$_printf_percent$$00000014) for _printf_s
    string.cpp.o(.ARM.exidx.text._ZNSt3__212basic_stringIwNS_11char_traitsIwEENS_9allocatorIwEEE7replaceEjjjw) refers (Special) to _printf_str.o(.text) for _printf_str
    string.cpp.o(.ARM.exidx.text._ZNSt3__212basic_stringIwNS_11char_traitsIwEENS_9allocatorIwEEE7replaceEjjjw) refers to string.cpp.o(.text._ZNSt3__212basic_stringIwNS_11char_traitsIwEENS_9allocatorIwEEE7replaceEjjjw) for [Anonymous Symbol]
    string.cpp.o(.text._ZNSt3__212basic_stringIwNS_11char_traitsIwEENS_9allocatorIwEEE17__assign_externalEPKwj) refers (Special) to _printf_f.o(.ARM.Collect$$_printf_percent$$00000003) for _printf_f
    string.cpp.o(.text._ZNSt3__212basic_stringIwNS_11char_traitsIwEENS_9allocatorIwEEE17__assign_externalEPKwj) refers (Special) to printf1.o(x$fpl$printf1) for _printf_fp_dec
    string.cpp.o(.text._ZNSt3__212basic_stringIwNS_11char_traitsIwEENS_9allocatorIwEEE17__assign_externalEPKwj) refers (Special) to _printf_percent.o(.ARM.Collect$$_printf_percent$$00000000) for _printf_percent
    string.cpp.o(.text._ZNSt3__212basic_stringIwNS_11char_traitsIwEENS_9allocatorIwEEE17__assign_externalEPKwj) refers (Special) to _printf_s.o(.ARM.Collect$$_printf_percent$$00000014) for _printf_s
    string.cpp.o(.text._ZNSt3__212basic_stringIwNS_11char_traitsIwEENS_9allocatorIwEEE17__assign_externalEPKwj) refers (Special) to _printf_str.o(.text) for _printf_str
    string.cpp.o(.text._ZNSt3__212basic_stringIwNS_11char_traitsIwEENS_9allocatorIwEEE17__assign_externalEPKwj) refers to string.cpp.o(.text._ZNSt3__212basic_stringIwNS_11char_traitsIwEENS_9allocatorIwEEE21__grow_by_and_replaceEjjjjjjPKw) for std::__2::basic_string<wchar_t, std::__2::char_traits<wchar_t>, std::__2::allocator<wchar_t> >::__grow_by_and_replace(unsigned int, unsigned int, unsigned int, unsigned int, unsigned int, unsigned int, wchar_t const*)
    string.cpp.o(.text._ZNSt3__212basic_stringIwNS_11char_traitsIwEENS_9allocatorIwEEE17__assign_externalEPKwj) refers to wmemmove.o(.text) for wmemmove
    string.cpp.o(.ARM.exidx.text._ZNSt3__212basic_stringIwNS_11char_traitsIwEENS_9allocatorIwEEE17__assign_externalEPKwj) refers (Special) to _printf_f.o(.ARM.Collect$$_printf_percent$$00000003) for _printf_f
    string.cpp.o(.ARM.exidx.text._ZNSt3__212basic_stringIwNS_11char_traitsIwEENS_9allocatorIwEEE17__assign_externalEPKwj) refers (Special) to printf1.o(x$fpl$printf1) for _printf_fp_dec
    string.cpp.o(.ARM.exidx.text._ZNSt3__212basic_stringIwNS_11char_traitsIwEENS_9allocatorIwEEE17__assign_externalEPKwj) refers (Special) to _printf_percent.o(.ARM.Collect$$_printf_percent$$00000000) for _printf_percent
    string.cpp.o(.ARM.exidx.text._ZNSt3__212basic_stringIwNS_11char_traitsIwEENS_9allocatorIwEEE17__assign_externalEPKwj) refers (Special) to _printf_s.o(.ARM.Collect$$_printf_percent$$00000014) for _printf_s
    string.cpp.o(.ARM.exidx.text._ZNSt3__212basic_stringIwNS_11char_traitsIwEENS_9allocatorIwEEE17__assign_externalEPKwj) refers (Special) to _printf_str.o(.text) for _printf_str
    string.cpp.o(.ARM.exidx.text._ZNSt3__212basic_stringIwNS_11char_traitsIwEENS_9allocatorIwEEE17__assign_externalEPKwj) refers to string.cpp.o(.text._ZNSt3__212basic_stringIwNS_11char_traitsIwEENS_9allocatorIwEEE17__assign_externalEPKwj) for [Anonymous Symbol]
    string.cpp.o(.text._ZNSt3__212basic_stringIwNS_11char_traitsIwEENS_9allocatorIwEEE17__assign_externalEPKw) refers (Special) to _printf_f.o(.ARM.Collect$$_printf_percent$$00000003) for _printf_f
    string.cpp.o(.text._ZNSt3__212basic_stringIwNS_11char_traitsIwEENS_9allocatorIwEEE17__assign_externalEPKw) refers (Special) to printf1.o(x$fpl$printf1) for _printf_fp_dec
    string.cpp.o(.text._ZNSt3__212basic_stringIwNS_11char_traitsIwEENS_9allocatorIwEEE17__assign_externalEPKw) refers (Special) to _printf_percent.o(.ARM.Collect$$_printf_percent$$00000000) for _printf_percent
    string.cpp.o(.text._ZNSt3__212basic_stringIwNS_11char_traitsIwEENS_9allocatorIwEEE17__assign_externalEPKw) refers (Special) to _printf_s.o(.ARM.Collect$$_printf_percent$$00000014) for _printf_s
    string.cpp.o(.text._ZNSt3__212basic_stringIwNS_11char_traitsIwEENS_9allocatorIwEEE17__assign_externalEPKw) refers (Special) to _printf_str.o(.text) for _printf_str
    string.cpp.o(.text._ZNSt3__212basic_stringIwNS_11char_traitsIwEENS_9allocatorIwEEE17__assign_externalEPKw) refers to wcslen.o(.text) for wcslen
    string.cpp.o(.text._ZNSt3__212basic_stringIwNS_11char_traitsIwEENS_9allocatorIwEEE17__assign_externalEPKw) refers to string.cpp.o(.text._ZNSt3__212basic_stringIwNS_11char_traitsIwEENS_9allocatorIwEEE17__assign_externalEPKwj) for std::__2::basic_string<wchar_t, std::__2::char_traits<wchar_t>, std::__2::allocator<wchar_t> >::__assign_external(wchar_t const*, unsigned int)
    string.cpp.o(.ARM.exidx.text._ZNSt3__212basic_stringIwNS_11char_traitsIwEENS_9allocatorIwEEE17__assign_externalEPKw) refers (Special) to _printf_f.o(.ARM.Collect$$_printf_percent$$00000003) for _printf_f
    string.cpp.o(.ARM.exidx.text._ZNSt3__212basic_stringIwNS_11char_traitsIwEENS_9allocatorIwEEE17__assign_externalEPKw) refers (Special) to printf1.o(x$fpl$printf1) for _printf_fp_dec
    string.cpp.o(.ARM.exidx.text._ZNSt3__212basic_stringIwNS_11char_traitsIwEENS_9allocatorIwEEE17__assign_externalEPKw) refers (Special) to _printf_percent.o(.ARM.Collect$$_printf_percent$$00000000) for _printf_percent
    string.cpp.o(.ARM.exidx.text._ZNSt3__212basic_stringIwNS_11char_traitsIwEENS_9allocatorIwEEE17__assign_externalEPKw) refers (Special) to _printf_s.o(.ARM.Collect$$_printf_percent$$00000014) for _printf_s
    string.cpp.o(.ARM.exidx.text._ZNSt3__212basic_stringIwNS_11char_traitsIwEENS_9allocatorIwEEE17__assign_externalEPKw) refers (Special) to _printf_str.o(.text) for _printf_str
    string.cpp.o(.ARM.exidx.text._ZNSt3__212basic_stringIwNS_11char_traitsIwEENS_9allocatorIwEEE17__assign_externalEPKw) refers to string.cpp.o(.text._ZNSt3__212basic_stringIwNS_11char_traitsIwEENS_9allocatorIwEEE17__assign_externalEPKw) for [Anonymous Symbol]
    string.cpp.o(.text._ZNSt3__212basic_stringIwNS_11char_traitsIwEENS_9allocatorIwEEE7reserveEj) refers (Special) to _printf_f.o(.ARM.Collect$$_printf_percent$$00000003) for _printf_f
    string.cpp.o(.text._ZNSt3__212basic_stringIwNS_11char_traitsIwEENS_9allocatorIwEEE7reserveEj) refers (Special) to printf1.o(x$fpl$printf1) for _printf_fp_dec
    string.cpp.o(.text._ZNSt3__212basic_stringIwNS_11char_traitsIwEENS_9allocatorIwEEE7reserveEj) refers (Special) to _printf_percent.o(.ARM.Collect$$_printf_percent$$00000000) for _printf_percent
    string.cpp.o(.text._ZNSt3__212basic_stringIwNS_11char_traitsIwEENS_9allocatorIwEEE7reserveEj) refers (Special) to _printf_s.o(.ARM.Collect$$_printf_percent$$00000014) for _printf_s
    string.cpp.o(.text._ZNSt3__212basic_stringIwNS_11char_traitsIwEENS_9allocatorIwEEE7reserveEj) refers (Special) to _printf_str.o(.text) for _printf_str
    string.cpp.o(.text._ZNSt3__212basic_stringIwNS_11char_traitsIwEENS_9allocatorIwEEE7reserveEj) refers to new.cpp.o(.text._Znwj) for operator new(unsigned int)
    string.cpp.o(.text._ZNSt3__212basic_stringIwNS_11char_traitsIwEENS_9allocatorIwEEE7reserveEj) refers to wmemcpy.o(.text) for wmemcpy
    string.cpp.o(.text._ZNSt3__212basic_stringIwNS_11char_traitsIwEENS_9allocatorIwEEE7reserveEj) refers to new.cpp.o(.text._ZdlPv) for operator delete(void*)
    string.cpp.o(.text._ZNSt3__212basic_stringIwNS_11char_traitsIwEENS_9allocatorIwEEE7reserveEj) refers to abort.o(.text) for abort
    string.cpp.o(.ARM.exidx.text._ZNSt3__212basic_stringIwNS_11char_traitsIwEENS_9allocatorIwEEE7reserveEj) refers (Special) to _printf_f.o(.ARM.Collect$$_printf_percent$$00000003) for _printf_f
    string.cpp.o(.ARM.exidx.text._ZNSt3__212basic_stringIwNS_11char_traitsIwEENS_9allocatorIwEEE7reserveEj) refers (Special) to printf1.o(x$fpl$printf1) for _printf_fp_dec
    string.cpp.o(.ARM.exidx.text._ZNSt3__212basic_stringIwNS_11char_traitsIwEENS_9allocatorIwEEE7reserveEj) refers (Special) to _printf_percent.o(.ARM.Collect$$_printf_percent$$00000000) for _printf_percent
    string.cpp.o(.ARM.exidx.text._ZNSt3__212basic_stringIwNS_11char_traitsIwEENS_9allocatorIwEEE7reserveEj) refers (Special) to _printf_s.o(.ARM.Collect$$_printf_percent$$00000014) for _printf_s
    string.cpp.o(.ARM.exidx.text._ZNSt3__212basic_stringIwNS_11char_traitsIwEENS_9allocatorIwEEE7reserveEj) refers (Special) to _printf_str.o(.text) for _printf_str
    string.cpp.o(.ARM.exidx.text._ZNSt3__212basic_stringIwNS_11char_traitsIwEENS_9allocatorIwEEE7reserveEj) refers to string.cpp.o(.text._ZNSt3__212basic_stringIwNS_11char_traitsIwEENS_9allocatorIwEEE7reserveEj) for [Anonymous Symbol]
    string.cpp.o(.text._ZNSt3__212basic_stringIwNS_11char_traitsIwEENS_9allocatorIwEEE6appendEPKwj) refers (Special) to _printf_f.o(.ARM.Collect$$_printf_percent$$00000003) for _printf_f
    string.cpp.o(.text._ZNSt3__212basic_stringIwNS_11char_traitsIwEENS_9allocatorIwEEE6appendEPKwj) refers (Special) to printf1.o(x$fpl$printf1) for _printf_fp_dec
    string.cpp.o(.text._ZNSt3__212basic_stringIwNS_11char_traitsIwEENS_9allocatorIwEEE6appendEPKwj) refers (Special) to _printf_percent.o(.ARM.Collect$$_printf_percent$$00000000) for _printf_percent
    string.cpp.o(.text._ZNSt3__212basic_stringIwNS_11char_traitsIwEENS_9allocatorIwEEE6appendEPKwj) refers (Special) to _printf_s.o(.ARM.Collect$$_printf_percent$$00000014) for _printf_s
    string.cpp.o(.text._ZNSt3__212basic_stringIwNS_11char_traitsIwEENS_9allocatorIwEEE6appendEPKwj) refers (Special) to _printf_str.o(.text) for _printf_str
    string.cpp.o(.text._ZNSt3__212basic_stringIwNS_11char_traitsIwEENS_9allocatorIwEEE6appendEPKwj) refers to string.cpp.o(.text._ZNSt3__212basic_stringIwNS_11char_traitsIwEENS_9allocatorIwEEE21__grow_by_and_replaceEjjjjjjPKw) for std::__2::basic_string<wchar_t, std::__2::char_traits<wchar_t>, std::__2::allocator<wchar_t> >::__grow_by_and_replace(unsigned int, unsigned int, unsigned int, unsigned int, unsigned int, unsigned int, wchar_t const*)
    string.cpp.o(.text._ZNSt3__212basic_stringIwNS_11char_traitsIwEENS_9allocatorIwEEE6appendEPKwj) refers to wmemcpy.o(.text) for wmemcpy
    string.cpp.o(.ARM.exidx.text._ZNSt3__212basic_stringIwNS_11char_traitsIwEENS_9allocatorIwEEE6appendEPKwj) refers (Special) to _printf_f.o(.ARM.Collect$$_printf_percent$$00000003) for _printf_f
    string.cpp.o(.ARM.exidx.text._ZNSt3__212basic_stringIwNS_11char_traitsIwEENS_9allocatorIwEEE6appendEPKwj) refers (Special) to printf1.o(x$fpl$printf1) for _printf_fp_dec
    string.cpp.o(.ARM.exidx.text._ZNSt3__212basic_stringIwNS_11char_traitsIwEENS_9allocatorIwEEE6appendEPKwj) refers (Special) to _printf_percent.o(.ARM.Collect$$_printf_percent$$00000000) for _printf_percent
    string.cpp.o(.ARM.exidx.text._ZNSt3__212basic_stringIwNS_11char_traitsIwEENS_9allocatorIwEEE6appendEPKwj) refers (Special) to _printf_s.o(.ARM.Collect$$_printf_percent$$00000014) for _printf_s
    string.cpp.o(.ARM.exidx.text._ZNSt3__212basic_stringIwNS_11char_traitsIwEENS_9allocatorIwEEE6appendEPKwj) refers (Special) to _printf_str.o(.text) for _printf_str
    string.cpp.o(.ARM.exidx.text._ZNSt3__212basic_stringIwNS_11char_traitsIwEENS_9allocatorIwEEE6appendEPKwj) refers to string.cpp.o(.text._ZNSt3__212basic_stringIwNS_11char_traitsIwEENS_9allocatorIwEEE6appendEPKwj) for [Anonymous Symbol]
    string.cpp.o(.text._ZNSt3__212basic_stringIwNS_11char_traitsIwEENS_9allocatorIwEEE6assignERKS5_jj) refers (Special) to _printf_f.o(.ARM.Collect$$_printf_percent$$00000003) for _printf_f
    string.cpp.o(.text._ZNSt3__212basic_stringIwNS_11char_traitsIwEENS_9allocatorIwEEE6assignERKS5_jj) refers (Special) to printf1.o(x$fpl$printf1) for _printf_fp_dec
    string.cpp.o(.text._ZNSt3__212basic_stringIwNS_11char_traitsIwEENS_9allocatorIwEEE6assignERKS5_jj) refers (Special) to _printf_percent.o(.ARM.Collect$$_printf_percent$$00000000) for _printf_percent
    string.cpp.o(.text._ZNSt3__212basic_stringIwNS_11char_traitsIwEENS_9allocatorIwEEE6assignERKS5_jj) refers (Special) to _printf_s.o(.ARM.Collect$$_printf_percent$$00000014) for _printf_s
    string.cpp.o(.text._ZNSt3__212basic_stringIwNS_11char_traitsIwEENS_9allocatorIwEEE6assignERKS5_jj) refers (Special) to _printf_str.o(.text) for _printf_str
    string.cpp.o(.text._ZNSt3__212basic_stringIwNS_11char_traitsIwEENS_9allocatorIwEEE6assignERKS5_jj) refers to string.cpp.o(.text._ZNSt3__212basic_stringIwNS_11char_traitsIwEENS_9allocatorIwEEE6assignEPKwj) for std::__2::basic_string<wchar_t, std::__2::char_traits<wchar_t>, std::__2::allocator<wchar_t> >::assign(wchar_t const*, unsigned int)
    string.cpp.o(.text._ZNSt3__212basic_stringIwNS_11char_traitsIwEENS_9allocatorIwEEE6assignERKS5_jj) refers to abort.o(.text) for abort
    string.cpp.o(.ARM.exidx.text._ZNSt3__212basic_stringIwNS_11char_traitsIwEENS_9allocatorIwEEE6assignERKS5_jj) refers (Special) to _printf_f.o(.ARM.Collect$$_printf_percent$$00000003) for _printf_f
    string.cpp.o(.ARM.exidx.text._ZNSt3__212basic_stringIwNS_11char_traitsIwEENS_9allocatorIwEEE6assignERKS5_jj) refers (Special) to printf1.o(x$fpl$printf1) for _printf_fp_dec
    string.cpp.o(.ARM.exidx.text._ZNSt3__212basic_stringIwNS_11char_traitsIwEENS_9allocatorIwEEE6assignERKS5_jj) refers (Special) to _printf_percent.o(.ARM.Collect$$_printf_percent$$00000000) for _printf_percent
    string.cpp.o(.ARM.exidx.text._ZNSt3__212basic_stringIwNS_11char_traitsIwEENS_9allocatorIwEEE6assignERKS5_jj) refers (Special) to _printf_s.o(.ARM.Collect$$_printf_percent$$00000014) for _printf_s
    string.cpp.o(.ARM.exidx.text._ZNSt3__212basic_stringIwNS_11char_traitsIwEENS_9allocatorIwEEE6assignERKS5_jj) refers (Special) to _printf_str.o(.text) for _printf_str
    string.cpp.o(.ARM.exidx.text._ZNSt3__212basic_stringIwNS_11char_traitsIwEENS_9allocatorIwEEE6assignERKS5_jj) refers to string.cpp.o(.text._ZNSt3__212basic_stringIwNS_11char_traitsIwEENS_9allocatorIwEEE6assignERKS5_jj) for [Anonymous Symbol]
    string.cpp.o(.text._ZNSt3__212basic_stringIwNS_11char_traitsIwEENS_9allocatorIwEEE6assignEPKwj) refers (Special) to _printf_f.o(.ARM.Collect$$_printf_percent$$00000003) for _printf_f
    string.cpp.o(.text._ZNSt3__212basic_stringIwNS_11char_traitsIwEENS_9allocatorIwEEE6assignEPKwj) refers (Special) to printf1.o(x$fpl$printf1) for _printf_fp_dec
    string.cpp.o(.text._ZNSt3__212basic_stringIwNS_11char_traitsIwEENS_9allocatorIwEEE6assignEPKwj) refers (Special) to _printf_percent.o(.ARM.Collect$$_printf_percent$$00000000) for _printf_percent
    string.cpp.o(.text._ZNSt3__212basic_stringIwNS_11char_traitsIwEENS_9allocatorIwEEE6assignEPKwj) refers (Special) to _printf_s.o(.ARM.Collect$$_printf_percent$$00000014) for _printf_s
    string.cpp.o(.text._ZNSt3__212basic_stringIwNS_11char_traitsIwEENS_9allocatorIwEEE6assignEPKwj) refers (Special) to _printf_str.o(.text) for _printf_str
    string.cpp.o(.text._ZNSt3__212basic_stringIwNS_11char_traitsIwEENS_9allocatorIwEEE6assignEPKwj) refers to string.cpp.o(.text._ZNSt3__212basic_stringIwNS_11char_traitsIwEENS_9allocatorIwEEE17__assign_externalEPKwj) for std::__2::basic_string<wchar_t, std::__2::char_traits<wchar_t>, std::__2::allocator<wchar_t> >::__assign_external(wchar_t const*, unsigned int)
    string.cpp.o(.ARM.exidx.text._ZNSt3__212basic_stringIwNS_11char_traitsIwEENS_9allocatorIwEEE6assignEPKwj) refers (Special) to _printf_f.o(.ARM.Collect$$_printf_percent$$00000003) for _printf_f
    string.cpp.o(.ARM.exidx.text._ZNSt3__212basic_stringIwNS_11char_traitsIwEENS_9allocatorIwEEE6assignEPKwj) refers (Special) to printf1.o(x$fpl$printf1) for _printf_fp_dec
    string.cpp.o(.ARM.exidx.text._ZNSt3__212basic_stringIwNS_11char_traitsIwEENS_9allocatorIwEEE6assignEPKwj) refers (Special) to _printf_percent.o(.ARM.Collect$$_printf_percent$$00000000) for _printf_percent
    string.cpp.o(.ARM.exidx.text._ZNSt3__212basic_stringIwNS_11char_traitsIwEENS_9allocatorIwEEE6assignEPKwj) refers (Special) to _printf_s.o(.ARM.Collect$$_printf_percent$$00000014) for _printf_s
    string.cpp.o(.ARM.exidx.text._ZNSt3__212basic_stringIwNS_11char_traitsIwEENS_9allocatorIwEEE6assignEPKwj) refers (Special) to _printf_str.o(.text) for _printf_str
    string.cpp.o(.ARM.exidx.text._ZNSt3__212basic_stringIwNS_11char_traitsIwEENS_9allocatorIwEEE6assignEPKwj) refers to string.cpp.o(.text._ZNSt3__212basic_stringIwNS_11char_traitsIwEENS_9allocatorIwEEE6assignEPKwj) for [Anonymous Symbol]
    string.cpp.o(.text._ZNKSt3__212basic_stringIwNS_11char_traitsIwEENS_9allocatorIwEEE4copyEPwjj) refers (Special) to _printf_f.o(.ARM.Collect$$_printf_percent$$00000003) for _printf_f
    string.cpp.o(.text._ZNKSt3__212basic_stringIwNS_11char_traitsIwEENS_9allocatorIwEEE4copyEPwjj) refers (Special) to printf1.o(x$fpl$printf1) for _printf_fp_dec
    string.cpp.o(.text._ZNKSt3__212basic_stringIwNS_11char_traitsIwEENS_9allocatorIwEEE4copyEPwjj) refers (Special) to _printf_percent.o(.ARM.Collect$$_printf_percent$$00000000) for _printf_percent
    string.cpp.o(.text._ZNKSt3__212basic_stringIwNS_11char_traitsIwEENS_9allocatorIwEEE4copyEPwjj) refers (Special) to _printf_s.o(.ARM.Collect$$_printf_percent$$00000014) for _printf_s
    string.cpp.o(.text._ZNKSt3__212basic_stringIwNS_11char_traitsIwEENS_9allocatorIwEEE4copyEPwjj) refers (Special) to _printf_str.o(.text) for _printf_str
    string.cpp.o(.text._ZNKSt3__212basic_stringIwNS_11char_traitsIwEENS_9allocatorIwEEE4copyEPwjj) refers to wmemcpy.o(.text) for wmemcpy
    string.cpp.o(.text._ZNKSt3__212basic_stringIwNS_11char_traitsIwEENS_9allocatorIwEEE4copyEPwjj) refers to abort.o(.text) for abort
    string.cpp.o(.ARM.exidx.text._ZNKSt3__212basic_stringIwNS_11char_traitsIwEENS_9allocatorIwEEE4copyEPwjj) refers (Special) to _printf_f.o(.ARM.Collect$$_printf_percent$$00000003) for _printf_f
    string.cpp.o(.ARM.exidx.text._ZNKSt3__212basic_stringIwNS_11char_traitsIwEENS_9allocatorIwEEE4copyEPwjj) refers (Special) to printf1.o(x$fpl$printf1) for _printf_fp_dec
    string.cpp.o(.ARM.exidx.text._ZNKSt3__212basic_stringIwNS_11char_traitsIwEENS_9allocatorIwEEE4copyEPwjj) refers (Special) to _printf_percent.o(.ARM.Collect$$_printf_percent$$00000000) for _printf_percent
    string.cpp.o(.ARM.exidx.text._ZNKSt3__212basic_stringIwNS_11char_traitsIwEENS_9allocatorIwEEE4copyEPwjj) refers (Special) to _printf_s.o(.ARM.Collect$$_printf_percent$$00000014) for _printf_s
    string.cpp.o(.ARM.exidx.text._ZNKSt3__212basic_stringIwNS_11char_traitsIwEENS_9allocatorIwEEE4copyEPwjj) refers (Special) to _printf_str.o(.text) for _printf_str
    string.cpp.o(.ARM.exidx.text._ZNKSt3__212basic_stringIwNS_11char_traitsIwEENS_9allocatorIwEEE4copyEPwjj) refers to string.cpp.o(.text._ZNKSt3__212basic_stringIwNS_11char_traitsIwEENS_9allocatorIwEEE4copyEPwjj) for [Anonymous Symbol]
    string.cpp.o(.text._ZNSt3__212basic_stringIwNS_11char_traitsIwEENS_9allocatorIwEEEC2ERKS5_jjRKS4_) refers (Special) to _printf_f.o(.ARM.Collect$$_printf_percent$$00000003) for _printf_f
    string.cpp.o(.text._ZNSt3__212basic_stringIwNS_11char_traitsIwEENS_9allocatorIwEEEC2ERKS5_jjRKS4_) refers (Special) to printf1.o(x$fpl$printf1) for _printf_fp_dec
    string.cpp.o(.text._ZNSt3__212basic_stringIwNS_11char_traitsIwEENS_9allocatorIwEEEC2ERKS5_jjRKS4_) refers (Special) to _printf_percent.o(.ARM.Collect$$_printf_percent$$00000000) for _printf_percent
    string.cpp.o(.text._ZNSt3__212basic_stringIwNS_11char_traitsIwEENS_9allocatorIwEEEC2ERKS5_jjRKS4_) refers (Special) to _printf_s.o(.ARM.Collect$$_printf_percent$$00000014) for _printf_s
    string.cpp.o(.text._ZNSt3__212basic_stringIwNS_11char_traitsIwEENS_9allocatorIwEEEC2ERKS5_jjRKS4_) refers (Special) to _printf_str.o(.text) for _printf_str
    string.cpp.o(.text._ZNSt3__212basic_stringIwNS_11char_traitsIwEENS_9allocatorIwEEEC2ERKS5_jjRKS4_) refers to new.cpp.o(.text._Znwj) for operator new(unsigned int)
    string.cpp.o(.text._ZNSt3__212basic_stringIwNS_11char_traitsIwEENS_9allocatorIwEEEC2ERKS5_jjRKS4_) refers to wmemcpy.o(.text) for wmemcpy
    string.cpp.o(.text._ZNSt3__212basic_stringIwNS_11char_traitsIwEENS_9allocatorIwEEEC2ERKS5_jjRKS4_) refers to abort.o(.text) for abort
    string.cpp.o(.ARM.exidx.text._ZNSt3__212basic_stringIwNS_11char_traitsIwEENS_9allocatorIwEEEC2ERKS5_jjRKS4_) refers (Special) to _printf_f.o(.ARM.Collect$$_printf_percent$$00000003) for _printf_f
    string.cpp.o(.ARM.exidx.text._ZNSt3__212basic_stringIwNS_11char_traitsIwEENS_9allocatorIwEEEC2ERKS5_jjRKS4_) refers (Special) to printf1.o(x$fpl$printf1) for _printf_fp_dec
    string.cpp.o(.ARM.exidx.text._ZNSt3__212basic_stringIwNS_11char_traitsIwEENS_9allocatorIwEEEC2ERKS5_jjRKS4_) refers (Special) to _printf_percent.o(.ARM.Collect$$_printf_percent$$00000000) for _printf_percent
    string.cpp.o(.ARM.exidx.text._ZNSt3__212basic_stringIwNS_11char_traitsIwEENS_9allocatorIwEEEC2ERKS5_jjRKS4_) refers (Special) to _printf_s.o(.ARM.Collect$$_printf_percent$$00000014) for _printf_s
    string.cpp.o(.ARM.exidx.text._ZNSt3__212basic_stringIwNS_11char_traitsIwEENS_9allocatorIwEEEC2ERKS5_jjRKS4_) refers (Special) to _printf_str.o(.text) for _printf_str
    string.cpp.o(.ARM.exidx.text._ZNSt3__212basic_stringIwNS_11char_traitsIwEENS_9allocatorIwEEEC2ERKS5_jjRKS4_) refers to string.cpp.o(.text._ZNSt3__212basic_stringIwNS_11char_traitsIwEENS_9allocatorIwEEEC2ERKS5_jjRKS4_) for [Anonymous Symbol]
    string.cpp.o(.text._ZNKSt3__212basic_stringIwNS_11char_traitsIwEENS_9allocatorIwEEE4findEwj) refers (Special) to _printf_f.o(.ARM.Collect$$_printf_percent$$00000003) for _printf_f
    string.cpp.o(.text._ZNKSt3__212basic_stringIwNS_11char_traitsIwEENS_9allocatorIwEEE4findEwj) refers (Special) to printf1.o(x$fpl$printf1) for _printf_fp_dec
    string.cpp.o(.text._ZNKSt3__212basic_stringIwNS_11char_traitsIwEENS_9allocatorIwEEE4findEwj) refers (Special) to _printf_percent.o(.ARM.Collect$$_printf_percent$$00000000) for _printf_percent
    string.cpp.o(.text._ZNKSt3__212basic_stringIwNS_11char_traitsIwEENS_9allocatorIwEEE4findEwj) refers (Special) to _printf_s.o(.ARM.Collect$$_printf_percent$$00000014) for _printf_s
    string.cpp.o(.text._ZNKSt3__212basic_stringIwNS_11char_traitsIwEENS_9allocatorIwEEE4findEwj) refers (Special) to _printf_str.o(.text) for _printf_str
    string.cpp.o(.text._ZNKSt3__212basic_stringIwNS_11char_traitsIwEENS_9allocatorIwEEE4findEwj) refers to wmemchr.o(.text) for wmemchr
    string.cpp.o(.ARM.exidx.text._ZNKSt3__212basic_stringIwNS_11char_traitsIwEENS_9allocatorIwEEE4findEwj) refers (Special) to _printf_f.o(.ARM.Collect$$_printf_percent$$00000003) for _printf_f
    string.cpp.o(.ARM.exidx.text._ZNKSt3__212basic_stringIwNS_11char_traitsIwEENS_9allocatorIwEEE4findEwj) refers (Special) to printf1.o(x$fpl$printf1) for _printf_fp_dec
    string.cpp.o(.ARM.exidx.text._ZNKSt3__212basic_stringIwNS_11char_traitsIwEENS_9allocatorIwEEE4findEwj) refers (Special) to _printf_percent.o(.ARM.Collect$$_printf_percent$$00000000) for _printf_percent
    string.cpp.o(.ARM.exidx.text._ZNKSt3__212basic_stringIwNS_11char_traitsIwEENS_9allocatorIwEEE4findEwj) refers (Special) to _printf_s.o(.ARM.Collect$$_printf_percent$$00000014) for _printf_s
    string.cpp.o(.ARM.exidx.text._ZNKSt3__212basic_stringIwNS_11char_traitsIwEENS_9allocatorIwEEE4findEwj) refers (Special) to _printf_str.o(.text) for _printf_str
    string.cpp.o(.ARM.exidx.text._ZNKSt3__212basic_stringIwNS_11char_traitsIwEENS_9allocatorIwEEE4findEwj) refers to string.cpp.o(.text._ZNKSt3__212basic_stringIwNS_11char_traitsIwEENS_9allocatorIwEEE4findEwj) for [Anonymous Symbol]
    string.cpp.o(.text._ZNSt3__212basic_stringIwNS_11char_traitsIwEENS_9allocatorIwEEE6__initEjw) refers (Special) to _printf_f.o(.ARM.Collect$$_printf_percent$$00000003) for _printf_f
    string.cpp.o(.text._ZNSt3__212basic_stringIwNS_11char_traitsIwEENS_9allocatorIwEEE6__initEjw) refers (Special) to printf1.o(x$fpl$printf1) for _printf_fp_dec
    string.cpp.o(.text._ZNSt3__212basic_stringIwNS_11char_traitsIwEENS_9allocatorIwEEE6__initEjw) refers (Special) to _printf_percent.o(.ARM.Collect$$_printf_percent$$00000000) for _printf_percent
    string.cpp.o(.text._ZNSt3__212basic_stringIwNS_11char_traitsIwEENS_9allocatorIwEEE6__initEjw) refers (Special) to _printf_s.o(.ARM.Collect$$_printf_percent$$00000014) for _printf_s
    string.cpp.o(.text._ZNSt3__212basic_stringIwNS_11char_traitsIwEENS_9allocatorIwEEE6__initEjw) refers (Special) to _printf_str.o(.text) for _printf_str
    string.cpp.o(.text._ZNSt3__212basic_stringIwNS_11char_traitsIwEENS_9allocatorIwEEE6__initEjw) refers to new.cpp.o(.text._Znwj) for operator new(unsigned int)
    string.cpp.o(.text._ZNSt3__212basic_stringIwNS_11char_traitsIwEENS_9allocatorIwEEE6__initEjw) refers to wmemset.o(.text) for wmemset
    string.cpp.o(.text._ZNSt3__212basic_stringIwNS_11char_traitsIwEENS_9allocatorIwEEE6__initEjw) refers to abort.o(.text) for abort
    string.cpp.o(.ARM.exidx.text._ZNSt3__212basic_stringIwNS_11char_traitsIwEENS_9allocatorIwEEE6__initEjw) refers (Special) to _printf_f.o(.ARM.Collect$$_printf_percent$$00000003) for _printf_f
    string.cpp.o(.ARM.exidx.text._ZNSt3__212basic_stringIwNS_11char_traitsIwEENS_9allocatorIwEEE6__initEjw) refers (Special) to printf1.o(x$fpl$printf1) for _printf_fp_dec
    string.cpp.o(.ARM.exidx.text._ZNSt3__212basic_stringIwNS_11char_traitsIwEENS_9allocatorIwEEE6__initEjw) refers (Special) to _printf_percent.o(.ARM.Collect$$_printf_percent$$00000000) for _printf_percent
    string.cpp.o(.ARM.exidx.text._ZNSt3__212basic_stringIwNS_11char_traitsIwEENS_9allocatorIwEEE6__initEjw) refers (Special) to _printf_s.o(.ARM.Collect$$_printf_percent$$00000014) for _printf_s
    string.cpp.o(.ARM.exidx.text._ZNSt3__212basic_stringIwNS_11char_traitsIwEENS_9allocatorIwEEE6__initEjw) refers (Special) to _printf_str.o(.text) for _printf_str
    string.cpp.o(.ARM.exidx.text._ZNSt3__212basic_stringIwNS_11char_traitsIwEENS_9allocatorIwEEE6__initEjw) refers to string.cpp.o(.text._ZNSt3__212basic_stringIwNS_11char_traitsIwEENS_9allocatorIwEEE6__initEjw) for [Anonymous Symbol]
    string.cpp.o(.text._ZNSt3__212basic_stringIwNS_11char_traitsIwEENS_9allocatorIwEEE6insertEjPKw) refers (Special) to _printf_f.o(.ARM.Collect$$_printf_percent$$00000003) for _printf_f
    string.cpp.o(.text._ZNSt3__212basic_stringIwNS_11char_traitsIwEENS_9allocatorIwEEE6insertEjPKw) refers (Special) to printf1.o(x$fpl$printf1) for _printf_fp_dec
    string.cpp.o(.text._ZNSt3__212basic_stringIwNS_11char_traitsIwEENS_9allocatorIwEEE6insertEjPKw) refers (Special) to _printf_percent.o(.ARM.Collect$$_printf_percent$$00000000) for _printf_percent
    string.cpp.o(.text._ZNSt3__212basic_stringIwNS_11char_traitsIwEENS_9allocatorIwEEE6insertEjPKw) refers (Special) to _printf_s.o(.ARM.Collect$$_printf_percent$$00000014) for _printf_s
    string.cpp.o(.text._ZNSt3__212basic_stringIwNS_11char_traitsIwEENS_9allocatorIwEEE6insertEjPKw) refers (Special) to _printf_str.o(.text) for _printf_str
    string.cpp.o(.text._ZNSt3__212basic_stringIwNS_11char_traitsIwEENS_9allocatorIwEEE6insertEjPKw) refers to wcslen.o(.text) for wcslen
    string.cpp.o(.text._ZNSt3__212basic_stringIwNS_11char_traitsIwEENS_9allocatorIwEEE6insertEjPKw) refers to string.cpp.o(.text._ZNSt3__212basic_stringIwNS_11char_traitsIwEENS_9allocatorIwEEE6insertEjPKwj) for std::__2::basic_string<wchar_t, std::__2::char_traits<wchar_t>, std::__2::allocator<wchar_t> >::insert(unsigned int, wchar_t const*, unsigned int)
    string.cpp.o(.ARM.exidx.text._ZNSt3__212basic_stringIwNS_11char_traitsIwEENS_9allocatorIwEEE6insertEjPKw) refers (Special) to _printf_f.o(.ARM.Collect$$_printf_percent$$00000003) for _printf_f
    string.cpp.o(.ARM.exidx.text._ZNSt3__212basic_stringIwNS_11char_traitsIwEENS_9allocatorIwEEE6insertEjPKw) refers (Special) to printf1.o(x$fpl$printf1) for _printf_fp_dec
    string.cpp.o(.ARM.exidx.text._ZNSt3__212basic_stringIwNS_11char_traitsIwEENS_9allocatorIwEEE6insertEjPKw) refers (Special) to _printf_percent.o(.ARM.Collect$$_printf_percent$$00000000) for _printf_percent
    string.cpp.o(.ARM.exidx.text._ZNSt3__212basic_stringIwNS_11char_traitsIwEENS_9allocatorIwEEE6insertEjPKw) refers (Special) to _printf_s.o(.ARM.Collect$$_printf_percent$$00000014) for _printf_s
    string.cpp.o(.ARM.exidx.text._ZNSt3__212basic_stringIwNS_11char_traitsIwEENS_9allocatorIwEEE6insertEjPKw) refers (Special) to _printf_str.o(.text) for _printf_str
    string.cpp.o(.ARM.exidx.text._ZNSt3__212basic_stringIwNS_11char_traitsIwEENS_9allocatorIwEEE6insertEjPKw) refers to string.cpp.o(.text._ZNSt3__212basic_stringIwNS_11char_traitsIwEENS_9allocatorIwEEE6insertEjPKw) for [Anonymous Symbol]
    string.cpp.o(.text._ZNKSt3__212basic_stringIwNS_11char_traitsIwEENS_9allocatorIwEEE12find_last_ofEPKwjj) refers (Special) to _printf_f.o(.ARM.Collect$$_printf_percent$$00000003) for _printf_f
    string.cpp.o(.text._ZNKSt3__212basic_stringIwNS_11char_traitsIwEENS_9allocatorIwEEE12find_last_ofEPKwjj) refers (Special) to printf1.o(x$fpl$printf1) for _printf_fp_dec
    string.cpp.o(.text._ZNKSt3__212basic_stringIwNS_11char_traitsIwEENS_9allocatorIwEEE12find_last_ofEPKwjj) refers (Special) to _printf_percent.o(.ARM.Collect$$_printf_percent$$00000000) for _printf_percent
    string.cpp.o(.text._ZNKSt3__212basic_stringIwNS_11char_traitsIwEENS_9allocatorIwEEE12find_last_ofEPKwjj) refers (Special) to _printf_s.o(.ARM.Collect$$_printf_percent$$00000014) for _printf_s
    string.cpp.o(.text._ZNKSt3__212basic_stringIwNS_11char_traitsIwEENS_9allocatorIwEEE12find_last_ofEPKwjj) refers (Special) to _printf_str.o(.text) for _printf_str
    string.cpp.o(.text._ZNKSt3__212basic_stringIwNS_11char_traitsIwEENS_9allocatorIwEEE12find_last_ofEPKwjj) refers to wmemchr.o(.text) for wmemchr
    string.cpp.o(.ARM.exidx.text._ZNKSt3__212basic_stringIwNS_11char_traitsIwEENS_9allocatorIwEEE12find_last_ofEPKwjj) refers (Special) to _printf_f.o(.ARM.Collect$$_printf_percent$$00000003) for _printf_f
    string.cpp.o(.ARM.exidx.text._ZNKSt3__212basic_stringIwNS_11char_traitsIwEENS_9allocatorIwEEE12find_last_ofEPKwjj) refers (Special) to printf1.o(x$fpl$printf1) for _printf_fp_dec
    string.cpp.o(.ARM.exidx.text._ZNKSt3__212basic_stringIwNS_11char_traitsIwEENS_9allocatorIwEEE12find_last_ofEPKwjj) refers (Special) to _printf_percent.o(.ARM.Collect$$_printf_percent$$00000000) for _printf_percent
    string.cpp.o(.ARM.exidx.text._ZNKSt3__212basic_stringIwNS_11char_traitsIwEENS_9allocatorIwEEE12find_last_ofEPKwjj) refers (Special) to _printf_s.o(.ARM.Collect$$_printf_percent$$00000014) for _printf_s
    string.cpp.o(.ARM.exidx.text._ZNKSt3__212basic_stringIwNS_11char_traitsIwEENS_9allocatorIwEEE12find_last_ofEPKwjj) refers (Special) to _printf_str.o(.text) for _printf_str
    string.cpp.o(.ARM.exidx.text._ZNKSt3__212basic_stringIwNS_11char_traitsIwEENS_9allocatorIwEEE12find_last_ofEPKwjj) refers to string.cpp.o(.text._ZNKSt3__212basic_stringIwNS_11char_traitsIwEENS_9allocatorIwEEE12find_last_ofEPKwjj) for [Anonymous Symbol]
    string.cpp.o(.text._ZNSt3__212basic_stringIwNS_11char_traitsIwEENS_9allocatorIwEEE17__assign_no_aliasILb0EEERS5_PKwj) refers (Special) to _printf_f.o(.ARM.Collect$$_printf_percent$$00000003) for _printf_f
    string.cpp.o(.text._ZNSt3__212basic_stringIwNS_11char_traitsIwEENS_9allocatorIwEEE17__assign_no_aliasILb0EEERS5_PKwj) refers (Special) to printf1.o(x$fpl$printf1) for _printf_fp_dec
    string.cpp.o(.text._ZNSt3__212basic_stringIwNS_11char_traitsIwEENS_9allocatorIwEEE17__assign_no_aliasILb0EEERS5_PKwj) refers (Special) to _printf_percent.o(.ARM.Collect$$_printf_percent$$00000000) for _printf_percent
    string.cpp.o(.text._ZNSt3__212basic_stringIwNS_11char_traitsIwEENS_9allocatorIwEEE17__assign_no_aliasILb0EEERS5_PKwj) refers (Special) to _printf_s.o(.ARM.Collect$$_printf_percent$$00000014) for _printf_s
    string.cpp.o(.text._ZNSt3__212basic_stringIwNS_11char_traitsIwEENS_9allocatorIwEEE17__assign_no_aliasILb0EEERS5_PKwj) refers (Special) to _printf_str.o(.text) for _printf_str
    string.cpp.o(.text._ZNSt3__212basic_stringIwNS_11char_traitsIwEENS_9allocatorIwEEE17__assign_no_aliasILb0EEERS5_PKwj) refers to wmemcpy.o(.text) for wmemcpy
    string.cpp.o(.text._ZNSt3__212basic_stringIwNS_11char_traitsIwEENS_9allocatorIwEEE17__assign_no_aliasILb0EEERS5_PKwj) refers to string.cpp.o(.text._ZNSt3__212basic_stringIwNS_11char_traitsIwEENS_9allocatorIwEEE21__grow_by_and_replaceEjjjjjjPKw) for std::__2::basic_string<wchar_t, std::__2::char_traits<wchar_t>, std::__2::allocator<wchar_t> >::__grow_by_and_replace(unsigned int, unsigned int, unsigned int, unsigned int, unsigned int, unsigned int, wchar_t const*)
    string.cpp.o(.ARM.exidx.text._ZNSt3__212basic_stringIwNS_11char_traitsIwEENS_9allocatorIwEEE17__assign_no_aliasILb0EEERS5_PKwj) refers (Special) to _printf_f.o(.ARM.Collect$$_printf_percent$$00000003) for _printf_f
    string.cpp.o(.ARM.exidx.text._ZNSt3__212basic_stringIwNS_11char_traitsIwEENS_9allocatorIwEEE17__assign_no_aliasILb0EEERS5_PKwj) refers (Special) to printf1.o(x$fpl$printf1) for _printf_fp_dec
    string.cpp.o(.ARM.exidx.text._ZNSt3__212basic_stringIwNS_11char_traitsIwEENS_9allocatorIwEEE17__assign_no_aliasILb0EEERS5_PKwj) refers (Special) to _printf_percent.o(.ARM.Collect$$_printf_percent$$00000000) for _printf_percent
    string.cpp.o(.ARM.exidx.text._ZNSt3__212basic_stringIwNS_11char_traitsIwEENS_9allocatorIwEEE17__assign_no_aliasILb0EEERS5_PKwj) refers (Special) to _printf_s.o(.ARM.Collect$$_printf_percent$$00000014) for _printf_s
    string.cpp.o(.ARM.exidx.text._ZNSt3__212basic_stringIwNS_11char_traitsIwEENS_9allocatorIwEEE17__assign_no_aliasILb0EEERS5_PKwj) refers (Special) to _printf_str.o(.text) for _printf_str
    string.cpp.o(.ARM.exidx.text._ZNSt3__212basic_stringIwNS_11char_traitsIwEENS_9allocatorIwEEE17__assign_no_aliasILb0EEERS5_PKwj) refers to string.cpp.o(.text._ZNSt3__212basic_stringIwNS_11char_traitsIwEENS_9allocatorIwEEE17__assign_no_aliasILb0EEERS5_PKwj) for [Anonymous Symbol]
    string.cpp.o(.text._ZNSt3__212basic_stringIwNS_11char_traitsIwEENS_9allocatorIwEEE17__assign_no_aliasILb1EEERS5_PKwj) refers (Special) to _printf_f.o(.ARM.Collect$$_printf_percent$$00000003) for _printf_f
    string.cpp.o(.text._ZNSt3__212basic_stringIwNS_11char_traitsIwEENS_9allocatorIwEEE17__assign_no_aliasILb1EEERS5_PKwj) refers (Special) to printf1.o(x$fpl$printf1) for _printf_fp_dec
    string.cpp.o(.text._ZNSt3__212basic_stringIwNS_11char_traitsIwEENS_9allocatorIwEEE17__assign_no_aliasILb1EEERS5_PKwj) refers (Special) to _printf_percent.o(.ARM.Collect$$_printf_percent$$00000000) for _printf_percent
    string.cpp.o(.text._ZNSt3__212basic_stringIwNS_11char_traitsIwEENS_9allocatorIwEEE17__assign_no_aliasILb1EEERS5_PKwj) refers (Special) to _printf_s.o(.ARM.Collect$$_printf_percent$$00000014) for _printf_s
    string.cpp.o(.text._ZNSt3__212basic_stringIwNS_11char_traitsIwEENS_9allocatorIwEEE17__assign_no_aliasILb1EEERS5_PKwj) refers (Special) to _printf_str.o(.text) for _printf_str
    string.cpp.o(.text._ZNSt3__212basic_stringIwNS_11char_traitsIwEENS_9allocatorIwEEE17__assign_no_aliasILb1EEERS5_PKwj) refers to wmemcpy.o(.text) for wmemcpy
    string.cpp.o(.text._ZNSt3__212basic_stringIwNS_11char_traitsIwEENS_9allocatorIwEEE17__assign_no_aliasILb1EEERS5_PKwj) refers to string.cpp.o(.text._ZNSt3__212basic_stringIwNS_11char_traitsIwEENS_9allocatorIwEEE21__grow_by_and_replaceEjjjjjjPKw) for std::__2::basic_string<wchar_t, std::__2::char_traits<wchar_t>, std::__2::allocator<wchar_t> >::__grow_by_and_replace(unsigned int, unsigned int, unsigned int, unsigned int, unsigned int, unsigned int, wchar_t const*)
    string.cpp.o(.ARM.exidx.text._ZNSt3__212basic_stringIwNS_11char_traitsIwEENS_9allocatorIwEEE17__assign_no_aliasILb1EEERS5_PKwj) refers (Special) to _printf_f.o(.ARM.Collect$$_printf_percent$$00000003) for _printf_f
    string.cpp.o(.ARM.exidx.text._ZNSt3__212basic_stringIwNS_11char_traitsIwEENS_9allocatorIwEEE17__assign_no_aliasILb1EEERS5_PKwj) refers (Special) to printf1.o(x$fpl$printf1) for _printf_fp_dec
    string.cpp.o(.ARM.exidx.text._ZNSt3__212basic_stringIwNS_11char_traitsIwEENS_9allocatorIwEEE17__assign_no_aliasILb1EEERS5_PKwj) refers (Special) to _printf_percent.o(.ARM.Collect$$_printf_percent$$00000000) for _printf_percent
    string.cpp.o(.ARM.exidx.text._ZNSt3__212basic_stringIwNS_11char_traitsIwEENS_9allocatorIwEEE17__assign_no_aliasILb1EEERS5_PKwj) refers (Special) to _printf_s.o(.ARM.Collect$$_printf_percent$$00000014) for _printf_s
    string.cpp.o(.ARM.exidx.text._ZNSt3__212basic_stringIwNS_11char_traitsIwEENS_9allocatorIwEEE17__assign_no_aliasILb1EEERS5_PKwj) refers (Special) to _printf_str.o(.text) for _printf_str
    string.cpp.o(.ARM.exidx.text._ZNSt3__212basic_stringIwNS_11char_traitsIwEENS_9allocatorIwEEE17__assign_no_aliasILb1EEERS5_PKwj) refers to string.cpp.o(.text._ZNSt3__212basic_stringIwNS_11char_traitsIwEENS_9allocatorIwEEE17__assign_no_aliasILb1EEERS5_PKwj) for [Anonymous Symbol]
    string.cpp.o(.text._ZNSt3__212basic_stringIwNS_11char_traitsIwEENS_9allocatorIwEEE9push_backEw) refers (Special) to _printf_f.o(.ARM.Collect$$_printf_percent$$00000003) for _printf_f
    string.cpp.o(.text._ZNSt3__212basic_stringIwNS_11char_traitsIwEENS_9allocatorIwEEE9push_backEw) refers (Special) to printf1.o(x$fpl$printf1) for _printf_fp_dec
    string.cpp.o(.text._ZNSt3__212basic_stringIwNS_11char_traitsIwEENS_9allocatorIwEEE9push_backEw) refers (Special) to _printf_percent.o(.ARM.Collect$$_printf_percent$$00000000) for _printf_percent
    string.cpp.o(.text._ZNSt3__212basic_stringIwNS_11char_traitsIwEENS_9allocatorIwEEE9push_backEw) refers (Special) to _printf_s.o(.ARM.Collect$$_printf_percent$$00000014) for _printf_s
    string.cpp.o(.text._ZNSt3__212basic_stringIwNS_11char_traitsIwEENS_9allocatorIwEEE9push_backEw) refers (Special) to _printf_str.o(.text) for _printf_str
    string.cpp.o(.text._ZNSt3__212basic_stringIwNS_11char_traitsIwEENS_9allocatorIwEEE9push_backEw) refers to string.cpp.o(.text._ZNSt3__212basic_stringIwNS_11char_traitsIwEENS_9allocatorIwEEE9__grow_byEjjjjjj) for std::__2::basic_string<wchar_t, std::__2::char_traits<wchar_t>, std::__2::allocator<wchar_t> >::__grow_by(unsigned int, unsigned int, unsigned int, unsigned int, unsigned int, unsigned int)
    string.cpp.o(.ARM.exidx.text._ZNSt3__212basic_stringIwNS_11char_traitsIwEENS_9allocatorIwEEE9push_backEw) refers (Special) to _printf_f.o(.ARM.Collect$$_printf_percent$$00000003) for _printf_f
    string.cpp.o(.ARM.exidx.text._ZNSt3__212basic_stringIwNS_11char_traitsIwEENS_9allocatorIwEEE9push_backEw) refers (Special) to printf1.o(x$fpl$printf1) for _printf_fp_dec
    string.cpp.o(.ARM.exidx.text._ZNSt3__212basic_stringIwNS_11char_traitsIwEENS_9allocatorIwEEE9push_backEw) refers (Special) to _printf_percent.o(.ARM.Collect$$_printf_percent$$00000000) for _printf_percent
    string.cpp.o(.ARM.exidx.text._ZNSt3__212basic_stringIwNS_11char_traitsIwEENS_9allocatorIwEEE9push_backEw) refers (Special) to _printf_s.o(.ARM.Collect$$_printf_percent$$00000014) for _printf_s
    string.cpp.o(.ARM.exidx.text._ZNSt3__212basic_stringIwNS_11char_traitsIwEENS_9allocatorIwEEE9push_backEw) refers (Special) to _printf_str.o(.text) for _printf_str
    string.cpp.o(.ARM.exidx.text._ZNSt3__212basic_stringIwNS_11char_traitsIwEENS_9allocatorIwEEE9push_backEw) refers to string.cpp.o(.text._ZNSt3__212basic_stringIwNS_11char_traitsIwEENS_9allocatorIwEEE9push_backEw) for [Anonymous Symbol]
    string.cpp.o(.text._ZNSt3__212basic_stringIwNS_11char_traitsIwEENS_9allocatorIwEEE6appendEjw) refers (Special) to _printf_f.o(.ARM.Collect$$_printf_percent$$00000003) for _printf_f
    string.cpp.o(.text._ZNSt3__212basic_stringIwNS_11char_traitsIwEENS_9allocatorIwEEE6appendEjw) refers (Special) to printf1.o(x$fpl$printf1) for _printf_fp_dec
    string.cpp.o(.text._ZNSt3__212basic_stringIwNS_11char_traitsIwEENS_9allocatorIwEEE6appendEjw) refers (Special) to _printf_percent.o(.ARM.Collect$$_printf_percent$$00000000) for _printf_percent
    string.cpp.o(.text._ZNSt3__212basic_stringIwNS_11char_traitsIwEENS_9allocatorIwEEE6appendEjw) refers (Special) to _printf_s.o(.ARM.Collect$$_printf_percent$$00000014) for _printf_s
    string.cpp.o(.text._ZNSt3__212basic_stringIwNS_11char_traitsIwEENS_9allocatorIwEEE6appendEjw) refers (Special) to _printf_str.o(.text) for _printf_str
    string.cpp.o(.text._ZNSt3__212basic_stringIwNS_11char_traitsIwEENS_9allocatorIwEEE6appendEjw) refers to string.cpp.o(.text._ZNSt3__212basic_stringIwNS_11char_traitsIwEENS_9allocatorIwEEE9__grow_byEjjjjjj) for std::__2::basic_string<wchar_t, std::__2::char_traits<wchar_t>, std::__2::allocator<wchar_t> >::__grow_by(unsigned int, unsigned int, unsigned int, unsigned int, unsigned int, unsigned int)
    string.cpp.o(.text._ZNSt3__212basic_stringIwNS_11char_traitsIwEENS_9allocatorIwEEE6appendEjw) refers to wmemset.o(.text) for wmemset
    string.cpp.o(.ARM.exidx.text._ZNSt3__212basic_stringIwNS_11char_traitsIwEENS_9allocatorIwEEE6appendEjw) refers (Special) to _printf_f.o(.ARM.Collect$$_printf_percent$$00000003) for _printf_f
    string.cpp.o(.ARM.exidx.text._ZNSt3__212basic_stringIwNS_11char_traitsIwEENS_9allocatorIwEEE6appendEjw) refers (Special) to printf1.o(x$fpl$printf1) for _printf_fp_dec
    string.cpp.o(.ARM.exidx.text._ZNSt3__212basic_stringIwNS_11char_traitsIwEENS_9allocatorIwEEE6appendEjw) refers (Special) to _printf_percent.o(.ARM.Collect$$_printf_percent$$00000000) for _printf_percent
    string.cpp.o(.ARM.exidx.text._ZNSt3__212basic_stringIwNS_11char_traitsIwEENS_9allocatorIwEEE6appendEjw) refers (Special) to _printf_s.o(.ARM.Collect$$_printf_percent$$00000014) for _printf_s
    string.cpp.o(.ARM.exidx.text._ZNSt3__212basic_stringIwNS_11char_traitsIwEENS_9allocatorIwEEE6appendEjw) refers (Special) to _printf_str.o(.text) for _printf_str
    string.cpp.o(.ARM.exidx.text._ZNSt3__212basic_stringIwNS_11char_traitsIwEENS_9allocatorIwEEE6appendEjw) refers to string.cpp.o(.text._ZNSt3__212basic_stringIwNS_11char_traitsIwEENS_9allocatorIwEEE6appendEjw) for [Anonymous Symbol]
    string.cpp.o(.text._ZNKSt3__212basic_stringIwNS_11char_traitsIwEENS_9allocatorIwEEE5rfindEwj) refers (Special) to _printf_f.o(.ARM.Collect$$_printf_percent$$00000003) for _printf_f
    string.cpp.o(.text._ZNKSt3__212basic_stringIwNS_11char_traitsIwEENS_9allocatorIwEEE5rfindEwj) refers (Special) to printf1.o(x$fpl$printf1) for _printf_fp_dec
    string.cpp.o(.text._ZNKSt3__212basic_stringIwNS_11char_traitsIwEENS_9allocatorIwEEE5rfindEwj) refers (Special) to _printf_percent.o(.ARM.Collect$$_printf_percent$$00000000) for _printf_percent
    string.cpp.o(.text._ZNKSt3__212basic_stringIwNS_11char_traitsIwEENS_9allocatorIwEEE5rfindEwj) refers (Special) to _printf_s.o(.ARM.Collect$$_printf_percent$$00000014) for _printf_s
    string.cpp.o(.text._ZNKSt3__212basic_stringIwNS_11char_traitsIwEENS_9allocatorIwEEE5rfindEwj) refers (Special) to _printf_str.o(.text) for _printf_str
    string.cpp.o(.ARM.exidx.text._ZNKSt3__212basic_stringIwNS_11char_traitsIwEENS_9allocatorIwEEE5rfindEwj) refers (Special) to _printf_f.o(.ARM.Collect$$_printf_percent$$00000003) for _printf_f
    string.cpp.o(.ARM.exidx.text._ZNKSt3__212basic_stringIwNS_11char_traitsIwEENS_9allocatorIwEEE5rfindEwj) refers (Special) to printf1.o(x$fpl$printf1) for _printf_fp_dec
    string.cpp.o(.ARM.exidx.text._ZNKSt3__212basic_stringIwNS_11char_traitsIwEENS_9allocatorIwEEE5rfindEwj) refers (Special) to _printf_percent.o(.ARM.Collect$$_printf_percent$$00000000) for _printf_percent
    string.cpp.o(.ARM.exidx.text._ZNKSt3__212basic_stringIwNS_11char_traitsIwEENS_9allocatorIwEEE5rfindEwj) refers (Special) to _printf_s.o(.ARM.Collect$$_printf_percent$$00000014) for _printf_s
    string.cpp.o(.ARM.exidx.text._ZNKSt3__212basic_stringIwNS_11char_traitsIwEENS_9allocatorIwEEE5rfindEwj) refers (Special) to _printf_str.o(.text) for _printf_str
    string.cpp.o(.ARM.exidx.text._ZNKSt3__212basic_stringIwNS_11char_traitsIwEENS_9allocatorIwEEE5rfindEwj) refers to string.cpp.o(.text._ZNKSt3__212basic_stringIwNS_11char_traitsIwEENS_9allocatorIwEEE5rfindEwj) for [Anonymous Symbol]
    string.cpp.o(.text._ZNSt3__212basic_stringIwNS_11char_traitsIwEENS_9allocatorIwEEE6assignEjw) refers (Special) to _printf_f.o(.ARM.Collect$$_printf_percent$$00000003) for _printf_f
    string.cpp.o(.text._ZNSt3__212basic_stringIwNS_11char_traitsIwEENS_9allocatorIwEEE6assignEjw) refers (Special) to printf1.o(x$fpl$printf1) for _printf_fp_dec
    string.cpp.o(.text._ZNSt3__212basic_stringIwNS_11char_traitsIwEENS_9allocatorIwEEE6assignEjw) refers (Special) to _printf_percent.o(.ARM.Collect$$_printf_percent$$00000000) for _printf_percent
    string.cpp.o(.text._ZNSt3__212basic_stringIwNS_11char_traitsIwEENS_9allocatorIwEEE6assignEjw) refers (Special) to _printf_s.o(.ARM.Collect$$_printf_percent$$00000014) for _printf_s
    string.cpp.o(.text._ZNSt3__212basic_stringIwNS_11char_traitsIwEENS_9allocatorIwEEE6assignEjw) refers (Special) to _printf_str.o(.text) for _printf_str
    string.cpp.o(.text._ZNSt3__212basic_stringIwNS_11char_traitsIwEENS_9allocatorIwEEE6assignEjw) refers to string.cpp.o(.text._ZNSt3__212basic_stringIwNS_11char_traitsIwEENS_9allocatorIwEEE9__grow_byEjjjjjj) for std::__2::basic_string<wchar_t, std::__2::char_traits<wchar_t>, std::__2::allocator<wchar_t> >::__grow_by(unsigned int, unsigned int, unsigned int, unsigned int, unsigned int, unsigned int)
    string.cpp.o(.text._ZNSt3__212basic_stringIwNS_11char_traitsIwEENS_9allocatorIwEEE6assignEjw) refers to wmemset.o(.text) for wmemset
    string.cpp.o(.ARM.exidx.text._ZNSt3__212basic_stringIwNS_11char_traitsIwEENS_9allocatorIwEEE6assignEjw) refers (Special) to _printf_f.o(.ARM.Collect$$_printf_percent$$00000003) for _printf_f
    string.cpp.o(.ARM.exidx.text._ZNSt3__212basic_stringIwNS_11char_traitsIwEENS_9allocatorIwEEE6assignEjw) refers (Special) to printf1.o(x$fpl$printf1) for _printf_fp_dec
    string.cpp.o(.ARM.exidx.text._ZNSt3__212basic_stringIwNS_11char_traitsIwEENS_9allocatorIwEEE6assignEjw) refers (Special) to _printf_percent.o(.ARM.Collect$$_printf_percent$$00000000) for _printf_percent
    string.cpp.o(.ARM.exidx.text._ZNSt3__212basic_stringIwNS_11char_traitsIwEENS_9allocatorIwEEE6assignEjw) refers (Special) to _printf_s.o(.ARM.Collect$$_printf_percent$$00000014) for _printf_s
    string.cpp.o(.ARM.exidx.text._ZNSt3__212basic_stringIwNS_11char_traitsIwEENS_9allocatorIwEEE6assignEjw) refers (Special) to _printf_str.o(.text) for _printf_str
    string.cpp.o(.ARM.exidx.text._ZNSt3__212basic_stringIwNS_11char_traitsIwEENS_9allocatorIwEEE6assignEjw) refers to string.cpp.o(.text._ZNSt3__212basic_stringIwNS_11char_traitsIwEENS_9allocatorIwEEE6assignEjw) for [Anonymous Symbol]
    string.cpp.o(.text._ZNSt3__212basic_stringIwNS_11char_traitsIwEENS_9allocatorIwEEE26__erase_external_with_moveEjj) refers (Special) to _printf_f.o(.ARM.Collect$$_printf_percent$$00000003) for _printf_f
    string.cpp.o(.text._ZNSt3__212basic_stringIwNS_11char_traitsIwEENS_9allocatorIwEEE26__erase_external_with_moveEjj) refers (Special) to printf1.o(x$fpl$printf1) for _printf_fp_dec
    string.cpp.o(.text._ZNSt3__212basic_stringIwNS_11char_traitsIwEENS_9allocatorIwEEE26__erase_external_with_moveEjj) refers (Special) to _printf_percent.o(.ARM.Collect$$_printf_percent$$00000000) for _printf_percent
    string.cpp.o(.text._ZNSt3__212basic_stringIwNS_11char_traitsIwEENS_9allocatorIwEEE26__erase_external_with_moveEjj) refers (Special) to _printf_s.o(.ARM.Collect$$_printf_percent$$00000014) for _printf_s
    string.cpp.o(.text._ZNSt3__212basic_stringIwNS_11char_traitsIwEENS_9allocatorIwEEE26__erase_external_with_moveEjj) refers (Special) to _printf_str.o(.text) for _printf_str
    string.cpp.o(.text._ZNSt3__212basic_stringIwNS_11char_traitsIwEENS_9allocatorIwEEE26__erase_external_with_moveEjj) refers to wmemmove.o(.text) for wmemmove
    string.cpp.o(.ARM.exidx.text._ZNSt3__212basic_stringIwNS_11char_traitsIwEENS_9allocatorIwEEE26__erase_external_with_moveEjj) refers (Special) to _printf_f.o(.ARM.Collect$$_printf_percent$$00000003) for _printf_f
    string.cpp.o(.ARM.exidx.text._ZNSt3__212basic_stringIwNS_11char_traitsIwEENS_9allocatorIwEEE26__erase_external_with_moveEjj) refers (Special) to printf1.o(x$fpl$printf1) for _printf_fp_dec
    string.cpp.o(.ARM.exidx.text._ZNSt3__212basic_stringIwNS_11char_traitsIwEENS_9allocatorIwEEE26__erase_external_with_moveEjj) refers (Special) to _printf_percent.o(.ARM.Collect$$_printf_percent$$00000000) for _printf_percent
    string.cpp.o(.ARM.exidx.text._ZNSt3__212basic_stringIwNS_11char_traitsIwEENS_9allocatorIwEEE26__erase_external_with_moveEjj) refers (Special) to _printf_s.o(.ARM.Collect$$_printf_percent$$00000014) for _printf_s
    string.cpp.o(.ARM.exidx.text._ZNSt3__212basic_stringIwNS_11char_traitsIwEENS_9allocatorIwEEE26__erase_external_with_moveEjj) refers (Special) to _printf_str.o(.text) for _printf_str
    string.cpp.o(.ARM.exidx.text._ZNSt3__212basic_stringIwNS_11char_traitsIwEENS_9allocatorIwEEE26__erase_external_with_moveEjj) refers to string.cpp.o(.text._ZNSt3__212basic_stringIwNS_11char_traitsIwEENS_9allocatorIwEEE26__erase_external_with_moveEjj) for [Anonymous Symbol]
    string.cpp.o(.text._ZNSt3__212basic_stringIwNS_11char_traitsIwEENS_9allocatorIwEEE6appendERKS5_jj) refers (Special) to _printf_f.o(.ARM.Collect$$_printf_percent$$00000003) for _printf_f
    string.cpp.o(.text._ZNSt3__212basic_stringIwNS_11char_traitsIwEENS_9allocatorIwEEE6appendERKS5_jj) refers (Special) to printf1.o(x$fpl$printf1) for _printf_fp_dec
    string.cpp.o(.text._ZNSt3__212basic_stringIwNS_11char_traitsIwEENS_9allocatorIwEEE6appendERKS5_jj) refers (Special) to _printf_percent.o(.ARM.Collect$$_printf_percent$$00000000) for _printf_percent
    string.cpp.o(.text._ZNSt3__212basic_stringIwNS_11char_traitsIwEENS_9allocatorIwEEE6appendERKS5_jj) refers (Special) to _printf_s.o(.ARM.Collect$$_printf_percent$$00000014) for _printf_s
    string.cpp.o(.text._ZNSt3__212basic_stringIwNS_11char_traitsIwEENS_9allocatorIwEEE6appendERKS5_jj) refers (Special) to _printf_str.o(.text) for _printf_str
    string.cpp.o(.text._ZNSt3__212basic_stringIwNS_11char_traitsIwEENS_9allocatorIwEEE6appendERKS5_jj) refers to string.cpp.o(.text._ZNSt3__212basic_stringIwNS_11char_traitsIwEENS_9allocatorIwEEE6appendEPKwj) for std::__2::basic_string<wchar_t, std::__2::char_traits<wchar_t>, std::__2::allocator<wchar_t> >::append(wchar_t const*, unsigned int)
    string.cpp.o(.text._ZNSt3__212basic_stringIwNS_11char_traitsIwEENS_9allocatorIwEEE6appendERKS5_jj) refers to abort.o(.text) for abort
    string.cpp.o(.ARM.exidx.text._ZNSt3__212basic_stringIwNS_11char_traitsIwEENS_9allocatorIwEEE6appendERKS5_jj) refers (Special) to _printf_f.o(.ARM.Collect$$_printf_percent$$00000003) for _printf_f
    string.cpp.o(.ARM.exidx.text._ZNSt3__212basic_stringIwNS_11char_traitsIwEENS_9allocatorIwEEE6appendERKS5_jj) refers (Special) to printf1.o(x$fpl$printf1) for _printf_fp_dec
    string.cpp.o(.ARM.exidx.text._ZNSt3__212basic_stringIwNS_11char_traitsIwEENS_9allocatorIwEEE6appendERKS5_jj) refers (Special) to _printf_percent.o(.ARM.Collect$$_printf_percent$$00000000) for _printf_percent
    string.cpp.o(.ARM.exidx.text._ZNSt3__212basic_stringIwNS_11char_traitsIwEENS_9allocatorIwEEE6appendERKS5_jj) refers (Special) to _printf_s.o(.ARM.Collect$$_printf_percent$$00000014) for _printf_s
    string.cpp.o(.ARM.exidx.text._ZNSt3__212basic_stringIwNS_11char_traitsIwEENS_9allocatorIwEEE6appendERKS5_jj) refers (Special) to _printf_str.o(.text) for _printf_str
    string.cpp.o(.ARM.exidx.text._ZNSt3__212basic_stringIwNS_11char_traitsIwEENS_9allocatorIwEEE6appendERKS5_jj) refers to string.cpp.o(.text._ZNSt3__212basic_stringIwNS_11char_traitsIwEENS_9allocatorIwEEE6appendERKS5_jj) for [Anonymous Symbol]
    string.cpp.o(.text._ZNKSt3__212basic_stringIwNS_11char_traitsIwEENS_9allocatorIwEEE7compareEPKw) refers (Special) to _printf_f.o(.ARM.Collect$$_printf_percent$$00000003) for _printf_f
    string.cpp.o(.text._ZNKSt3__212basic_stringIwNS_11char_traitsIwEENS_9allocatorIwEEE7compareEPKw) refers (Special) to printf1.o(x$fpl$printf1) for _printf_fp_dec
    string.cpp.o(.text._ZNKSt3__212basic_stringIwNS_11char_traitsIwEENS_9allocatorIwEEE7compareEPKw) refers (Special) to _printf_percent.o(.ARM.Collect$$_printf_percent$$00000000) for _printf_percent
    string.cpp.o(.text._ZNKSt3__212basic_stringIwNS_11char_traitsIwEENS_9allocatorIwEEE7compareEPKw) refers (Special) to _printf_s.o(.ARM.Collect$$_printf_percent$$00000014) for _printf_s
    string.cpp.o(.text._ZNKSt3__212basic_stringIwNS_11char_traitsIwEENS_9allocatorIwEEE7compareEPKw) refers (Special) to _printf_str.o(.text) for _printf_str
    string.cpp.o(.text._ZNKSt3__212basic_stringIwNS_11char_traitsIwEENS_9allocatorIwEEE7compareEPKw) refers to wcslen.o(.text) for wcslen
    string.cpp.o(.text._ZNKSt3__212basic_stringIwNS_11char_traitsIwEENS_9allocatorIwEEE7compareEPKw) refers to string.cpp.o(.text._ZNKSt3__212basic_stringIwNS_11char_traitsIwEENS_9allocatorIwEEE7compareEjjPKwj) for std::__2::basic_string<wchar_t, std::__2::char_traits<wchar_t>, std::__2::allocator<wchar_t> >::compare(unsigned int, unsigned int, wchar_t const*, unsigned int) const
    string.cpp.o(.ARM.exidx.text._ZNKSt3__212basic_stringIwNS_11char_traitsIwEENS_9allocatorIwEEE7compareEPKw) refers (Special) to _printf_f.o(.ARM.Collect$$_printf_percent$$00000003) for _printf_f
    string.cpp.o(.ARM.exidx.text._ZNKSt3__212basic_stringIwNS_11char_traitsIwEENS_9allocatorIwEEE7compareEPKw) refers (Special) to printf1.o(x$fpl$printf1) for _printf_fp_dec
    string.cpp.o(.ARM.exidx.text._ZNKSt3__212basic_stringIwNS_11char_traitsIwEENS_9allocatorIwEEE7compareEPKw) refers (Special) to _printf_percent.o(.ARM.Collect$$_printf_percent$$00000000) for _printf_percent
    string.cpp.o(.ARM.exidx.text._ZNKSt3__212basic_stringIwNS_11char_traitsIwEENS_9allocatorIwEEE7compareEPKw) refers (Special) to _printf_s.o(.ARM.Collect$$_printf_percent$$00000014) for _printf_s
    string.cpp.o(.ARM.exidx.text._ZNKSt3__212basic_stringIwNS_11char_traitsIwEENS_9allocatorIwEEE7compareEPKw) refers (Special) to _printf_str.o(.text) for _printf_str
    string.cpp.o(.ARM.exidx.text._ZNKSt3__212basic_stringIwNS_11char_traitsIwEENS_9allocatorIwEEE7compareEPKw) refers to string.cpp.o(.text._ZNKSt3__212basic_stringIwNS_11char_traitsIwEENS_9allocatorIwEEE7compareEPKw) for [Anonymous Symbol]
    string.cpp.o(.text._ZNKSt3__212basic_stringIwNS_11char_traitsIwEENS_9allocatorIwEEE7compareEjjPKwj) refers (Special) to _printf_f.o(.ARM.Collect$$_printf_percent$$00000003) for _printf_f
    string.cpp.o(.text._ZNKSt3__212basic_stringIwNS_11char_traitsIwEENS_9allocatorIwEEE7compareEjjPKwj) refers (Special) to printf1.o(x$fpl$printf1) for _printf_fp_dec
    string.cpp.o(.text._ZNKSt3__212basic_stringIwNS_11char_traitsIwEENS_9allocatorIwEEE7compareEjjPKwj) refers (Special) to _printf_percent.o(.ARM.Collect$$_printf_percent$$00000000) for _printf_percent
    string.cpp.o(.text._ZNKSt3__212basic_stringIwNS_11char_traitsIwEENS_9allocatorIwEEE7compareEjjPKwj) refers (Special) to _printf_s.o(.ARM.Collect$$_printf_percent$$00000014) for _printf_s
    string.cpp.o(.text._ZNKSt3__212basic_stringIwNS_11char_traitsIwEENS_9allocatorIwEEE7compareEjjPKwj) refers (Special) to _printf_str.o(.text) for _printf_str
    string.cpp.o(.text._ZNKSt3__212basic_stringIwNS_11char_traitsIwEENS_9allocatorIwEEE7compareEjjPKwj) refers to wmemcmp.o(.text) for wmemcmp
    string.cpp.o(.text._ZNKSt3__212basic_stringIwNS_11char_traitsIwEENS_9allocatorIwEEE7compareEjjPKwj) refers to abort.o(.text) for abort
    string.cpp.o(.ARM.exidx.text._ZNKSt3__212basic_stringIwNS_11char_traitsIwEENS_9allocatorIwEEE7compareEjjPKwj) refers (Special) to _printf_f.o(.ARM.Collect$$_printf_percent$$00000003) for _printf_f
    string.cpp.o(.ARM.exidx.text._ZNKSt3__212basic_stringIwNS_11char_traitsIwEENS_9allocatorIwEEE7compareEjjPKwj) refers (Special) to printf1.o(x$fpl$printf1) for _printf_fp_dec
    string.cpp.o(.ARM.exidx.text._ZNKSt3__212basic_stringIwNS_11char_traitsIwEENS_9allocatorIwEEE7compareEjjPKwj) refers (Special) to _printf_percent.o(.ARM.Collect$$_printf_percent$$00000000) for _printf_percent
    string.cpp.o(.ARM.exidx.text._ZNKSt3__212basic_stringIwNS_11char_traitsIwEENS_9allocatorIwEEE7compareEjjPKwj) refers (Special) to _printf_s.o(.ARM.Collect$$_printf_percent$$00000014) for _printf_s
    string.cpp.o(.ARM.exidx.text._ZNKSt3__212basic_stringIwNS_11char_traitsIwEENS_9allocatorIwEEE7compareEjjPKwj) refers (Special) to _printf_str.o(.text) for _printf_str
    string.cpp.o(.ARM.exidx.text._ZNKSt3__212basic_stringIwNS_11char_traitsIwEENS_9allocatorIwEEE7compareEjjPKwj) refers to string.cpp.o(.text._ZNKSt3__212basic_stringIwNS_11char_traitsIwEENS_9allocatorIwEEE7compareEjjPKwj) for [Anonymous Symbol]
    string.cpp.o(.text._ZNKSt3__212basic_stringIwNS_11char_traitsIwEENS_9allocatorIwEEE7compareEjjPKw) refers (Special) to _printf_f.o(.ARM.Collect$$_printf_percent$$00000003) for _printf_f
    string.cpp.o(.text._ZNKSt3__212basic_stringIwNS_11char_traitsIwEENS_9allocatorIwEEE7compareEjjPKw) refers (Special) to printf1.o(x$fpl$printf1) for _printf_fp_dec
    string.cpp.o(.text._ZNKSt3__212basic_stringIwNS_11char_traitsIwEENS_9allocatorIwEEE7compareEjjPKw) refers (Special) to _printf_percent.o(.ARM.Collect$$_printf_percent$$00000000) for _printf_percent
    string.cpp.o(.text._ZNKSt3__212basic_stringIwNS_11char_traitsIwEENS_9allocatorIwEEE7compareEjjPKw) refers (Special) to _printf_s.o(.ARM.Collect$$_printf_percent$$00000014) for _printf_s
    string.cpp.o(.text._ZNKSt3__212basic_stringIwNS_11char_traitsIwEENS_9allocatorIwEEE7compareEjjPKw) refers (Special) to _printf_str.o(.text) for _printf_str
    string.cpp.o(.text._ZNKSt3__212basic_stringIwNS_11char_traitsIwEENS_9allocatorIwEEE7compareEjjPKw) refers to wcslen.o(.text) for wcslen
    string.cpp.o(.text._ZNKSt3__212basic_stringIwNS_11char_traitsIwEENS_9allocatorIwEEE7compareEjjPKw) refers to string.cpp.o(.text._ZNKSt3__212basic_stringIwNS_11char_traitsIwEENS_9allocatorIwEEE7compareEjjPKwj) for std::__2::basic_string<wchar_t, std::__2::char_traits<wchar_t>, std::__2::allocator<wchar_t> >::compare(unsigned int, unsigned int, wchar_t const*, unsigned int) const
    string.cpp.o(.ARM.exidx.text._ZNKSt3__212basic_stringIwNS_11char_traitsIwEENS_9allocatorIwEEE7compareEjjPKw) refers (Special) to _printf_f.o(.ARM.Collect$$_printf_percent$$00000003) for _printf_f
    string.cpp.o(.ARM.exidx.text._ZNKSt3__212basic_stringIwNS_11char_traitsIwEENS_9allocatorIwEEE7compareEjjPKw) refers (Special) to printf1.o(x$fpl$printf1) for _printf_fp_dec
    string.cpp.o(.ARM.exidx.text._ZNKSt3__212basic_stringIwNS_11char_traitsIwEENS_9allocatorIwEEE7compareEjjPKw) refers (Special) to _printf_percent.o(.ARM.Collect$$_printf_percent$$00000000) for _printf_percent
    string.cpp.o(.ARM.exidx.text._ZNKSt3__212basic_stringIwNS_11char_traitsIwEENS_9allocatorIwEEE7compareEjjPKw) refers (Special) to _printf_s.o(.ARM.Collect$$_printf_percent$$00000014) for _printf_s
    string.cpp.o(.ARM.exidx.text._ZNKSt3__212basic_stringIwNS_11char_traitsIwEENS_9allocatorIwEEE7compareEjjPKw) refers (Special) to _printf_str.o(.text) for _printf_str
    string.cpp.o(.ARM.exidx.text._ZNKSt3__212basic_stringIwNS_11char_traitsIwEENS_9allocatorIwEEE7compareEjjPKw) refers to string.cpp.o(.text._ZNKSt3__212basic_stringIwNS_11char_traitsIwEENS_9allocatorIwEEE7compareEjjPKw) for [Anonymous Symbol]
    string.cpp.o(.text._ZNSt3__212basic_stringIwNS_11char_traitsIwEENS_9allocatorIwEEE2atEj) refers (Special) to _printf_f.o(.ARM.Collect$$_printf_percent$$00000003) for _printf_f
    string.cpp.o(.text._ZNSt3__212basic_stringIwNS_11char_traitsIwEENS_9allocatorIwEEE2atEj) refers (Special) to printf1.o(x$fpl$printf1) for _printf_fp_dec
    string.cpp.o(.text._ZNSt3__212basic_stringIwNS_11char_traitsIwEENS_9allocatorIwEEE2atEj) refers (Special) to _printf_percent.o(.ARM.Collect$$_printf_percent$$00000000) for _printf_percent
    string.cpp.o(.text._ZNSt3__212basic_stringIwNS_11char_traitsIwEENS_9allocatorIwEEE2atEj) refers (Special) to _printf_s.o(.ARM.Collect$$_printf_percent$$00000014) for _printf_s
    string.cpp.o(.text._ZNSt3__212basic_stringIwNS_11char_traitsIwEENS_9allocatorIwEEE2atEj) refers (Special) to _printf_str.o(.text) for _printf_str
    string.cpp.o(.text._ZNSt3__212basic_stringIwNS_11char_traitsIwEENS_9allocatorIwEEE2atEj) refers to abort.o(.text) for abort
    string.cpp.o(.ARM.exidx.text._ZNSt3__212basic_stringIwNS_11char_traitsIwEENS_9allocatorIwEEE2atEj) refers (Special) to _printf_f.o(.ARM.Collect$$_printf_percent$$00000003) for _printf_f
    string.cpp.o(.ARM.exidx.text._ZNSt3__212basic_stringIwNS_11char_traitsIwEENS_9allocatorIwEEE2atEj) refers (Special) to printf1.o(x$fpl$printf1) for _printf_fp_dec
    string.cpp.o(.ARM.exidx.text._ZNSt3__212basic_stringIwNS_11char_traitsIwEENS_9allocatorIwEEE2atEj) refers (Special) to _printf_percent.o(.ARM.Collect$$_printf_percent$$00000000) for _printf_percent
    string.cpp.o(.ARM.exidx.text._ZNSt3__212basic_stringIwNS_11char_traitsIwEENS_9allocatorIwEEE2atEj) refers (Special) to _printf_s.o(.ARM.Collect$$_printf_percent$$00000014) for _printf_s
    string.cpp.o(.ARM.exidx.text._ZNSt3__212basic_stringIwNS_11char_traitsIwEENS_9allocatorIwEEE2atEj) refers (Special) to _printf_str.o(.text) for _printf_str
    string.cpp.o(.ARM.exidx.text._ZNSt3__212basic_stringIwNS_11char_traitsIwEENS_9allocatorIwEEE2atEj) refers to string.cpp.o(.text._ZNSt3__212basic_stringIwNS_11char_traitsIwEENS_9allocatorIwEEE2atEj) for [Anonymous Symbol]
    string.cpp.o(.text._ZNKSt3__212basic_stringIwNS_11char_traitsIwEENS_9allocatorIwEEE4findEPKwjj) refers (Special) to _printf_f.o(.ARM.Collect$$_printf_percent$$00000003) for _printf_f
    string.cpp.o(.text._ZNKSt3__212basic_stringIwNS_11char_traitsIwEENS_9allocatorIwEEE4findEPKwjj) refers (Special) to printf1.o(x$fpl$printf1) for _printf_fp_dec
    string.cpp.o(.text._ZNKSt3__212basic_stringIwNS_11char_traitsIwEENS_9allocatorIwEEE4findEPKwjj) refers (Special) to _printf_percent.o(.ARM.Collect$$_printf_percent$$00000000) for _printf_percent
    string.cpp.o(.text._ZNKSt3__212basic_stringIwNS_11char_traitsIwEENS_9allocatorIwEEE4findEPKwjj) refers (Special) to _printf_s.o(.ARM.Collect$$_printf_percent$$00000014) for _printf_s
    string.cpp.o(.text._ZNKSt3__212basic_stringIwNS_11char_traitsIwEENS_9allocatorIwEEE4findEPKwjj) refers (Special) to _printf_str.o(.text) for _printf_str
    string.cpp.o(.text._ZNKSt3__212basic_stringIwNS_11char_traitsIwEENS_9allocatorIwEEE4findEPKwjj) refers to wmemchr.o(.text) for wmemchr
    string.cpp.o(.text._ZNKSt3__212basic_stringIwNS_11char_traitsIwEENS_9allocatorIwEEE4findEPKwjj) refers to wmemcmp.o(.text) for wmemcmp
    string.cpp.o(.ARM.exidx.text._ZNKSt3__212basic_stringIwNS_11char_traitsIwEENS_9allocatorIwEEE4findEPKwjj) refers (Special) to _printf_f.o(.ARM.Collect$$_printf_percent$$00000003) for _printf_f
    string.cpp.o(.ARM.exidx.text._ZNKSt3__212basic_stringIwNS_11char_traitsIwEENS_9allocatorIwEEE4findEPKwjj) refers (Special) to printf1.o(x$fpl$printf1) for _printf_fp_dec
    string.cpp.o(.ARM.exidx.text._ZNKSt3__212basic_stringIwNS_11char_traitsIwEENS_9allocatorIwEEE4findEPKwjj) refers (Special) to _printf_percent.o(.ARM.Collect$$_printf_percent$$00000000) for _printf_percent
    string.cpp.o(.ARM.exidx.text._ZNKSt3__212basic_stringIwNS_11char_traitsIwEENS_9allocatorIwEEE4findEPKwjj) refers (Special) to _printf_s.o(.ARM.Collect$$_printf_percent$$00000014) for _printf_s
    string.cpp.o(.ARM.exidx.text._ZNKSt3__212basic_stringIwNS_11char_traitsIwEENS_9allocatorIwEEE4findEPKwjj) refers (Special) to _printf_str.o(.text) for _printf_str
    string.cpp.o(.ARM.exidx.text._ZNKSt3__212basic_stringIwNS_11char_traitsIwEENS_9allocatorIwEEE4findEPKwjj) refers to string.cpp.o(.text._ZNKSt3__212basic_stringIwNS_11char_traitsIwEENS_9allocatorIwEEE4findEPKwjj) for [Anonymous Symbol]
    string.cpp.o(.text._ZNKSt3__212basic_stringIwNS_11char_traitsIwEENS_9allocatorIwEEE7compareEjjRKS5_jj) refers (Special) to _printf_f.o(.ARM.Collect$$_printf_percent$$00000003) for _printf_f
    string.cpp.o(.text._ZNKSt3__212basic_stringIwNS_11char_traitsIwEENS_9allocatorIwEEE7compareEjjRKS5_jj) refers (Special) to printf1.o(x$fpl$printf1) for _printf_fp_dec
    string.cpp.o(.text._ZNKSt3__212basic_stringIwNS_11char_traitsIwEENS_9allocatorIwEEE7compareEjjRKS5_jj) refers (Special) to _printf_percent.o(.ARM.Collect$$_printf_percent$$00000000) for _printf_percent
    string.cpp.o(.text._ZNKSt3__212basic_stringIwNS_11char_traitsIwEENS_9allocatorIwEEE7compareEjjRKS5_jj) refers (Special) to _printf_s.o(.ARM.Collect$$_printf_percent$$00000014) for _printf_s
    string.cpp.o(.text._ZNKSt3__212basic_stringIwNS_11char_traitsIwEENS_9allocatorIwEEE7compareEjjRKS5_jj) refers (Special) to _printf_str.o(.text) for _printf_str
    string.cpp.o(.text._ZNKSt3__212basic_stringIwNS_11char_traitsIwEENS_9allocatorIwEEE7compareEjjRKS5_jj) refers to string.cpp.o(.text._ZNKSt3__217basic_string_viewIwNS_11char_traitsIwEEE7compareES3_) for std::__2::basic_string_view<wchar_t, std::__2::char_traits<wchar_t> >::compare(std::__2::basic_string_view<wchar_t, std::__2::char_traits<wchar_t> >) const
    string.cpp.o(.text._ZNKSt3__212basic_stringIwNS_11char_traitsIwEENS_9allocatorIwEEE7compareEjjRKS5_jj) refers to abort.o(.text) for abort
    string.cpp.o(.ARM.exidx.text._ZNKSt3__212basic_stringIwNS_11char_traitsIwEENS_9allocatorIwEEE7compareEjjRKS5_jj) refers (Special) to _printf_f.o(.ARM.Collect$$_printf_percent$$00000003) for _printf_f
    string.cpp.o(.ARM.exidx.text._ZNKSt3__212basic_stringIwNS_11char_traitsIwEENS_9allocatorIwEEE7compareEjjRKS5_jj) refers (Special) to printf1.o(x$fpl$printf1) for _printf_fp_dec
    string.cpp.o(.ARM.exidx.text._ZNKSt3__212basic_stringIwNS_11char_traitsIwEENS_9allocatorIwEEE7compareEjjRKS5_jj) refers (Special) to _printf_percent.o(.ARM.Collect$$_printf_percent$$00000000) for _printf_percent
    string.cpp.o(.ARM.exidx.text._ZNKSt3__212basic_stringIwNS_11char_traitsIwEENS_9allocatorIwEEE7compareEjjRKS5_jj) refers (Special) to _printf_s.o(.ARM.Collect$$_printf_percent$$00000014) for _printf_s
    string.cpp.o(.ARM.exidx.text._ZNKSt3__212basic_stringIwNS_11char_traitsIwEENS_9allocatorIwEEE7compareEjjRKS5_jj) refers (Special) to _printf_str.o(.text) for _printf_str
    string.cpp.o(.ARM.exidx.text._ZNKSt3__212basic_stringIwNS_11char_traitsIwEENS_9allocatorIwEEE7compareEjjRKS5_jj) refers to string.cpp.o(.text._ZNKSt3__212basic_stringIwNS_11char_traitsIwEENS_9allocatorIwEEE7compareEjjRKS5_jj) for [Anonymous Symbol]
    string.cpp.o(.text._ZNSt3__212basic_stringIwNS_11char_traitsIwEENS_9allocatorIwEEE6appendEPKw) refers (Special) to _printf_f.o(.ARM.Collect$$_printf_percent$$00000003) for _printf_f
    string.cpp.o(.text._ZNSt3__212basic_stringIwNS_11char_traitsIwEENS_9allocatorIwEEE6appendEPKw) refers (Special) to printf1.o(x$fpl$printf1) for _printf_fp_dec
    string.cpp.o(.text._ZNSt3__212basic_stringIwNS_11char_traitsIwEENS_9allocatorIwEEE6appendEPKw) refers (Special) to _printf_percent.o(.ARM.Collect$$_printf_percent$$00000000) for _printf_percent
    string.cpp.o(.text._ZNSt3__212basic_stringIwNS_11char_traitsIwEENS_9allocatorIwEEE6appendEPKw) refers (Special) to _printf_s.o(.ARM.Collect$$_printf_percent$$00000014) for _printf_s
    string.cpp.o(.text._ZNSt3__212basic_stringIwNS_11char_traitsIwEENS_9allocatorIwEEE6appendEPKw) refers (Special) to _printf_str.o(.text) for _printf_str
    string.cpp.o(.text._ZNSt3__212basic_stringIwNS_11char_traitsIwEENS_9allocatorIwEEE6appendEPKw) refers to wcslen.o(.text) for wcslen
    string.cpp.o(.text._ZNSt3__212basic_stringIwNS_11char_traitsIwEENS_9allocatorIwEEE6appendEPKw) refers to string.cpp.o(.text._ZNSt3__212basic_stringIwNS_11char_traitsIwEENS_9allocatorIwEEE6appendEPKwj) for std::__2::basic_string<wchar_t, std::__2::char_traits<wchar_t>, std::__2::allocator<wchar_t> >::append(wchar_t const*, unsigned int)
    string.cpp.o(.ARM.exidx.text._ZNSt3__212basic_stringIwNS_11char_traitsIwEENS_9allocatorIwEEE6appendEPKw) refers (Special) to _printf_f.o(.ARM.Collect$$_printf_percent$$00000003) for _printf_f
    string.cpp.o(.ARM.exidx.text._ZNSt3__212basic_stringIwNS_11char_traitsIwEENS_9allocatorIwEEE6appendEPKw) refers (Special) to printf1.o(x$fpl$printf1) for _printf_fp_dec
    string.cpp.o(.ARM.exidx.text._ZNSt3__212basic_stringIwNS_11char_traitsIwEENS_9allocatorIwEEE6appendEPKw) refers (Special) to _printf_percent.o(.ARM.Collect$$_printf_percent$$00000000) for _printf_percent
    string.cpp.o(.ARM.exidx.text._ZNSt3__212basic_stringIwNS_11char_traitsIwEENS_9allocatorIwEEE6appendEPKw) refers (Special) to _printf_s.o(.ARM.Collect$$_printf_percent$$00000014) for _printf_s
    string.cpp.o(.ARM.exidx.text._ZNSt3__212basic_stringIwNS_11char_traitsIwEENS_9allocatorIwEEE6appendEPKw) refers (Special) to _printf_str.o(.text) for _printf_str
    string.cpp.o(.ARM.exidx.text._ZNSt3__212basic_stringIwNS_11char_traitsIwEENS_9allocatorIwEEE6appendEPKw) refers to string.cpp.o(.text._ZNSt3__212basic_stringIwNS_11char_traitsIwEENS_9allocatorIwEEE6appendEPKw) for [Anonymous Symbol]
    string.cpp.o(.text._ZNSt3__212basic_stringIwNS_11char_traitsIwEENS_9allocatorIwEEE7replaceEjjRKS5_jj) refers (Special) to _printf_f.o(.ARM.Collect$$_printf_percent$$00000003) for _printf_f
    string.cpp.o(.text._ZNSt3__212basic_stringIwNS_11char_traitsIwEENS_9allocatorIwEEE7replaceEjjRKS5_jj) refers (Special) to printf1.o(x$fpl$printf1) for _printf_fp_dec
    string.cpp.o(.text._ZNSt3__212basic_stringIwNS_11char_traitsIwEENS_9allocatorIwEEE7replaceEjjRKS5_jj) refers (Special) to _printf_percent.o(.ARM.Collect$$_printf_percent$$00000000) for _printf_percent
    string.cpp.o(.text._ZNSt3__212basic_stringIwNS_11char_traitsIwEENS_9allocatorIwEEE7replaceEjjRKS5_jj) refers (Special) to _printf_s.o(.ARM.Collect$$_printf_percent$$00000014) for _printf_s
    string.cpp.o(.text._ZNSt3__212basic_stringIwNS_11char_traitsIwEENS_9allocatorIwEEE7replaceEjjRKS5_jj) refers (Special) to _printf_str.o(.text) for _printf_str
    string.cpp.o(.text._ZNSt3__212basic_stringIwNS_11char_traitsIwEENS_9allocatorIwEEE7replaceEjjRKS5_jj) refers to string.cpp.o(.text._ZNSt3__212basic_stringIwNS_11char_traitsIwEENS_9allocatorIwEEE7replaceEjjPKwj) for std::__2::basic_string<wchar_t, std::__2::char_traits<wchar_t>, std::__2::allocator<wchar_t> >::replace(unsigned int, unsigned int, wchar_t const*, unsigned int)
    string.cpp.o(.text._ZNSt3__212basic_stringIwNS_11char_traitsIwEENS_9allocatorIwEEE7replaceEjjRKS5_jj) refers to abort.o(.text) for abort
    string.cpp.o(.ARM.exidx.text._ZNSt3__212basic_stringIwNS_11char_traitsIwEENS_9allocatorIwEEE7replaceEjjRKS5_jj) refers (Special) to _printf_f.o(.ARM.Collect$$_printf_percent$$00000003) for _printf_f
    string.cpp.o(.ARM.exidx.text._ZNSt3__212basic_stringIwNS_11char_traitsIwEENS_9allocatorIwEEE7replaceEjjRKS5_jj) refers (Special) to printf1.o(x$fpl$printf1) for _printf_fp_dec
    string.cpp.o(.ARM.exidx.text._ZNSt3__212basic_stringIwNS_11char_traitsIwEENS_9allocatorIwEEE7replaceEjjRKS5_jj) refers (Special) to _printf_percent.o(.ARM.Collect$$_printf_percent$$00000000) for _printf_percent
    string.cpp.o(.ARM.exidx.text._ZNSt3__212basic_stringIwNS_11char_traitsIwEENS_9allocatorIwEEE7replaceEjjRKS5_jj) refers (Special) to _printf_s.o(.ARM.Collect$$_printf_percent$$00000014) for _printf_s
    string.cpp.o(.ARM.exidx.text._ZNSt3__212basic_stringIwNS_11char_traitsIwEENS_9allocatorIwEEE7replaceEjjRKS5_jj) refers (Special) to _printf_str.o(.text) for _printf_str
    string.cpp.o(.ARM.exidx.text._ZNSt3__212basic_stringIwNS_11char_traitsIwEENS_9allocatorIwEEE7replaceEjjRKS5_jj) refers to string.cpp.o(.text._ZNSt3__212basic_stringIwNS_11char_traitsIwEENS_9allocatorIwEEE7replaceEjjRKS5_jj) for [Anonymous Symbol]
    string.cpp.o(.text._ZNSt3__212basic_stringIwNS_11char_traitsIwEENS_9allocatorIwEEE6insertENS_11__wrap_iterIPKwEEw) refers (Special) to _printf_f.o(.ARM.Collect$$_printf_percent$$00000003) for _printf_f
    string.cpp.o(.text._ZNSt3__212basic_stringIwNS_11char_traitsIwEENS_9allocatorIwEEE6insertENS_11__wrap_iterIPKwEEw) refers (Special) to printf1.o(x$fpl$printf1) for _printf_fp_dec
    string.cpp.o(.text._ZNSt3__212basic_stringIwNS_11char_traitsIwEENS_9allocatorIwEEE6insertENS_11__wrap_iterIPKwEEw) refers (Special) to _printf_percent.o(.ARM.Collect$$_printf_percent$$00000000) for _printf_percent
    string.cpp.o(.text._ZNSt3__212basic_stringIwNS_11char_traitsIwEENS_9allocatorIwEEE6insertENS_11__wrap_iterIPKwEEw) refers (Special) to _printf_s.o(.ARM.Collect$$_printf_percent$$00000014) for _printf_s
    string.cpp.o(.text._ZNSt3__212basic_stringIwNS_11char_traitsIwEENS_9allocatorIwEEE6insertENS_11__wrap_iterIPKwEEw) refers (Special) to _printf_str.o(.text) for _printf_str
    string.cpp.o(.text._ZNSt3__212basic_stringIwNS_11char_traitsIwEENS_9allocatorIwEEE6insertENS_11__wrap_iterIPKwEEw) refers to string.cpp.o(.text._ZNSt3__212basic_stringIwNS_11char_traitsIwEENS_9allocatorIwEEE9__grow_byEjjjjjj) for std::__2::basic_string<wchar_t, std::__2::char_traits<wchar_t>, std::__2::allocator<wchar_t> >::__grow_by(unsigned int, unsigned int, unsigned int, unsigned int, unsigned int, unsigned int)
    string.cpp.o(.text._ZNSt3__212basic_stringIwNS_11char_traitsIwEENS_9allocatorIwEEE6insertENS_11__wrap_iterIPKwEEw) refers to wmemmove.o(.text) for wmemmove
    string.cpp.o(.ARM.exidx.text._ZNSt3__212basic_stringIwNS_11char_traitsIwEENS_9allocatorIwEEE6insertENS_11__wrap_iterIPKwEEw) refers (Special) to _printf_f.o(.ARM.Collect$$_printf_percent$$00000003) for _printf_f
    string.cpp.o(.ARM.exidx.text._ZNSt3__212basic_stringIwNS_11char_traitsIwEENS_9allocatorIwEEE6insertENS_11__wrap_iterIPKwEEw) refers (Special) to printf1.o(x$fpl$printf1) for _printf_fp_dec
    string.cpp.o(.ARM.exidx.text._ZNSt3__212basic_stringIwNS_11char_traitsIwEENS_9allocatorIwEEE6insertENS_11__wrap_iterIPKwEEw) refers (Special) to _printf_percent.o(.ARM.Collect$$_printf_percent$$00000000) for _printf_percent
    string.cpp.o(.ARM.exidx.text._ZNSt3__212basic_stringIwNS_11char_traitsIwEENS_9allocatorIwEEE6insertENS_11__wrap_iterIPKwEEw) refers (Special) to _printf_s.o(.ARM.Collect$$_printf_percent$$00000014) for _printf_s
    string.cpp.o(.ARM.exidx.text._ZNSt3__212basic_stringIwNS_11char_traitsIwEENS_9allocatorIwEEE6insertENS_11__wrap_iterIPKwEEw) refers (Special) to _printf_str.o(.text) for _printf_str
    string.cpp.o(.ARM.exidx.text._ZNSt3__212basic_stringIwNS_11char_traitsIwEENS_9allocatorIwEEE6insertENS_11__wrap_iterIPKwEEw) refers to string.cpp.o(.text._ZNSt3__212basic_stringIwNS_11char_traitsIwEENS_9allocatorIwEEE6insertENS_11__wrap_iterIPKwEEw) for [Anonymous Symbol]
    string.cpp.o(.text._ZNSt3__212basic_stringIwNS_11char_traitsIwEENS_9allocatorIwEEE6resizeEjw) refers (Special) to _printf_f.o(.ARM.Collect$$_printf_percent$$00000003) for _printf_f
    string.cpp.o(.text._ZNSt3__212basic_stringIwNS_11char_traitsIwEENS_9allocatorIwEEE6resizeEjw) refers (Special) to printf1.o(x$fpl$printf1) for _printf_fp_dec
    string.cpp.o(.text._ZNSt3__212basic_stringIwNS_11char_traitsIwEENS_9allocatorIwEEE6resizeEjw) refers (Special) to _printf_percent.o(.ARM.Collect$$_printf_percent$$00000000) for _printf_percent
    string.cpp.o(.text._ZNSt3__212basic_stringIwNS_11char_traitsIwEENS_9allocatorIwEEE6resizeEjw) refers (Special) to _printf_s.o(.ARM.Collect$$_printf_percent$$00000014) for _printf_s
    string.cpp.o(.text._ZNSt3__212basic_stringIwNS_11char_traitsIwEENS_9allocatorIwEEE6resizeEjw) refers (Special) to _printf_str.o(.text) for _printf_str
    string.cpp.o(.text._ZNSt3__212basic_stringIwNS_11char_traitsIwEENS_9allocatorIwEEE6resizeEjw) refers to string.cpp.o(.text._ZNSt3__212basic_stringIwNS_11char_traitsIwEENS_9allocatorIwEEE6appendEjw) for std::__2::basic_string<wchar_t, std::__2::char_traits<wchar_t>, std::__2::allocator<wchar_t> >::append(unsigned int, wchar_t)
    string.cpp.o(.ARM.exidx.text._ZNSt3__212basic_stringIwNS_11char_traitsIwEENS_9allocatorIwEEE6resizeEjw) refers (Special) to _printf_f.o(.ARM.Collect$$_printf_percent$$00000003) for _printf_f
    string.cpp.o(.ARM.exidx.text._ZNSt3__212basic_stringIwNS_11char_traitsIwEENS_9allocatorIwEEE6resizeEjw) refers (Special) to printf1.o(x$fpl$printf1) for _printf_fp_dec
    string.cpp.o(.ARM.exidx.text._ZNSt3__212basic_stringIwNS_11char_traitsIwEENS_9allocatorIwEEE6resizeEjw) refers (Special) to _printf_percent.o(.ARM.Collect$$_printf_percent$$00000000) for _printf_percent
    string.cpp.o(.ARM.exidx.text._ZNSt3__212basic_stringIwNS_11char_traitsIwEENS_9allocatorIwEEE6resizeEjw) refers (Special) to _printf_s.o(.ARM.Collect$$_printf_percent$$00000014) for _printf_s
    string.cpp.o(.ARM.exidx.text._ZNSt3__212basic_stringIwNS_11char_traitsIwEENS_9allocatorIwEEE6resizeEjw) refers (Special) to _printf_str.o(.text) for _printf_str
    string.cpp.o(.ARM.exidx.text._ZNSt3__212basic_stringIwNS_11char_traitsIwEENS_9allocatorIwEEE6resizeEjw) refers to string.cpp.o(.text._ZNSt3__212basic_stringIwNS_11char_traitsIwEENS_9allocatorIwEEE6resizeEjw) for [Anonymous Symbol]
    string.cpp.o(.text._ZNSt3__212basic_stringIwNS_11char_traitsIwEENS_9allocatorIwEEE6insertEjRKS5_jj) refers (Special) to _printf_f.o(.ARM.Collect$$_printf_percent$$00000003) for _printf_f
    string.cpp.o(.text._ZNSt3__212basic_stringIwNS_11char_traitsIwEENS_9allocatorIwEEE6insertEjRKS5_jj) refers (Special) to printf1.o(x$fpl$printf1) for _printf_fp_dec
    string.cpp.o(.text._ZNSt3__212basic_stringIwNS_11char_traitsIwEENS_9allocatorIwEEE6insertEjRKS5_jj) refers (Special) to _printf_percent.o(.ARM.Collect$$_printf_percent$$00000000) for _printf_percent
    string.cpp.o(.text._ZNSt3__212basic_stringIwNS_11char_traitsIwEENS_9allocatorIwEEE6insertEjRKS5_jj) refers (Special) to _printf_s.o(.ARM.Collect$$_printf_percent$$00000014) for _printf_s
    string.cpp.o(.text._ZNSt3__212basic_stringIwNS_11char_traitsIwEENS_9allocatorIwEEE6insertEjRKS5_jj) refers (Special) to _printf_str.o(.text) for _printf_str
    string.cpp.o(.text._ZNSt3__212basic_stringIwNS_11char_traitsIwEENS_9allocatorIwEEE6insertEjRKS5_jj) refers to string.cpp.o(.text._ZNSt3__212basic_stringIwNS_11char_traitsIwEENS_9allocatorIwEEE6insertEjPKwj) for std::__2::basic_string<wchar_t, std::__2::char_traits<wchar_t>, std::__2::allocator<wchar_t> >::insert(unsigned int, wchar_t const*, unsigned int)
    string.cpp.o(.text._ZNSt3__212basic_stringIwNS_11char_traitsIwEENS_9allocatorIwEEE6insertEjRKS5_jj) refers to abort.o(.text) for abort
    string.cpp.o(.ARM.exidx.text._ZNSt3__212basic_stringIwNS_11char_traitsIwEENS_9allocatorIwEEE6insertEjRKS5_jj) refers (Special) to _printf_f.o(.ARM.Collect$$_printf_percent$$00000003) for _printf_f
    string.cpp.o(.ARM.exidx.text._ZNSt3__212basic_stringIwNS_11char_traitsIwEENS_9allocatorIwEEE6insertEjRKS5_jj) refers (Special) to printf1.o(x$fpl$printf1) for _printf_fp_dec
    string.cpp.o(.ARM.exidx.text._ZNSt3__212basic_stringIwNS_11char_traitsIwEENS_9allocatorIwEEE6insertEjRKS5_jj) refers (Special) to _printf_percent.o(.ARM.Collect$$_printf_percent$$00000000) for _printf_percent
    string.cpp.o(.ARM.exidx.text._ZNSt3__212basic_stringIwNS_11char_traitsIwEENS_9allocatorIwEEE6insertEjRKS5_jj) refers (Special) to _printf_s.o(.ARM.Collect$$_printf_percent$$00000014) for _printf_s
    string.cpp.o(.ARM.exidx.text._ZNSt3__212basic_stringIwNS_11char_traitsIwEENS_9allocatorIwEEE6insertEjRKS5_jj) refers (Special) to _printf_str.o(.text) for _printf_str
    string.cpp.o(.ARM.exidx.text._ZNSt3__212basic_stringIwNS_11char_traitsIwEENS_9allocatorIwEEE6insertEjRKS5_jj) refers to string.cpp.o(.text._ZNSt3__212basic_stringIwNS_11char_traitsIwEENS_9allocatorIwEEE6insertEjRKS5_jj) for [Anonymous Symbol]
    string.cpp.o(.text._ZNSt3__2plIcNS_11char_traitsIcEENS_9allocatorIcEEEENS_12basic_stringIT_T0_T1_EEPKS6_RKS9_) refers (Special) to _printf_f.o(.ARM.Collect$$_printf_percent$$00000003) for _printf_f
    string.cpp.o(.text._ZNSt3__2plIcNS_11char_traitsIcEENS_9allocatorIcEEEENS_12basic_stringIT_T0_T1_EEPKS6_RKS9_) refers (Special) to printf1.o(x$fpl$printf1) for _printf_fp_dec
    string.cpp.o(.text._ZNSt3__2plIcNS_11char_traitsIcEENS_9allocatorIcEEEENS_12basic_stringIT_T0_T1_EEPKS6_RKS9_) refers (Special) to _printf_percent.o(.ARM.Collect$$_printf_percent$$00000000) for _printf_percent
    string.cpp.o(.text._ZNSt3__2plIcNS_11char_traitsIcEENS_9allocatorIcEEEENS_12basic_stringIT_T0_T1_EEPKS6_RKS9_) refers (Special) to _printf_s.o(.ARM.Collect$$_printf_percent$$00000014) for _printf_s
    string.cpp.o(.text._ZNSt3__2plIcNS_11char_traitsIcEENS_9allocatorIcEEEENS_12basic_stringIT_T0_T1_EEPKS6_RKS9_) refers (Special) to _printf_str.o(.text) for _printf_str
    string.cpp.o(.text._ZNSt3__2plIcNS_11char_traitsIcEENS_9allocatorIcEEEENS_12basic_stringIT_T0_T1_EEPKS6_RKS9_) refers to strlen.o(.text) for strlen
    string.cpp.o(.text._ZNSt3__2plIcNS_11char_traitsIcEENS_9allocatorIcEEEENS_12basic_stringIT_T0_T1_EEPKS6_RKS9_) refers to new.cpp.o(.text._Znwj) for operator new(unsigned int)
    string.cpp.o(.text._ZNSt3__2plIcNS_11char_traitsIcEENS_9allocatorIcEEEENS_12basic_stringIT_T0_T1_EEPKS6_RKS9_) refers to rt_memcpy_v6.o(.text) for __aeabi_memcpy
    string.cpp.o(.text._ZNSt3__2plIcNS_11char_traitsIcEENS_9allocatorIcEEEENS_12basic_stringIT_T0_T1_EEPKS6_RKS9_) refers to string.cpp.o(.text._ZNSt3__212basic_stringIcNS_11char_traitsIcEENS_9allocatorIcEEE6appendEPKcj) for std::__2::basic_string<char, std::__2::char_traits<char>, std::__2::allocator<char> >::append(char const*, unsigned int)
    string.cpp.o(.text._ZNSt3__2plIcNS_11char_traitsIcEENS_9allocatorIcEEEENS_12basic_stringIT_T0_T1_EEPKS6_RKS9_) refers to abort.o(.text) for abort
    string.cpp.o(.ARM.exidx.text._ZNSt3__2plIcNS_11char_traitsIcEENS_9allocatorIcEEEENS_12basic_stringIT_T0_T1_EEPKS6_RKS9_) refers (Special) to _printf_f.o(.ARM.Collect$$_printf_percent$$00000003) for _printf_f
    string.cpp.o(.ARM.exidx.text._ZNSt3__2plIcNS_11char_traitsIcEENS_9allocatorIcEEEENS_12basic_stringIT_T0_T1_EEPKS6_RKS9_) refers (Special) to printf1.o(x$fpl$printf1) for _printf_fp_dec
    string.cpp.o(.ARM.exidx.text._ZNSt3__2plIcNS_11char_traitsIcEENS_9allocatorIcEEEENS_12basic_stringIT_T0_T1_EEPKS6_RKS9_) refers (Special) to _printf_percent.o(.ARM.Collect$$_printf_percent$$00000000) for _printf_percent
    string.cpp.o(.ARM.exidx.text._ZNSt3__2plIcNS_11char_traitsIcEENS_9allocatorIcEEEENS_12basic_stringIT_T0_T1_EEPKS6_RKS9_) refers (Special) to _printf_s.o(.ARM.Collect$$_printf_percent$$00000014) for _printf_s
    string.cpp.o(.ARM.exidx.text._ZNSt3__2plIcNS_11char_traitsIcEENS_9allocatorIcEEEENS_12basic_stringIT_T0_T1_EEPKS6_RKS9_) refers (Special) to _printf_str.o(.text) for _printf_str
    string.cpp.o(.ARM.exidx.text._ZNSt3__2plIcNS_11char_traitsIcEENS_9allocatorIcEEEENS_12basic_stringIT_T0_T1_EEPKS6_RKS9_) refers to string.cpp.o(.text._ZNSt3__2plIcNS_11char_traitsIcEENS_9allocatorIcEEEENS_12basic_stringIT_T0_T1_EEPKS6_RKS9_) for [Anonymous Symbol]
    string.cpp.o(.text._ZNKSt3__217basic_string_viewIcNS_11char_traitsIcEEE7compareES3_) refers (Special) to _printf_f.o(.ARM.Collect$$_printf_percent$$00000003) for _printf_f
    string.cpp.o(.text._ZNKSt3__217basic_string_viewIcNS_11char_traitsIcEEE7compareES3_) refers (Special) to printf1.o(x$fpl$printf1) for _printf_fp_dec
    string.cpp.o(.text._ZNKSt3__217basic_string_viewIcNS_11char_traitsIcEEE7compareES3_) refers (Special) to _printf_percent.o(.ARM.Collect$$_printf_percent$$00000000) for _printf_percent
    string.cpp.o(.text._ZNKSt3__217basic_string_viewIcNS_11char_traitsIcEEE7compareES3_) refers (Special) to _printf_s.o(.ARM.Collect$$_printf_percent$$00000014) for _printf_s
    string.cpp.o(.text._ZNKSt3__217basic_string_viewIcNS_11char_traitsIcEEE7compareES3_) refers (Special) to _printf_str.o(.text) for _printf_str
    string.cpp.o(.text._ZNKSt3__217basic_string_viewIcNS_11char_traitsIcEEE7compareES3_) refers to memcmp.o(.text) for memcmp
    string.cpp.o(.ARM.exidx.text._ZNKSt3__217basic_string_viewIcNS_11char_traitsIcEEE7compareES3_) refers (Special) to _printf_f.o(.ARM.Collect$$_printf_percent$$00000003) for _printf_f
    string.cpp.o(.ARM.exidx.text._ZNKSt3__217basic_string_viewIcNS_11char_traitsIcEEE7compareES3_) refers (Special) to printf1.o(x$fpl$printf1) for _printf_fp_dec
    string.cpp.o(.ARM.exidx.text._ZNKSt3__217basic_string_viewIcNS_11char_traitsIcEEE7compareES3_) refers (Special) to _printf_percent.o(.ARM.Collect$$_printf_percent$$00000000) for _printf_percent
    string.cpp.o(.ARM.exidx.text._ZNKSt3__217basic_string_viewIcNS_11char_traitsIcEEE7compareES3_) refers (Special) to _printf_s.o(.ARM.Collect$$_printf_percent$$00000014) for _printf_s
    string.cpp.o(.ARM.exidx.text._ZNKSt3__217basic_string_viewIcNS_11char_traitsIcEEE7compareES3_) refers (Special) to _printf_str.o(.text) for _printf_str
    string.cpp.o(.ARM.exidx.text._ZNKSt3__217basic_string_viewIcNS_11char_traitsIcEEE7compareES3_) refers to string.cpp.o(.text._ZNKSt3__217basic_string_viewIcNS_11char_traitsIcEEE7compareES3_) for [Anonymous Symbol]
    string.cpp.o(.text._ZNKSt3__217basic_string_viewIwNS_11char_traitsIwEEE7compareES3_) refers (Special) to _printf_f.o(.ARM.Collect$$_printf_percent$$00000003) for _printf_f
    string.cpp.o(.text._ZNKSt3__217basic_string_viewIwNS_11char_traitsIwEEE7compareES3_) refers (Special) to printf1.o(x$fpl$printf1) for _printf_fp_dec
    string.cpp.o(.text._ZNKSt3__217basic_string_viewIwNS_11char_traitsIwEEE7compareES3_) refers (Special) to _printf_percent.o(.ARM.Collect$$_printf_percent$$00000000) for _printf_percent
    string.cpp.o(.text._ZNKSt3__217basic_string_viewIwNS_11char_traitsIwEEE7compareES3_) refers (Special) to _printf_s.o(.ARM.Collect$$_printf_percent$$00000014) for _printf_s
    string.cpp.o(.text._ZNKSt3__217basic_string_viewIwNS_11char_traitsIwEEE7compareES3_) refers (Special) to _printf_str.o(.text) for _printf_str
    string.cpp.o(.text._ZNKSt3__217basic_string_viewIwNS_11char_traitsIwEEE7compareES3_) refers to wmemcmp.o(.text) for wmemcmp
    string.cpp.o(.ARM.exidx.text._ZNKSt3__217basic_string_viewIwNS_11char_traitsIwEEE7compareES3_) refers (Special) to _printf_f.o(.ARM.Collect$$_printf_percent$$00000003) for _printf_f
    string.cpp.o(.ARM.exidx.text._ZNKSt3__217basic_string_viewIwNS_11char_traitsIwEEE7compareES3_) refers (Special) to printf1.o(x$fpl$printf1) for _printf_fp_dec
    string.cpp.o(.ARM.exidx.text._ZNKSt3__217basic_string_viewIwNS_11char_traitsIwEEE7compareES3_) refers (Special) to _printf_percent.o(.ARM.Collect$$_printf_percent$$00000000) for _printf_percent
    string.cpp.o(.ARM.exidx.text._ZNKSt3__217basic_string_viewIwNS_11char_traitsIwEEE7compareES3_) refers (Special) to _printf_s.o(.ARM.Collect$$_printf_percent$$00000014) for _printf_s
    string.cpp.o(.ARM.exidx.text._ZNKSt3__217basic_string_viewIwNS_11char_traitsIwEEE7compareES3_) refers (Special) to _printf_str.o(.text) for _printf_str
    string.cpp.o(.ARM.exidx.text._ZNKSt3__217basic_string_viewIwNS_11char_traitsIwEEE7compareES3_) refers to string.cpp.o(.text._ZNKSt3__217basic_string_viewIwNS_11char_traitsIwEEE7compareES3_) for [Anonymous Symbol]
    string.cpp.o(.rodata._ZNSt3__212basic_stringIcNS_11char_traitsIcEENS_9allocatorIcEEE4nposE) refers (Special) to _printf_f.o(.ARM.Collect$$_printf_percent$$00000003) for _printf_f
    string.cpp.o(.rodata._ZNSt3__212basic_stringIcNS_11char_traitsIcEENS_9allocatorIcEEE4nposE) refers (Special) to printf1.o(x$fpl$printf1) for _printf_fp_dec
    string.cpp.o(.rodata._ZNSt3__212basic_stringIcNS_11char_traitsIcEENS_9allocatorIcEEE4nposE) refers (Special) to _printf_percent.o(.ARM.Collect$$_printf_percent$$00000000) for _printf_percent
    string.cpp.o(.rodata._ZNSt3__212basic_stringIcNS_11char_traitsIcEENS_9allocatorIcEEE4nposE) refers (Special) to _printf_s.o(.ARM.Collect$$_printf_percent$$00000014) for _printf_s
    string.cpp.o(.rodata._ZNSt3__212basic_stringIcNS_11char_traitsIcEENS_9allocatorIcEEE4nposE) refers (Special) to _printf_str.o(.text) for _printf_str
    string.cpp.o(.rodata._ZNSt3__212basic_stringIwNS_11char_traitsIwEENS_9allocatorIwEEE4nposE) refers (Special) to _printf_f.o(.ARM.Collect$$_printf_percent$$00000003) for _printf_f
    string.cpp.o(.rodata._ZNSt3__212basic_stringIwNS_11char_traitsIwEENS_9allocatorIwEEE4nposE) refers (Special) to printf1.o(x$fpl$printf1) for _printf_fp_dec
    string.cpp.o(.rodata._ZNSt3__212basic_stringIwNS_11char_traitsIwEENS_9allocatorIwEEE4nposE) refers (Special) to _printf_percent.o(.ARM.Collect$$_printf_percent$$00000000) for _printf_percent
    string.cpp.o(.rodata._ZNSt3__212basic_stringIwNS_11char_traitsIwEENS_9allocatorIwEEE4nposE) refers (Special) to _printf_s.o(.ARM.Collect$$_printf_percent$$00000014) for _printf_s
    string.cpp.o(.rodata._ZNSt3__212basic_stringIwNS_11char_traitsIwEENS_9allocatorIwEEE4nposE) refers (Special) to _printf_str.o(.text) for _printf_str
    vector.cpp.o(.ARM.exidx.text._ZNSt3__220__vector_base_commonILb1EEC2Ev) refers to vector.cpp.o(.text._ZNSt3__220__vector_base_commonILb1EEC2Ev) for [Anonymous Symbol]
    vector.cpp.o(.text._ZNKSt3__220__vector_base_commonILb1EE20__throw_length_errorEv) refers to abort.o(.text) for abort
    vector.cpp.o(.ARM.exidx.text._ZNKSt3__220__vector_base_commonILb1EE20__throw_length_errorEv) refers to vector.cpp.o(.text._ZNKSt3__220__vector_base_commonILb1EE20__throw_length_errorEv) for [Anonymous Symbol]
    vector.cpp.o(.text._ZNKSt3__220__vector_base_commonILb1EE20__throw_out_of_rangeEv) refers to abort.o(.text) for abort
    vector.cpp.o(.ARM.exidx.text._ZNKSt3__220__vector_base_commonILb1EE20__throw_out_of_rangeEv) refers to vector.cpp.o(.text._ZNKSt3__220__vector_base_commonILb1EE20__throw_out_of_rangeEv) for [Anonymous Symbol]


==============================================================================

Removing Unused input sections from the image.

    Removing battleship.o(.text), (0 bytes).
    Removing battleship.o(.ARM.exidx.text.main), (8 bytes).
    Removing battleship.o(.ARM.exidx.text._Z15configureClocksv), (8 bytes).
    Removing battleship.o(.ARM.exidx.text._Z11configureIOv), (8 bytes).
    Removing battleship.o(.ARM.exidx.text._Z10setupShipsv), (8 bytes).
    Removing battleship.o(.ARM.exidx.text._Z9turnonLEDi), (8 bytes).
    Removing battleship.o(.ARM.exidx.text._Z5Delayv), (8 bytes).
    Removing battleship.o(.ARM.exidx.text._Z15IsbuttonPressedv), (8 bytes).
    Removing battleship.o(.ARM.exidx.text._Z6Insertv), (8 bytes).
    Removing battleship.o(.ARM.exidx.text._Z11checkInputs8Location), (8 bytes).
    Removing battleship.o(.ARM.exidx.text._Z6attack8LocationRNSt3__26vectorINS0_12basic_stringIcNS0_11char_traitsIcEENS0_9allocatorIcEEEENS5_IS7_EEEE), (8 bytes).
    Removing battleship.o(.rodata.str1.4), (12 bytes).
    Removing battleship.o(.ARM.use_no_argv), (4 bytes).
    Removing io_hw.o(.text), (0 bytes).
    Removing io_hw.o(.text._Z10displaySeav), (2 bytes).
    Removing io_hw.o(.ARM.exidx.text._Z10displaySeav), (8 bytes).
    Removing system_stm32f10x.o(.text), (0 bytes).
    Removing system_stm32f10x.o(.ARM.exidx.text.SystemInit), (8 bytes).
    Removing system_stm32f10x.o(.ARM.exidx.text.SetSysClock), (8 bytes).
    Removing system_stm32f10x.o(.text.SystemCoreClockUpdate), (110 bytes).
    Removing system_stm32f10x.o(.ARM.exidx.text.SystemCoreClockUpdate), (8 bytes).
    Removing system_stm32f10x.o(.ARM.exidx.text.SetSysClockTo72), (8 bytes).
    Removing system_stm32f10x.o(.data.SystemCoreClock), (4 bytes).
    Removing system_stm32f10x.o(.rodata.AHBPrescTable), (16 bytes).
    Removing new.cpp.o(.text), (0 bytes).
    Removing new.cpp.o(.text._ZSt17__throw_bad_allocv), (4 bytes).
    Removing new.cpp.o(.ARM.exidx.text._ZSt17__throw_bad_allocv), (8 bytes).
    Removing new.cpp.o(.ARM.exidx.text._Znwj), (8 bytes).
    Removing new.cpp.o(.text._ZnwjRKSt9nothrow_t), (4 bytes).
    Removing new.cpp.o(.ARM.exidx.text._ZnwjRKSt9nothrow_t), (8 bytes).
    Removing new.cpp.o(.text._Znaj), (4 bytes).
    Removing new.cpp.o(.ARM.exidx.text._Znaj), (8 bytes).
    Removing new.cpp.o(.text._ZnajRKSt9nothrow_t), (4 bytes).
    Removing new.cpp.o(.ARM.exidx.text._ZnajRKSt9nothrow_t), (8 bytes).
    Removing new.cpp.o(.ARM.exidx.text._ZdlPv), (8 bytes).
    Removing new.cpp.o(.text._ZdlPvRKSt9nothrow_t), (4 bytes).
    Removing new.cpp.o(.ARM.exidx.text._ZdlPvRKSt9nothrow_t), (8 bytes).
    Removing new.cpp.o(.text._ZdlPvj), (4 bytes).
    Removing new.cpp.o(.ARM.exidx.text._ZdlPvj), (8 bytes).
    Removing new.cpp.o(.text._ZdaPv), (4 bytes).
    Removing new.cpp.o(.ARM.exidx.text._ZdaPv), (8 bytes).
    Removing new.cpp.o(.text._ZdaPvRKSt9nothrow_t), (4 bytes).
    Removing new.cpp.o(.ARM.exidx.text._ZdaPvRKSt9nothrow_t), (8 bytes).
    Removing new.cpp.o(.text._ZdaPvj), (4 bytes).
    Removing new.cpp.o(.ARM.exidx.text._ZdaPvj), (8 bytes).
    Removing new.cpp.o(.text._ZnwjSt11align_val_t), (74 bytes).
    Removing new.cpp.o(.ARM.exidx.text._ZnwjSt11align_val_t), (8 bytes).
    Removing new.cpp.o(.text._ZnwjSt11align_val_tRKSt9nothrow_t), (4 bytes).
    Removing new.cpp.o(.ARM.exidx.text._ZnwjSt11align_val_tRKSt9nothrow_t), (8 bytes).
    Removing new.cpp.o(.text._ZnajSt11align_val_t), (4 bytes).
    Removing new.cpp.o(.ARM.exidx.text._ZnajSt11align_val_t), (8 bytes).
    Removing new.cpp.o(.text._ZnajSt11align_val_tRKSt9nothrow_t), (4 bytes).
    Removing new.cpp.o(.ARM.exidx.text._ZnajSt11align_val_tRKSt9nothrow_t), (8 bytes).
    Removing new.cpp.o(.text._ZdlPvSt11align_val_t), (4 bytes).
    Removing new.cpp.o(.ARM.exidx.text._ZdlPvSt11align_val_t), (8 bytes).
    Removing new.cpp.o(.text._ZdlPvSt11align_val_tRKSt9nothrow_t), (4 bytes).
    Removing new.cpp.o(.ARM.exidx.text._ZdlPvSt11align_val_tRKSt9nothrow_t), (8 bytes).
    Removing new.cpp.o(.text._ZdlPvjSt11align_val_t), (6 bytes).
    Removing new.cpp.o(.ARM.exidx.text._ZdlPvjSt11align_val_t), (8 bytes).
    Removing new.cpp.o(.text._ZdaPvSt11align_val_t), (4 bytes).
    Removing new.cpp.o(.ARM.exidx.text._ZdaPvSt11align_val_t), (8 bytes).
    Removing new.cpp.o(.text._ZdaPvSt11align_val_tRKSt9nothrow_t), (4 bytes).
    Removing new.cpp.o(.ARM.exidx.text._ZdaPvSt11align_val_tRKSt9nothrow_t), (8 bytes).
    Removing new.cpp.o(.text._ZdaPvjSt11align_val_t), (6 bytes).
    Removing new.cpp.o(.ARM.exidx.text._ZdaPvjSt11align_val_t), (8 bytes).
    Removing new.cpp.o(.rodata._ZSt7nothrow), (1 bytes).
    Removing string.cpp.o(.text), (0 bytes).
    Removing string.cpp.o(.text._ZNSt3__24stoiERKNS_12basic_stringIcNS_11char_traitsIcEENS_9allocatorIcEEEEPji), (122 bytes).
    Removing string.cpp.o(.ARM.exidx.text._ZNSt3__24stoiERKNS_12basic_stringIcNS_11char_traitsIcEENS_9allocatorIcEEEEPji), (8 bytes).
    Removing string.cpp.o(.text._ZNSt3__24stoiERKNS_12basic_stringIwNS_11char_traitsIwEENS_9allocatorIwEEEEPji), (124 bytes).
    Removing string.cpp.o(.ARM.exidx.text._ZNSt3__24stoiERKNS_12basic_stringIwNS_11char_traitsIwEENS_9allocatorIwEEEEPji), (8 bytes).
    Removing string.cpp.o(.text._ZNSt3__24stolERKNS_12basic_stringIcNS_11char_traitsIcEENS_9allocatorIcEEEEPji), (122 bytes).
    Removing string.cpp.o(.ARM.exidx.text._ZNSt3__24stolERKNS_12basic_stringIcNS_11char_traitsIcEENS_9allocatorIcEEEEPji), (8 bytes).
    Removing string.cpp.o(.text._ZNSt3__24stolERKNS_12basic_stringIwNS_11char_traitsIwEENS_9allocatorIwEEEEPji), (124 bytes).
    Removing string.cpp.o(.ARM.exidx.text._ZNSt3__24stolERKNS_12basic_stringIwNS_11char_traitsIwEENS_9allocatorIwEEEEPji), (8 bytes).
    Removing string.cpp.o(.text._ZNSt3__25stoulERKNS_12basic_stringIcNS_11char_traitsIcEENS_9allocatorIcEEEEPji), (124 bytes).
    Removing string.cpp.o(.ARM.exidx.text._ZNSt3__25stoulERKNS_12basic_stringIcNS_11char_traitsIcEENS_9allocatorIcEEEEPji), (8 bytes).
    Removing string.cpp.o(.text._ZNSt3__25stoulERKNS_12basic_stringIwNS_11char_traitsIwEENS_9allocatorIwEEEEPji), (126 bytes).
    Removing string.cpp.o(.ARM.exidx.text._ZNSt3__25stoulERKNS_12basic_stringIwNS_11char_traitsIwEENS_9allocatorIwEEEEPji), (8 bytes).
    Removing string.cpp.o(.text._ZNSt3__25stollERKNS_12basic_stringIcNS_11char_traitsIcEENS_9allocatorIcEEEEPji), (124 bytes).
    Removing string.cpp.o(.ARM.exidx.text._ZNSt3__25stollERKNS_12basic_stringIcNS_11char_traitsIcEENS_9allocatorIcEEEEPji), (8 bytes).
    Removing string.cpp.o(.text._ZNSt3__25stollERKNS_12basic_stringIwNS_11char_traitsIwEENS_9allocatorIwEEEEPji), (126 bytes).
    Removing string.cpp.o(.ARM.exidx.text._ZNSt3__25stollERKNS_12basic_stringIwNS_11char_traitsIwEENS_9allocatorIwEEEEPji), (8 bytes).
    Removing string.cpp.o(.text._ZNSt3__26stoullERKNS_12basic_stringIcNS_11char_traitsIcEENS_9allocatorIcEEEEPji), (130 bytes).
    Removing string.cpp.o(.ARM.exidx.text._ZNSt3__26stoullERKNS_12basic_stringIcNS_11char_traitsIcEENS_9allocatorIcEEEEPji), (8 bytes).
    Removing string.cpp.o(.text._ZNSt3__26stoullERKNS_12basic_stringIwNS_11char_traitsIwEENS_9allocatorIwEEEEPji), (132 bytes).
    Removing string.cpp.o(.ARM.exidx.text._ZNSt3__26stoullERKNS_12basic_stringIwNS_11char_traitsIwEENS_9allocatorIwEEEEPji), (8 bytes).
    Removing string.cpp.o(.text._ZNSt3__24stofERKNS_12basic_stringIcNS_11char_traitsIcEENS_9allocatorIcEEEEPj), (108 bytes).
    Removing string.cpp.o(.ARM.exidx.text._ZNSt3__24stofERKNS_12basic_stringIcNS_11char_traitsIcEENS_9allocatorIcEEEEPj), (8 bytes).
    Removing string.cpp.o(.text._ZNSt3__24stofERKNS_12basic_stringIwNS_11char_traitsIwEENS_9allocatorIwEEEEPj), (110 bytes).
    Removing string.cpp.o(.ARM.exidx.text._ZNSt3__24stofERKNS_12basic_stringIwNS_11char_traitsIwEENS_9allocatorIwEEEEPj), (8 bytes).
    Removing string.cpp.o(.text._ZNSt3__24stodERKNS_12basic_stringIcNS_11char_traitsIcEENS_9allocatorIcEEEEPj), (108 bytes).
    Removing string.cpp.o(.ARM.exidx.text._ZNSt3__24stodERKNS_12basic_stringIcNS_11char_traitsIcEENS_9allocatorIcEEEEPj), (8 bytes).
    Removing string.cpp.o(.text._ZNSt3__24stodERKNS_12basic_stringIwNS_11char_traitsIwEENS_9allocatorIwEEEEPj), (110 bytes).
    Removing string.cpp.o(.ARM.exidx.text._ZNSt3__24stodERKNS_12basic_stringIwNS_11char_traitsIwEENS_9allocatorIwEEEEPj), (8 bytes).
    Removing string.cpp.o(.text._ZNSt3__25stoldERKNS_12basic_stringIcNS_11char_traitsIcEENS_9allocatorIcEEEEPj), (110 bytes).
    Removing string.cpp.o(.ARM.exidx.text._ZNSt3__25stoldERKNS_12basic_stringIcNS_11char_traitsIcEENS_9allocatorIcEEEEPj), (8 bytes).
    Removing string.cpp.o(.text._ZNSt3__25stoldERKNS_12basic_stringIwNS_11char_traitsIwEENS_9allocatorIwEEEEPj), (112 bytes).
    Removing string.cpp.o(.ARM.exidx.text._ZNSt3__25stoldERKNS_12basic_stringIwNS_11char_traitsIwEENS_9allocatorIwEEEEPj), (8 bytes).
    Removing string.cpp.o(.text._ZNSt3__29to_stringEi), (182 bytes).
    Removing string.cpp.o(.ARM.exidx.text._ZNSt3__29to_stringEi), (8 bytes).
    Removing string.cpp.o(.text._ZNSt3__29to_stringEl), (182 bytes).
    Removing string.cpp.o(.ARM.exidx.text._ZNSt3__29to_stringEl), (8 bytes).
    Removing string.cpp.o(.text._ZNSt3__29to_stringEx), (214 bytes).
    Removing string.cpp.o(.ARM.exidx.text._ZNSt3__29to_stringEx), (8 bytes).
    Removing string.cpp.o(.text._ZNSt3__29to_stringEj), (102 bytes).
    Removing string.cpp.o(.ARM.exidx.text._ZNSt3__29to_stringEj), (8 bytes).
    Removing string.cpp.o(.text._ZNSt3__29to_stringEm), (102 bytes).
    Removing string.cpp.o(.ARM.exidx.text._ZNSt3__29to_stringEm), (8 bytes).
    Removing string.cpp.o(.text._ZNSt3__29to_stringEy), (102 bytes).
    Removing string.cpp.o(.ARM.exidx.text._ZNSt3__29to_stringEy), (8 bytes).
    Removing string.cpp.o(.text._ZNSt3__210to_wstringEi), (190 bytes).
    Removing string.cpp.o(.ARM.exidx.text._ZNSt3__210to_wstringEi), (8 bytes).
    Removing string.cpp.o(.text._ZNSt3__210to_wstringEl), (190 bytes).
    Removing string.cpp.o(.ARM.exidx.text._ZNSt3__210to_wstringEl), (8 bytes).
    Removing string.cpp.o(.text._ZNSt3__210to_wstringEx), (218 bytes).
    Removing string.cpp.o(.ARM.exidx.text._ZNSt3__210to_wstringEx), (8 bytes).
    Removing string.cpp.o(.text._ZNSt3__210to_wstringEj), (106 bytes).
    Removing string.cpp.o(.ARM.exidx.text._ZNSt3__210to_wstringEj), (8 bytes).
    Removing string.cpp.o(.text._ZNSt3__210to_wstringEm), (106 bytes).
    Removing string.cpp.o(.ARM.exidx.text._ZNSt3__210to_wstringEm), (8 bytes).
    Removing string.cpp.o(.text._ZNSt3__210to_wstringEy), (110 bytes).
    Removing string.cpp.o(.ARM.exidx.text._ZNSt3__210to_wstringEy), (8 bytes).
    Removing string.cpp.o(.text._ZNSt3__29to_stringEf), (150 bytes).
    Removing string.cpp.o(.ARM.exidx.text._ZNSt3__29to_stringEf), (8 bytes).
    Removing string.cpp.o(.text._ZNSt3__29to_stringEd), (142 bytes).
    Removing string.cpp.o(.ARM.exidx.text._ZNSt3__29to_stringEd), (8 bytes).
    Removing string.cpp.o(.text._ZNSt3__29to_stringEe), (144 bytes).
    Removing string.cpp.o(.ARM.exidx.text._ZNSt3__29to_stringEe), (8 bytes).
    Removing string.cpp.o(.text._ZNSt3__210to_wstringEf), (138 bytes).
    Removing string.cpp.o(.ARM.exidx.text._ZNSt3__210to_wstringEf), (8 bytes).
    Removing string.cpp.o(.text._ZNKSt3__212_GLOBAL__N_114initial_stringINS_12basic_stringIwNS_11char_traitsIwEENS_9allocatorIwEEEEEclEv), (52 bytes).
    Removing string.cpp.o(.ARM.exidx.text._ZNKSt3__212_GLOBAL__N_114initial_stringINS_12basic_stringIwNS_11char_traitsIwEENS_9allocatorIwEEEEEclEv), (8 bytes).
    Removing string.cpp.o(.text._ZNSt3__210to_wstringEd), (130 bytes).
    Removing string.cpp.o(.ARM.exidx.text._ZNSt3__210to_wstringEd), (8 bytes).
    Removing string.cpp.o(.text._ZNSt3__210to_wstringEe), (136 bytes).
    Removing string.cpp.o(.ARM.exidx.text._ZNSt3__210to_wstringEe), (8 bytes).
    Removing string.cpp.o(.text._ZNSt3__212_GLOBAL__N_130throw_from_string_out_of_rangeERKNS_12basic_stringIcNS_11char_traitsIcEENS_9allocatorIcEEEE), (128 bytes).
    Removing string.cpp.o(.ARM.exidx.text._ZNSt3__212_GLOBAL__N_130throw_from_string_out_of_rangeERKNS_12basic_stringIcNS_11char_traitsIcEENS_9allocatorIcEEEE), (8 bytes).
    Removing string.cpp.o(.text._ZNSt3__212_GLOBAL__N_129throw_from_string_invalid_argERKNS_12basic_stringIcNS_11char_traitsIcEENS_9allocatorIcEEEE), (128 bytes).
    Removing string.cpp.o(.ARM.exidx.text._ZNSt3__212_GLOBAL__N_129throw_from_string_invalid_argERKNS_12basic_stringIcNS_11char_traitsIcEENS_9allocatorIcEEEE), (8 bytes).
    Removing string.cpp.o(.text._ZNSt3__212_GLOBAL__N_112throw_helperISt16invalid_argumentEEvRKNS_12basic_stringIcNS_11char_traitsIcEENS_9allocatorIcEEEE), (36 bytes).
    Removing string.cpp.o(.ARM.exidx.text._ZNSt3__212_GLOBAL__N_112throw_helperISt16invalid_argumentEEvRKNS_12basic_stringIcNS_11char_traitsIcEENS_9allocatorIcEEEE), (8 bytes).
    Removing string.cpp.o(.text._ZNSt3__212_GLOBAL__N_112throw_helperISt12out_of_rangeEEvRKNS_12basic_stringIcNS_11char_traitsIcEENS_9allocatorIcEEEE), (36 bytes).
    Removing string.cpp.o(.ARM.exidx.text._ZNSt3__212_GLOBAL__N_112throw_helperISt12out_of_rangeEEvRKNS_12basic_stringIcNS_11char_traitsIcEENS_9allocatorIcEEEE), (8 bytes).
    Removing string.cpp.o(.rodata.str1.1), (32 bytes).
    Removing string.cpp.o(.rodata.str2.2), (6 bytes).
    Removing string.cpp.o(.rodata._ZNSt3__26__itoaL10__pow10_32E), (40 bytes).
    Removing string.cpp.o(.rodata._ZNSt3__26__itoaL10__pow10_64E), (160 bytes).
    Removing vector.cpp.o(.text), (0 bytes).
    Removing charconv.cpp.o(.text), (0 bytes).
    Removing charconv.cpp.o(.text._ZNSt3__26__itoa8__u32toaEjPc), (728 bytes).
    Removing charconv.cpp.o(.ARM.exidx.text._ZNSt3__26__itoa8__u32toaEjPc), (8 bytes).
    Removing charconv.cpp.o(.text._ZNSt3__26__itoa8__u64toaEyPc), (1604 bytes).
    Removing charconv.cpp.o(.ARM.exidx.text._ZNSt3__26__itoa8__u64toaEyPc), (8 bytes).
    Removing charconv.cpp.o(.rodata._ZNSt3__26__itoaL10cDigitsLutE), (200 bytes).
    Removing cxa_handlers.cpp.o(.text), (0 bytes).
    Removing cxa_handlers.cpp.o(.text._ZSt14get_unexpectedv), (12 bytes).
    Removing cxa_handlers.cpp.o(.ARM.exidx.text._ZSt14get_unexpectedv), (8 bytes).
    Removing cxa_handlers.cpp.o(.text._ZSt12__unexpectedPFvvE), (52 bytes).
    Removing cxa_handlers.cpp.o(.ARM.exidx.text._ZSt12__unexpectedPFvvE), (8 bytes).
    Removing cxa_handlers.cpp.o(.text._ZSt10unexpectedv), (14 bytes).
    Removing cxa_handlers.cpp.o(.ARM.exidx.text._ZSt10unexpectedv), (8 bytes).
    Removing cxa_handlers.cpp.o(.text._ZSt13get_terminatev), (12 bytes).
    Removing cxa_handlers.cpp.o(.ARM.exidx.text._ZSt13get_terminatev), (8 bytes).
    Removing cxa_handlers.cpp.o(.text._ZSt11__terminatePFvvE), (48 bytes).
    Removing cxa_handlers.cpp.o(.ARM.exidx.text._ZSt11__terminatePFvvE), (8 bytes).
    Removing cxa_handlers.cpp.o(.text._ZSt9terminatev), (14 bytes).
    Removing cxa_handlers.cpp.o(.ARM.exidx.text._ZSt9terminatev), (8 bytes).
    Removing cxa_handlers.cpp.o(.text._ZSt15set_new_handlerPFvvE), (18 bytes).
    Removing cxa_handlers.cpp.o(.ARM.exidx.text._ZSt15set_new_handlerPFvvE), (8 bytes).
    Removing cxa_handlers.cpp.o(.ARM.exidx.text._ZSt15get_new_handlerv), (8 bytes).
    Removing cxa_default_handlers.cpp.o(.text), (0 bytes).
    Removing cxa_default_handlers.cpp.o(.text._ZSt14set_unexpectedPFvvE), (30 bytes).
    Removing cxa_default_handlers.cpp.o(.ARM.exidx.text._ZSt14set_unexpectedPFvvE), (8 bytes).
    Removing cxa_default_handlers.cpp.o(.text._ZSt13set_terminatePFvvE), (30 bytes).
    Removing cxa_default_handlers.cpp.o(.ARM.exidx.text._ZSt13set_terminatePFvvE), (8 bytes).
    Removing cxa_default_handlers.cpp.o(.data.__cxa_terminate_handler), (4 bytes).
    Removing cxa_default_handlers.cpp.o(.data.__cxa_unexpected_handler), (4 bytes).
    Removing abort_message.cpp.o(.text), (0 bytes).
    Removing abort_message.cpp.o(.text.abort_message), (4 bytes).
    Removing abort_message.cpp.o(.ARM.exidx.text.abort_message), (8 bytes).
    Removing battleship.o(.ARM.exidx.text._ZNSt3__213__vector_baseINS_12basic_stringIcNS_11char_traitsIcEENS_9allocatorIcEEEENS4_IS6_EEED2Ev), (8 bytes).
    Removing battleship.o(.ARM.exidx.text._ZNSt3__26vectorINS_12basic_stringIcNS_11char_traitsIcEENS_9allocatorIcEEEENS4_IS6_EEE21_ConstructTransactionC2ERS8_j), (8 bytes).
    Removing battleship.o(.ARM.exidx.text._ZNSt3__26vectorINS_12basic_stringIcNS_11char_traitsIcEENS_9allocatorIcEEEENS4_IS6_EEE21_ConstructTransactionD2Ev), (8 bytes).
    Removing battleship.o(.ARM.exidx.text._ZNSt3__214__split_bufferINS_12basic_stringIcNS_11char_traitsIcEENS_9allocatorIcEEEERNS4_IS6_EEEC2EjjS8_), (8 bytes).
    Removing battleship.o(.ARM.exidx.text._ZNSt3__26vectorINS_12basic_stringIcNS_11char_traitsIcEENS_9allocatorIcEEEENS4_IS6_EEE26__swap_out_circular_bufferERNS_14__split_bufferIS6_RS7_EE), (8 bytes).
    Removing battleship.o(.ARM.exidx.text._ZNSt3__214__split_bufferINS_12basic_stringIcNS_11char_traitsIcEENS_9allocatorIcEEEERNS4_IS6_EEED2Ev), (8 bytes).
    Removing battleship.o(.ARM.exidx.text._ZNKSt3__26vectorINS_12basic_stringIcNS_11char_traitsIcEENS_9allocatorIcEEEENS4_IS6_EEE8max_sizeEv), (8 bytes).
    Removing battleship.o(.ARM.exidx.text._ZNSt3__211char_traitsIcE6lengthEPKc), (8 bytes).
    Removing battleship.o(.text._ZNSt3__211char_traitsIcE4copyEPcPKcj), (16 bytes).
    Removing battleship.o(.ARM.exidx.text._ZNSt3__211char_traitsIcE4copyEPcPKcj), (8 bytes).
    Removing battleship.o(.text._ZNSt3__211char_traitsIcE6assignERcRKc), (6 bytes).
    Removing battleship.o(.ARM.exidx.text._ZNSt3__211char_traitsIcE6assignERcRKc), (8 bytes).
    Removing string.cpp.o(.text._ZNKSt3__221__basic_string_commonILb1EE20__throw_length_errorEv), (4 bytes).
    Removing string.cpp.o(.ARM.exidx.text._ZNKSt3__221__basic_string_commonILb1EE20__throw_length_errorEv), (8 bytes).
    Removing string.cpp.o(.text._ZNKSt3__221__basic_string_commonILb1EE20__throw_out_of_rangeEv), (4 bytes).
    Removing string.cpp.o(.ARM.exidx.text._ZNKSt3__221__basic_string_commonILb1EE20__throw_out_of_rangeEv), (8 bytes).
    Removing string.cpp.o(.text._ZNSt3__212basic_stringIcNS_11char_traitsIcEENS_9allocatorIcEEE7replaceEjjPKcj), (286 bytes).
    Removing string.cpp.o(.ARM.exidx.text._ZNSt3__212basic_stringIcNS_11char_traitsIcEENS_9allocatorIcEEE7replaceEjjPKcj), (8 bytes).
    Removing string.cpp.o(.text._ZNSt3__212basic_stringIcNS_11char_traitsIcEENS_9allocatorIcEEE21__grow_by_and_replaceEjjjjjjPKc), (196 bytes).
    Removing string.cpp.o(.ARM.exidx.text._ZNSt3__212basic_stringIcNS_11char_traitsIcEENS_9allocatorIcEEE21__grow_by_and_replaceEjjjjjjPKc), (8 bytes).
    Removing string.cpp.o(.text._ZNKSt3__212basic_stringIcNS_11char_traitsIcEENS_9allocatorIcEEE5rfindEPKcjj), (134 bytes).
    Removing string.cpp.o(.ARM.exidx.text._ZNKSt3__212basic_stringIcNS_11char_traitsIcEENS_9allocatorIcEEE5rfindEPKcjj), (8 bytes).
    Removing string.cpp.o(.text._ZNSt3__212basic_stringIcNS_11char_traitsIcEENS_9allocatorIcEEE6__initEPKcjj), (74 bytes).
    Removing string.cpp.o(.ARM.exidx.text._ZNSt3__212basic_stringIcNS_11char_traitsIcEENS_9allocatorIcEEE6__initEPKcjj), (8 bytes).
    Removing string.cpp.o(.text._ZNSt3__212basic_stringIcNS_11char_traitsIcEENS_9allocatorIcEEE7replaceEjjPKc), (42 bytes).
    Removing string.cpp.o(.ARM.exidx.text._ZNSt3__212basic_stringIcNS_11char_traitsIcEENS_9allocatorIcEEE7replaceEjjPKc), (8 bytes).
    Removing string.cpp.o(.text._ZNKSt3__212basic_stringIcNS_11char_traitsIcEENS_9allocatorIcEEE16find_last_not_ofEPKcjj), (74 bytes).
    Removing string.cpp.o(.ARM.exidx.text._ZNKSt3__212basic_stringIcNS_11char_traitsIcEENS_9allocatorIcEEE16find_last_not_ofEPKcjj), (8 bytes).
    Removing string.cpp.o(.ARM.exidx.text._ZNSt3__212basic_stringIcNS_11char_traitsIcEENS_9allocatorIcEEED2Ev), (8 bytes).
    Removing string.cpp.o(.text._ZNKSt3__212basic_stringIcNS_11char_traitsIcEENS_9allocatorIcEEE17find_first_not_ofEPKcjj), (80 bytes).
    Removing string.cpp.o(.ARM.exidx.text._ZNKSt3__212basic_stringIcNS_11char_traitsIcEENS_9allocatorIcEEE17find_first_not_ofEPKcjj), (8 bytes).
    Removing string.cpp.o(.text._ZNSt3__212basic_stringIcNS_11char_traitsIcEENS_9allocatorIcEEE6insertEjjc), (160 bytes).
    Removing string.cpp.o(.ARM.exidx.text._ZNSt3__212basic_stringIcNS_11char_traitsIcEENS_9allocatorIcEEE6insertEjjc), (8 bytes).
    Removing string.cpp.o(.text._ZNSt3__212basic_stringIcNS_11char_traitsIcEENS_9allocatorIcEEE9__grow_byEjjjjjj), (168 bytes).
    Removing string.cpp.o(.ARM.exidx.text._ZNSt3__212basic_stringIcNS_11char_traitsIcEENS_9allocatorIcEEE9__grow_byEjjjjjj), (8 bytes).
    Removing string.cpp.o(.text._ZNSt3__212basic_stringIcNS_11char_traitsIcEENS_9allocatorIcEEEaSEc), (32 bytes).
    Removing string.cpp.o(.ARM.exidx.text._ZNSt3__212basic_stringIcNS_11char_traitsIcEENS_9allocatorIcEEEaSEc), (8 bytes).
    Removing string.cpp.o(.ARM.exidx.text._ZNSt3__212basic_stringIcNS_11char_traitsIcEENS_9allocatorIcEEE6__initEPKcj), (8 bytes).
    Removing string.cpp.o(.text._ZNSt3__212basic_stringIcNS_11char_traitsIcEENS_9allocatorIcEEE25__init_copy_ctor_externalEPKcj), (70 bytes).
    Removing string.cpp.o(.ARM.exidx.text._ZNSt3__212basic_stringIcNS_11char_traitsIcEENS_9allocatorIcEEE25__init_copy_ctor_externalEPKcj), (8 bytes).
    Removing string.cpp.o(.text._ZNKSt3__212basic_stringIcNS_11char_traitsIcEENS_9allocatorIcEEE2atEj), (34 bytes).
    Removing string.cpp.o(.ARM.exidx.text._ZNKSt3__212basic_stringIcNS_11char_traitsIcEENS_9allocatorIcEEE2atEj), (8 bytes).
    Removing string.cpp.o(.text._ZNSt3__212basic_stringIcNS_11char_traitsIcEENS_9allocatorIcEEE6insertEjPKcj), (172 bytes).
    Removing string.cpp.o(.ARM.exidx.text._ZNSt3__212basic_stringIcNS_11char_traitsIcEENS_9allocatorIcEEE6insertEjPKcj), (8 bytes).
    Removing string.cpp.o(.text._ZNKSt3__212basic_stringIcNS_11char_traitsIcEENS_9allocatorIcEEE13find_first_ofEPKcjj), (78 bytes).
    Removing string.cpp.o(.ARM.exidx.text._ZNKSt3__212basic_stringIcNS_11char_traitsIcEENS_9allocatorIcEEE13find_first_ofEPKcjj), (8 bytes).
    Removing string.cpp.o(.text._ZNSt3__212basic_stringIcNS_11char_traitsIcEENS_9allocatorIcEEE7replaceEjjjc), (190 bytes).
    Removing string.cpp.o(.ARM.exidx.text._ZNSt3__212basic_stringIcNS_11char_traitsIcEENS_9allocatorIcEEE7replaceEjjjc), (8 bytes).
    Removing string.cpp.o(.text._ZNSt3__212basic_stringIcNS_11char_traitsIcEENS_9allocatorIcEEE17__assign_externalEPKcj), (106 bytes).
    Removing string.cpp.o(.ARM.exidx.text._ZNSt3__212basic_stringIcNS_11char_traitsIcEENS_9allocatorIcEEE17__assign_externalEPKcj), (8 bytes).
    Removing string.cpp.o(.text._ZNSt3__212basic_stringIcNS_11char_traitsIcEENS_9allocatorIcEEE17__assign_externalEPKc), (26 bytes).
    Removing string.cpp.o(.ARM.exidx.text._ZNSt3__212basic_stringIcNS_11char_traitsIcEENS_9allocatorIcEEE17__assign_externalEPKc), (8 bytes).
    Removing string.cpp.o(.text._ZNSt3__212basic_stringIcNS_11char_traitsIcEENS_9allocatorIcEEE7reserveEj), (204 bytes).
    Removing string.cpp.o(.ARM.exidx.text._ZNSt3__212basic_stringIcNS_11char_traitsIcEENS_9allocatorIcEEE7reserveEj), (8 bytes).
    Removing string.cpp.o(.text._ZNSt3__212basic_stringIcNS_11char_traitsIcEENS_9allocatorIcEEE6appendEPKcj), (116 bytes).
    Removing string.cpp.o(.ARM.exidx.text._ZNSt3__212basic_stringIcNS_11char_traitsIcEENS_9allocatorIcEEE6appendEPKcj), (8 bytes).
    Removing string.cpp.o(.text._ZNSt3__212basic_stringIcNS_11char_traitsIcEENS_9allocatorIcEEE6assignERKS5_jj), (52 bytes).
    Removing string.cpp.o(.ARM.exidx.text._ZNSt3__212basic_stringIcNS_11char_traitsIcEENS_9allocatorIcEEE6assignERKS5_jj), (8 bytes).
    Removing string.cpp.o(.text._ZNSt3__212basic_stringIcNS_11char_traitsIcEENS_9allocatorIcEEE6assignEPKcj), (4 bytes).
    Removing string.cpp.o(.ARM.exidx.text._ZNSt3__212basic_stringIcNS_11char_traitsIcEENS_9allocatorIcEEE6assignEPKcj), (8 bytes).
    Removing string.cpp.o(.text._ZNKSt3__212basic_stringIcNS_11char_traitsIcEENS_9allocatorIcEEE4copyEPcjj), (64 bytes).
    Removing string.cpp.o(.ARM.exidx.text._ZNKSt3__212basic_stringIcNS_11char_traitsIcEENS_9allocatorIcEEE4copyEPcjj), (8 bytes).
    Removing string.cpp.o(.text._ZNSt3__212basic_stringIcNS_11char_traitsIcEENS_9allocatorIcEEEC2ERKS5_jjRKS4_), (126 bytes).
    Removing string.cpp.o(.ARM.exidx.text._ZNSt3__212basic_stringIcNS_11char_traitsIcEENS_9allocatorIcEEEC2ERKS5_jjRKS4_), (8 bytes).
    Removing string.cpp.o(.text._ZNKSt3__212basic_stringIcNS_11char_traitsIcEENS_9allocatorIcEEE4findEcj), (60 bytes).
    Removing string.cpp.o(.ARM.exidx.text._ZNKSt3__212basic_stringIcNS_11char_traitsIcEENS_9allocatorIcEEE4findEcj), (8 bytes).
    Removing string.cpp.o(.text._ZNSt3__212basic_stringIcNS_11char_traitsIcEENS_9allocatorIcEEE6__initEjc), (74 bytes).
    Removing string.cpp.o(.ARM.exidx.text._ZNSt3__212basic_stringIcNS_11char_traitsIcEENS_9allocatorIcEEE6__initEjc), (8 bytes).
    Removing string.cpp.o(.text._ZNSt3__212basic_stringIcNS_11char_traitsIcEENS_9allocatorIcEEE6insertEjPKc), (30 bytes).
    Removing string.cpp.o(.ARM.exidx.text._ZNSt3__212basic_stringIcNS_11char_traitsIcEENS_9allocatorIcEEE6insertEjPKc), (8 bytes).
    Removing string.cpp.o(.text._ZNKSt3__212basic_stringIcNS_11char_traitsIcEENS_9allocatorIcEEE12find_last_ofEPKcjj), (68 bytes).
    Removing string.cpp.o(.ARM.exidx.text._ZNKSt3__212basic_stringIcNS_11char_traitsIcEENS_9allocatorIcEEE12find_last_ofEPKcjj), (8 bytes).
    Removing string.cpp.o(.text._ZNSt3__212basic_stringIcNS_11char_traitsIcEENS_9allocatorIcEEE17__assign_no_aliasILb0EEERS5_PKcj), (72 bytes).
    Removing string.cpp.o(.ARM.exidx.text._ZNSt3__212basic_stringIcNS_11char_traitsIcEENS_9allocatorIcEEE17__assign_no_aliasILb0EEERS5_PKcj), (8 bytes).
    Removing string.cpp.o(.text._ZNSt3__212basic_stringIcNS_11char_traitsIcEENS_9allocatorIcEEE17__assign_no_aliasILb1EEERS5_PKcj), (64 bytes).
    Removing string.cpp.o(.ARM.exidx.text._ZNSt3__212basic_stringIcNS_11char_traitsIcEENS_9allocatorIcEEE17__assign_no_aliasILb1EEERS5_PKcj), (8 bytes).
    Removing string.cpp.o(.text._ZNSt3__212basic_stringIcNS_11char_traitsIcEENS_9allocatorIcEEE9push_backEc), (98 bytes).
    Removing string.cpp.o(.ARM.exidx.text._ZNSt3__212basic_stringIcNS_11char_traitsIcEENS_9allocatorIcEEE9push_backEc), (8 bytes).
    Removing string.cpp.o(.text._ZNSt3__212basic_stringIcNS_11char_traitsIcEENS_9allocatorIcEEE6appendEjc), (118 bytes).
    Removing string.cpp.o(.ARM.exidx.text._ZNSt3__212basic_stringIcNS_11char_traitsIcEENS_9allocatorIcEEE6appendEjc), (8 bytes).
    Removing string.cpp.o(.text._ZNKSt3__212basic_stringIcNS_11char_traitsIcEENS_9allocatorIcEEE5rfindEcj), (52 bytes).
    Removing string.cpp.o(.ARM.exidx.text._ZNKSt3__212basic_stringIcNS_11char_traitsIcEENS_9allocatorIcEEE5rfindEcj), (8 bytes).
    Removing string.cpp.o(.text._ZNSt3__212basic_stringIcNS_11char_traitsIcEENS_9allocatorIcEEE6assignEjc), (112 bytes).
    Removing string.cpp.o(.ARM.exidx.text._ZNSt3__212basic_stringIcNS_11char_traitsIcEENS_9allocatorIcEEE6assignEjc), (8 bytes).
    Removing string.cpp.o(.text._ZNSt3__212basic_stringIcNS_11char_traitsIcEENS_9allocatorIcEEE26__erase_external_with_moveEjj), (78 bytes).
    Removing string.cpp.o(.ARM.exidx.text._ZNSt3__212basic_stringIcNS_11char_traitsIcEENS_9allocatorIcEEE26__erase_external_with_moveEjj), (8 bytes).
    Removing string.cpp.o(.text._ZNSt3__212basic_stringIcNS_11char_traitsIcEENS_9allocatorIcEEE6appendERKS5_jj), (52 bytes).
    Removing string.cpp.o(.ARM.exidx.text._ZNSt3__212basic_stringIcNS_11char_traitsIcEENS_9allocatorIcEEE6appendERKS5_jj), (8 bytes).
    Removing string.cpp.o(.text._ZNKSt3__212basic_stringIcNS_11char_traitsIcEENS_9allocatorIcEEE7compareEPKc), (36 bytes).
    Removing string.cpp.o(.ARM.exidx.text._ZNKSt3__212basic_stringIcNS_11char_traitsIcEENS_9allocatorIcEEE7compareEPKc), (8 bytes).
    Removing string.cpp.o(.text._ZNKSt3__212basic_stringIcNS_11char_traitsIcEENS_9allocatorIcEEE7compareEjjPKcj), (92 bytes).
    Removing string.cpp.o(.ARM.exidx.text._ZNKSt3__212basic_stringIcNS_11char_traitsIcEENS_9allocatorIcEEE7compareEjjPKcj), (8 bytes).
    Removing string.cpp.o(.text._ZNKSt3__212basic_stringIcNS_11char_traitsIcEENS_9allocatorIcEEE7compareEjjPKc), (42 bytes).
    Removing string.cpp.o(.ARM.exidx.text._ZNKSt3__212basic_stringIcNS_11char_traitsIcEENS_9allocatorIcEEE7compareEjjPKc), (8 bytes).
    Removing string.cpp.o(.text._ZNSt3__212basic_stringIcNS_11char_traitsIcEENS_9allocatorIcEEE2atEj), (34 bytes).
    Removing string.cpp.o(.ARM.exidx.text._ZNSt3__212basic_stringIcNS_11char_traitsIcEENS_9allocatorIcEEE2atEj), (8 bytes).
    Removing string.cpp.o(.text._ZNKSt3__212basic_stringIcNS_11char_traitsIcEENS_9allocatorIcEEE4findEPKcjj), (120 bytes).
    Removing string.cpp.o(.ARM.exidx.text._ZNKSt3__212basic_stringIcNS_11char_traitsIcEENS_9allocatorIcEEE4findEPKcjj), (8 bytes).
    Removing string.cpp.o(.text._ZNKSt3__212basic_stringIcNS_11char_traitsIcEENS_9allocatorIcEEE7compareEjjRKS5_jj), (102 bytes).
    Removing string.cpp.o(.ARM.exidx.text._ZNKSt3__212basic_stringIcNS_11char_traitsIcEENS_9allocatorIcEEE7compareEjjRKS5_jj), (8 bytes).
    Removing string.cpp.o(.text._ZNSt3__212basic_stringIcNS_11char_traitsIcEENS_9allocatorIcEEE6appendEPKc), (26 bytes).
    Removing string.cpp.o(.ARM.exidx.text._ZNSt3__212basic_stringIcNS_11char_traitsIcEENS_9allocatorIcEEE6appendEPKc), (8 bytes).
    Removing string.cpp.o(.text._ZNSt3__212basic_stringIcNS_11char_traitsIcEENS_9allocatorIcEEE7replaceEjjRKS5_jj), (66 bytes).
    Removing string.cpp.o(.ARM.exidx.text._ZNSt3__212basic_stringIcNS_11char_traitsIcEENS_9allocatorIcEEE7replaceEjjRKS5_jj), (8 bytes).
    Removing string.cpp.o(.text._ZNSt3__212basic_stringIcNS_11char_traitsIcEENS_9allocatorIcEEE6insertENS_11__wrap_iterIPKcEEc), (138 bytes).
    Removing string.cpp.o(.ARM.exidx.text._ZNSt3__212basic_stringIcNS_11char_traitsIcEENS_9allocatorIcEEE6insertENS_11__wrap_iterIPKcEEc), (8 bytes).
    Removing string.cpp.o(.text._ZNSt3__212basic_stringIcNS_11char_traitsIcEENS_9allocatorIcEEE6resizeEjc), (50 bytes).
    Removing string.cpp.o(.ARM.exidx.text._ZNSt3__212basic_stringIcNS_11char_traitsIcEENS_9allocatorIcEEE6resizeEjc), (8 bytes).
    Removing string.cpp.o(.text._ZNSt3__212basic_stringIcNS_11char_traitsIcEENS_9allocatorIcEEE6insertEjRKS5_jj), (60 bytes).
    Removing string.cpp.o(.ARM.exidx.text._ZNSt3__212basic_stringIcNS_11char_traitsIcEENS_9allocatorIcEEE6insertEjRKS5_jj), (8 bytes).
    Removing string.cpp.o(.text._ZNSt3__212basic_stringIwNS_11char_traitsIwEENS_9allocatorIwEEE7replaceEjjPKwj), (296 bytes).
    Removing string.cpp.o(.ARM.exidx.text._ZNSt3__212basic_stringIwNS_11char_traitsIwEENS_9allocatorIwEEE7replaceEjjPKwj), (8 bytes).
    Removing string.cpp.o(.text._ZNSt3__212basic_stringIwNS_11char_traitsIwEENS_9allocatorIwEEE21__grow_by_and_replaceEjjjjjjPKw), (212 bytes).
    Removing string.cpp.o(.ARM.exidx.text._ZNSt3__212basic_stringIwNS_11char_traitsIwEENS_9allocatorIwEEE21__grow_by_and_replaceEjjjjjjPKw), (8 bytes).
    Removing string.cpp.o(.text._ZNKSt3__212basic_stringIwNS_11char_traitsIwEENS_9allocatorIwEEE5rfindEPKwjj), (130 bytes).
    Removing string.cpp.o(.ARM.exidx.text._ZNKSt3__212basic_stringIwNS_11char_traitsIwEENS_9allocatorIwEEE5rfindEPKwjj), (8 bytes).
    Removing string.cpp.o(.text._ZNSt3__212basic_stringIwNS_11char_traitsIwEENS_9allocatorIwEEE6__initEPKwjj), (82 bytes).
    Removing string.cpp.o(.ARM.exidx.text._ZNSt3__212basic_stringIwNS_11char_traitsIwEENS_9allocatorIwEEE6__initEPKwjj), (8 bytes).
    Removing string.cpp.o(.text._ZNSt3__212basic_stringIwNS_11char_traitsIwEENS_9allocatorIwEEE7replaceEjjPKw), (42 bytes).
    Removing string.cpp.o(.ARM.exidx.text._ZNSt3__212basic_stringIwNS_11char_traitsIwEENS_9allocatorIwEEE7replaceEjjPKw), (8 bytes).
    Removing string.cpp.o(.text._ZNKSt3__212basic_stringIwNS_11char_traitsIwEENS_9allocatorIwEEE16find_last_not_ofEPKwjj), (78 bytes).
    Removing string.cpp.o(.ARM.exidx.text._ZNKSt3__212basic_stringIwNS_11char_traitsIwEENS_9allocatorIwEEE16find_last_not_ofEPKwjj), (8 bytes).
    Removing string.cpp.o(.text._ZNSt3__212basic_stringIwNS_11char_traitsIwEENS_9allocatorIwEEED2Ev), (24 bytes).
    Removing string.cpp.o(.ARM.exidx.text._ZNSt3__212basic_stringIwNS_11char_traitsIwEENS_9allocatorIwEEED2Ev), (8 bytes).
    Removing string.cpp.o(.text._ZNKSt3__212basic_stringIwNS_11char_traitsIwEENS_9allocatorIwEEE17find_first_not_ofEPKwjj), (86 bytes).
    Removing string.cpp.o(.ARM.exidx.text._ZNKSt3__212basic_stringIwNS_11char_traitsIwEENS_9allocatorIwEEE17find_first_not_ofEPKwjj), (8 bytes).
    Removing string.cpp.o(.text._ZNSt3__212basic_stringIwNS_11char_traitsIwEENS_9allocatorIwEEE6insertEjjw), (162 bytes).
    Removing string.cpp.o(.ARM.exidx.text._ZNSt3__212basic_stringIwNS_11char_traitsIwEENS_9allocatorIwEEE6insertEjjw), (8 bytes).
    Removing string.cpp.o(.text._ZNSt3__212basic_stringIwNS_11char_traitsIwEENS_9allocatorIwEEE9__grow_byEjjjjjj), (170 bytes).
    Removing string.cpp.o(.ARM.exidx.text._ZNSt3__212basic_stringIwNS_11char_traitsIwEENS_9allocatorIwEEE9__grow_byEjjjjjj), (8 bytes).
    Removing string.cpp.o(.text._ZNSt3__212basic_stringIwNS_11char_traitsIwEENS_9allocatorIwEEEaSEw), (32 bytes).
    Removing string.cpp.o(.ARM.exidx.text._ZNSt3__212basic_stringIwNS_11char_traitsIwEENS_9allocatorIwEEEaSEw), (8 bytes).
    Removing string.cpp.o(.text._ZNSt3__212basic_stringIwNS_11char_traitsIwEENS_9allocatorIwEEE6__initEPKwj), (82 bytes).
    Removing string.cpp.o(.ARM.exidx.text._ZNSt3__212basic_stringIwNS_11char_traitsIwEENS_9allocatorIwEEE6__initEPKwj), (8 bytes).
    Removing string.cpp.o(.text._ZNSt3__212basic_stringIwNS_11char_traitsIwEENS_9allocatorIwEEE25__init_copy_ctor_externalEPKwj), (76 bytes).
    Removing string.cpp.o(.ARM.exidx.text._ZNSt3__212basic_stringIwNS_11char_traitsIwEENS_9allocatorIwEEE25__init_copy_ctor_externalEPKwj), (8 bytes).
    Removing string.cpp.o(.text._ZNKSt3__212basic_stringIwNS_11char_traitsIwEENS_9allocatorIwEEE2atEj), (36 bytes).
    Removing string.cpp.o(.ARM.exidx.text._ZNKSt3__212basic_stringIwNS_11char_traitsIwEENS_9allocatorIwEEE2atEj), (8 bytes).
    Removing string.cpp.o(.text._ZNSt3__212basic_stringIwNS_11char_traitsIwEENS_9allocatorIwEEE6insertEjPKwj), (176 bytes).
    Removing string.cpp.o(.ARM.exidx.text._ZNSt3__212basic_stringIwNS_11char_traitsIwEENS_9allocatorIwEEE6insertEjPKwj), (8 bytes).
    Removing string.cpp.o(.text._ZNKSt3__212basic_stringIwNS_11char_traitsIwEENS_9allocatorIwEEE13find_first_ofEPKwjj), (88 bytes).
    Removing string.cpp.o(.ARM.exidx.text._ZNKSt3__212basic_stringIwNS_11char_traitsIwEENS_9allocatorIwEEE13find_first_ofEPKwjj), (8 bytes).
    Removing string.cpp.o(.text._ZNSt3__212basic_stringIwNS_11char_traitsIwEENS_9allocatorIwEEE7replaceEjjjw), (194 bytes).
    Removing string.cpp.o(.ARM.exidx.text._ZNSt3__212basic_stringIwNS_11char_traitsIwEENS_9allocatorIwEEE7replaceEjjjw), (8 bytes).
    Removing string.cpp.o(.text._ZNSt3__212basic_stringIwNS_11char_traitsIwEENS_9allocatorIwEEE17__assign_externalEPKwj), (108 bytes).
    Removing string.cpp.o(.ARM.exidx.text._ZNSt3__212basic_stringIwNS_11char_traitsIwEENS_9allocatorIwEEE17__assign_externalEPKwj), (8 bytes).
    Removing string.cpp.o(.text._ZNSt3__212basic_stringIwNS_11char_traitsIwEENS_9allocatorIwEEE17__assign_externalEPKw), (26 bytes).
    Removing string.cpp.o(.ARM.exidx.text._ZNSt3__212basic_stringIwNS_11char_traitsIwEENS_9allocatorIwEEE17__assign_externalEPKw), (8 bytes).
    Removing string.cpp.o(.text._ZNSt3__212basic_stringIwNS_11char_traitsIwEENS_9allocatorIwEEE7reserveEj), (224 bytes).
    Removing string.cpp.o(.ARM.exidx.text._ZNSt3__212basic_stringIwNS_11char_traitsIwEENS_9allocatorIwEEE7reserveEj), (8 bytes).
    Removing string.cpp.o(.text._ZNSt3__212basic_stringIwNS_11char_traitsIwEENS_9allocatorIwEEE6appendEPKwj), (120 bytes).
    Removing string.cpp.o(.ARM.exidx.text._ZNSt3__212basic_stringIwNS_11char_traitsIwEENS_9allocatorIwEEE6appendEPKwj), (8 bytes).
    Removing string.cpp.o(.text._ZNSt3__212basic_stringIwNS_11char_traitsIwEENS_9allocatorIwEEE6assignERKS5_jj), (54 bytes).
    Removing string.cpp.o(.ARM.exidx.text._ZNSt3__212basic_stringIwNS_11char_traitsIwEENS_9allocatorIwEEE6assignERKS5_jj), (8 bytes).
    Removing string.cpp.o(.text._ZNSt3__212basic_stringIwNS_11char_traitsIwEENS_9allocatorIwEEE6assignEPKwj), (4 bytes).
    Removing string.cpp.o(.ARM.exidx.text._ZNSt3__212basic_stringIwNS_11char_traitsIwEENS_9allocatorIwEEE6assignEPKwj), (8 bytes).
    Removing string.cpp.o(.text._ZNKSt3__212basic_stringIwNS_11char_traitsIwEENS_9allocatorIwEEE4copyEPwjj), (66 bytes).
    Removing string.cpp.o(.ARM.exidx.text._ZNKSt3__212basic_stringIwNS_11char_traitsIwEENS_9allocatorIwEEE4copyEPwjj), (8 bytes).
    Removing string.cpp.o(.text._ZNSt3__212basic_stringIwNS_11char_traitsIwEENS_9allocatorIwEEEC2ERKS5_jjRKS4_), (134 bytes).
    Removing string.cpp.o(.ARM.exidx.text._ZNSt3__212basic_stringIwNS_11char_traitsIwEENS_9allocatorIwEEEC2ERKS5_jjRKS4_), (8 bytes).
    Removing string.cpp.o(.text._ZNKSt3__212basic_stringIwNS_11char_traitsIwEENS_9allocatorIwEEE4findEwj), (64 bytes).
    Removing string.cpp.o(.ARM.exidx.text._ZNKSt3__212basic_stringIwNS_11char_traitsIwEENS_9allocatorIwEEE4findEwj), (8 bytes).
    Removing string.cpp.o(.text._ZNSt3__212basic_stringIwNS_11char_traitsIwEENS_9allocatorIwEEE6__initEjw), (82 bytes).
    Removing string.cpp.o(.ARM.exidx.text._ZNSt3__212basic_stringIwNS_11char_traitsIwEENS_9allocatorIwEEE6__initEjw), (8 bytes).
    Removing string.cpp.o(.text._ZNSt3__212basic_stringIwNS_11char_traitsIwEENS_9allocatorIwEEE6insertEjPKw), (30 bytes).
    Removing string.cpp.o(.ARM.exidx.text._ZNSt3__212basic_stringIwNS_11char_traitsIwEENS_9allocatorIwEEE6insertEjPKw), (8 bytes).
    Removing string.cpp.o(.text._ZNKSt3__212basic_stringIwNS_11char_traitsIwEENS_9allocatorIwEEE12find_last_ofEPKwjj), (72 bytes).
    Removing string.cpp.o(.ARM.exidx.text._ZNKSt3__212basic_stringIwNS_11char_traitsIwEENS_9allocatorIwEEE12find_last_ofEPKwjj), (8 bytes).
    Removing string.cpp.o(.text._ZNSt3__212basic_stringIwNS_11char_traitsIwEENS_9allocatorIwEEE17__assign_no_aliasILb0EEERS5_PKwj), (74 bytes).
    Removing string.cpp.o(.ARM.exidx.text._ZNSt3__212basic_stringIwNS_11char_traitsIwEENS_9allocatorIwEEE17__assign_no_aliasILb0EEERS5_PKwj), (8 bytes).
    Removing string.cpp.o(.text._ZNSt3__212basic_stringIwNS_11char_traitsIwEENS_9allocatorIwEEE17__assign_no_aliasILb1EEERS5_PKwj), (64 bytes).
    Removing string.cpp.o(.ARM.exidx.text._ZNSt3__212basic_stringIwNS_11char_traitsIwEENS_9allocatorIwEEE17__assign_no_aliasILb1EEERS5_PKwj), (8 bytes).
    Removing string.cpp.o(.text._ZNSt3__212basic_stringIwNS_11char_traitsIwEENS_9allocatorIwEEE9push_backEw), (102 bytes).
    Removing string.cpp.o(.ARM.exidx.text._ZNSt3__212basic_stringIwNS_11char_traitsIwEENS_9allocatorIwEEE9push_backEw), (8 bytes).
    Removing string.cpp.o(.text._ZNSt3__212basic_stringIwNS_11char_traitsIwEENS_9allocatorIwEEE6appendEjw), (122 bytes).
    Removing string.cpp.o(.ARM.exidx.text._ZNSt3__212basic_stringIwNS_11char_traitsIwEENS_9allocatorIwEEE6appendEjw), (8 bytes).
    Removing string.cpp.o(.text._ZNKSt3__212basic_stringIwNS_11char_traitsIwEENS_9allocatorIwEEE5rfindEwj), (54 bytes).
    Removing string.cpp.o(.ARM.exidx.text._ZNKSt3__212basic_stringIwNS_11char_traitsIwEENS_9allocatorIwEEE5rfindEwj), (8 bytes).
    Removing string.cpp.o(.text._ZNSt3__212basic_stringIwNS_11char_traitsIwEENS_9allocatorIwEEE6assignEjw), (114 bytes).
    Removing string.cpp.o(.ARM.exidx.text._ZNSt3__212basic_stringIwNS_11char_traitsIwEENS_9allocatorIwEEE6assignEjw), (8 bytes).
    Removing string.cpp.o(.text._ZNSt3__212basic_stringIwNS_11char_traitsIwEENS_9allocatorIwEEE26__erase_external_with_moveEjj), (84 bytes).
    Removing string.cpp.o(.ARM.exidx.text._ZNSt3__212basic_stringIwNS_11char_traitsIwEENS_9allocatorIwEEE26__erase_external_with_moveEjj), (8 bytes).
    Removing string.cpp.o(.text._ZNSt3__212basic_stringIwNS_11char_traitsIwEENS_9allocatorIwEEE6appendERKS5_jj), (54 bytes).
    Removing string.cpp.o(.ARM.exidx.text._ZNSt3__212basic_stringIwNS_11char_traitsIwEENS_9allocatorIwEEE6appendERKS5_jj), (8 bytes).
    Removing string.cpp.o(.text._ZNKSt3__212basic_stringIwNS_11char_traitsIwEENS_9allocatorIwEEE7compareEPKw), (36 bytes).
    Removing string.cpp.o(.ARM.exidx.text._ZNKSt3__212basic_stringIwNS_11char_traitsIwEENS_9allocatorIwEEE7compareEPKw), (8 bytes).
    Removing string.cpp.o(.text._ZNKSt3__212basic_stringIwNS_11char_traitsIwEENS_9allocatorIwEEE7compareEjjPKwj), (94 bytes).
    Removing string.cpp.o(.ARM.exidx.text._ZNKSt3__212basic_stringIwNS_11char_traitsIwEENS_9allocatorIwEEE7compareEjjPKwj), (8 bytes).
    Removing string.cpp.o(.text._ZNKSt3__212basic_stringIwNS_11char_traitsIwEENS_9allocatorIwEEE7compareEjjPKw), (42 bytes).
    Removing string.cpp.o(.ARM.exidx.text._ZNKSt3__212basic_stringIwNS_11char_traitsIwEENS_9allocatorIwEEE7compareEjjPKw), (8 bytes).
    Removing string.cpp.o(.text._ZNSt3__212basic_stringIwNS_11char_traitsIwEENS_9allocatorIwEEE2atEj), (36 bytes).
    Removing string.cpp.o(.ARM.exidx.text._ZNSt3__212basic_stringIwNS_11char_traitsIwEENS_9allocatorIwEEE2atEj), (8 bytes).
    Removing string.cpp.o(.text._ZNKSt3__212basic_stringIwNS_11char_traitsIwEENS_9allocatorIwEEE4findEPKwjj), (134 bytes).
    Removing string.cpp.o(.ARM.exidx.text._ZNKSt3__212basic_stringIwNS_11char_traitsIwEENS_9allocatorIwEEE4findEPKwjj), (8 bytes).
    Removing string.cpp.o(.text._ZNKSt3__212basic_stringIwNS_11char_traitsIwEENS_9allocatorIwEEE7compareEjjRKS5_jj), (106 bytes).
    Removing string.cpp.o(.ARM.exidx.text._ZNKSt3__212basic_stringIwNS_11char_traitsIwEENS_9allocatorIwEEE7compareEjjRKS5_jj), (8 bytes).
    Removing string.cpp.o(.text._ZNSt3__212basic_stringIwNS_11char_traitsIwEENS_9allocatorIwEEE6appendEPKw), (26 bytes).
    Removing string.cpp.o(.ARM.exidx.text._ZNSt3__212basic_stringIwNS_11char_traitsIwEENS_9allocatorIwEEE6appendEPKw), (8 bytes).
    Removing string.cpp.o(.text._ZNSt3__212basic_stringIwNS_11char_traitsIwEENS_9allocatorIwEEE7replaceEjjRKS5_jj), (68 bytes).
    Removing string.cpp.o(.ARM.exidx.text._ZNSt3__212basic_stringIwNS_11char_traitsIwEENS_9allocatorIwEEE7replaceEjjRKS5_jj), (8 bytes).
    Removing string.cpp.o(.text._ZNSt3__212basic_stringIwNS_11char_traitsIwEENS_9allocatorIwEEE6insertENS_11__wrap_iterIPKwEEw), (148 bytes).
    Removing string.cpp.o(.ARM.exidx.text._ZNSt3__212basic_stringIwNS_11char_traitsIwEENS_9allocatorIwEEE6insertENS_11__wrap_iterIPKwEEw), (8 bytes).
    Removing string.cpp.o(.text._ZNSt3__212basic_stringIwNS_11char_traitsIwEENS_9allocatorIwEEE6resizeEjw), (54 bytes).
    Removing string.cpp.o(.ARM.exidx.text._ZNSt3__212basic_stringIwNS_11char_traitsIwEENS_9allocatorIwEEE6resizeEjw), (8 bytes).
    Removing string.cpp.o(.text._ZNSt3__212basic_stringIwNS_11char_traitsIwEENS_9allocatorIwEEE6insertEjRKS5_jj), (62 bytes).
    Removing string.cpp.o(.ARM.exidx.text._ZNSt3__212basic_stringIwNS_11char_traitsIwEENS_9allocatorIwEEE6insertEjRKS5_jj), (8 bytes).
    Removing string.cpp.o(.text._ZNSt3__2plIcNS_11char_traitsIcEENS_9allocatorIcEEEENS_12basic_stringIT_T0_T1_EEPKS6_RKS9_), (134 bytes).
    Removing string.cpp.o(.ARM.exidx.text._ZNSt3__2plIcNS_11char_traitsIcEENS_9allocatorIcEEEENS_12basic_stringIT_T0_T1_EEPKS6_RKS9_), (8 bytes).
    Removing string.cpp.o(.text._ZNKSt3__217basic_string_viewIcNS_11char_traitsIcEEE7compareES3_), (46 bytes).
    Removing string.cpp.o(.ARM.exidx.text._ZNKSt3__217basic_string_viewIcNS_11char_traitsIcEEE7compareES3_), (8 bytes).
    Removing string.cpp.o(.text._ZNKSt3__217basic_string_viewIwNS_11char_traitsIwEEE7compareES3_), (50 bytes).
    Removing string.cpp.o(.ARM.exidx.text._ZNKSt3__217basic_string_viewIwNS_11char_traitsIwEEE7compareES3_), (8 bytes).
    Removing string.cpp.o(.rodata._ZNSt3__212basic_stringIcNS_11char_traitsIcEENS_9allocatorIcEEE4nposE), (4 bytes).
    Removing string.cpp.o(.rodata._ZNSt3__212basic_stringIwNS_11char_traitsIwEENS_9allocatorIwEEE4nposE), (4 bytes).
    Removing vector.cpp.o(.text._ZNSt3__220__vector_base_commonILb1EEC2Ev), (2 bytes).
    Removing vector.cpp.o(.ARM.exidx.text._ZNSt3__220__vector_base_commonILb1EEC2Ev), (8 bytes).
    Removing vector.cpp.o(.ARM.exidx.text._ZNKSt3__220__vector_base_commonILb1EE20__throw_length_errorEv), (8 bytes).
    Removing vector.cpp.o(.text._ZNKSt3__220__vector_base_commonILb1EE20__throw_out_of_rangeEv), (4 bytes).
    Removing vector.cpp.o(.ARM.exidx.text._ZNKSt3__220__vector_base_commonILb1EE20__throw_out_of_rangeEv), (8 bytes).

401 unused section(s) (total 18693 bytes) removed from the image.

==============================================================================

Image Symbol Table

    Local Symbols

    Symbol Name                              Value     Ov Type        Size  Object(Section)

    ../clib/angel/boardlib.s                 0x00000000   Number         0  boardinit1.o ABSOLUTE
    ../clib/angel/boardlib.s                 0x00000000   Number         0  boardinit2.o ABSOLUTE
    ../clib/angel/boardlib.s                 0x00000000   Number         0  boardinit3.o ABSOLUTE
    ../clib/angel/boardlib.s                 0x00000000   Number         0  boardshut.o ABSOLUTE
    ../clib/angel/handlers.s                 0x00000000   Number         0  __scatter_zi.o ABSOLUTE
    ../clib/angel/kernel.s                   0x00000000   Number         0  __rtentry.o ABSOLUTE
    ../clib/angel/kernel.s                   0x00000000   Number         0  __rtentry2.o ABSOLUTE
    ../clib/angel/kernel.s                   0x00000000   Number         0  __rtentry4.o ABSOLUTE
    ../clib/angel/kernel.s                   0x00000000   Number         0  rtexit.o ABSOLUTE
    ../clib/angel/kernel.s                   0x00000000   Number         0  rtexit2.o ABSOLUTE
    ../clib/angel/rt.s                       0x00000000   Number         0  rt_errno_addr.o ABSOLUTE
    ../clib/angel/rt.s                       0x00000000   Number         0  rt_errno_addr_intlibspace.o ABSOLUTE
    ../clib/angel/rt.s                       0x00000000   Number         0  rt_ctype_table.o ABSOLUTE
    ../clib/angel/rt.s                       0x00000000   Number         0  rt_raise.o ABSOLUTE
    ../clib/angel/rt.s                       0x00000000   Number         0  rt_heap_descriptor.o ABSOLUTE
    ../clib/angel/rt.s                       0x00000000   Number         0  rt_heap_descriptor_intlibspace.o ABSOLUTE
    ../clib/angel/rt.s                       0x00000000   Number         0  aeabi_ldiv0.o ABSOLUTE
    ../clib/angel/rt.s                       0x00000000   Number         0  aeabi_ldiv0_sigfpe.o ABSOLUTE
    ../clib/angel/rt.s                       0x00000000   Number         0  rt_locale.o ABSOLUTE
    ../clib/angel/rt.s                       0x00000000   Number         0  rt_locale_intlibspace.o ABSOLUTE
    ../clib/angel/rt.s                       0x00000000   Number         0  rt_div0.o ABSOLUTE
    ../clib/angel/scatter.s                  0x00000000   Number         0  __scatter.o ABSOLUTE
    ../clib/angel/startup.s                  0x00000000   Number         0  __main.o ABSOLUTE
    ../clib/angel/sys.s                      0x00000000   Number         0  libspace.o ABSOLUTE
    ../clib/angel/sys.s                      0x00000000   Number         0  use_no_semi.o ABSOLUTE
    ../clib/angel/sys.s                      0x00000000   Number         0  mutex_dummy.o ABSOLUTE
    ../clib/angel/sys.s                      0x00000000   Number         0  indicate_semi.o ABSOLUTE
    ../clib/angel/sys.s                      0x00000000   Number         0  sys_stackheap_outer.o ABSOLUTE
    ../clib/angel/sysapp.c                   0x00000000   Number         0  sys_exit.o ABSOLUTE
    ../clib/angel/sysapp.c                   0x00000000   Number         0  sys_exit_hlt.o ABSOLUTE
    ../clib/angel/sysapp.c                   0x00000000   Number         0  sys_command.o ABSOLUTE
    ../clib/angel/sysapp.c                   0x00000000   Number         0  sys_io_names.o ABSOLUTE
    ../clib/angel/sysapp.c                   0x00000000   Number         0  sys_command_hlt.o ABSOLUTE
    ../clib/angel/sysapp.c                   0x00000000   Number         0  sys_io.o ABSOLUTE
    ../clib/angel/sysapp.c                   0x00000000   Number         0  sys_wrch.o ABSOLUTE
    ../clib/angel/sysapp.c                   0x00000000   Number         0  sys_io_hlt.o ABSOLUTE
    ../clib/angel/sysapp.c                   0x00000000   Number         0  sys_wrch_hlt.o ABSOLUTE
    ../clib/armsys.c                         0x00000000   Number         0  _get_argv.o ABSOLUTE
    ../clib/armsys.c                         0x00000000   Number         0  argv_veneer.o ABSOLUTE
    ../clib/armsys.c                         0x00000000   Number         0  argv_veneer.o ABSOLUTE
    ../clib/armsys.c                         0x00000000   Number         0  _get_argv_nomalloc.o ABSOLUTE
    ../clib/armsys.c                         0x00000000   Number         0  no_argv.o ABSOLUTE
    ../clib/assert.c                         0x00000000   Number         0  assert_stdio.o ABSOLUTE
    ../clib/bigflt.c                         0x00000000   Number         0  bigflt0.o ABSOLUTE
    ../clib/btod.s                           0x00000000   Number         0  btod.o ABSOLUTE
    ../clib/btod_accurate.c                  0x00000000   Number         0  btod_accurate.o ABSOLUTE
    ../clib/btod_accurate.c                  0x00000000   Number         0  btod_accurate_common.o ABSOLUTE
    ../clib/btod_accurate.c                  0x00000000   Number         0  dtob_accurate.o ABSOLUTE
    ../clib/ctype.c                          0x00000000   Number         0  _iswspace.o ABSOLUTE
    ../clib/ctype.c                          0x00000000   Number         0  isspace.o ABSOLUTE
    ../clib/ctype.c                          0x00000000   Number         0  wclass_c.o ABSOLUTE
    ../clib/fenv.c                           0x00000000   Number         0  _rserrno.o ABSOLUTE
    ../clib/heap1.c                          0x00000000   Number         0  h1_alloc.o ABSOLUTE
    ../clib/heap1.c                          0x00000000   Number         0  h1_free.o ABSOLUTE
    ../clib/heap1.c                          0x00000000   Number         0  h1_memalign.o ABSOLUTE
    ../clib/heap1.c                          0x00000000   Number         0  h1_alloc_threads.o ABSOLUTE
    ../clib/heap1.c                          0x00000000   Number         0  h1_free_threads.o ABSOLUTE
    ../clib/heap1.c                          0x00000000   Number         0  h1_memalign_threads.o ABSOLUTE
    ../clib/heap1.c                          0x00000000   Number         0  h1_init.o ABSOLUTE
    ../clib/heap1.c                          0x00000000   Number         0  h1_init_threads.o ABSOLUTE
    ../clib/heap1.c                          0x00000000   Number         0  h1_extend.o ABSOLUTE
    ../clib/heap1.c                          0x00000000   Number         0  h1_extend_threads.o ABSOLUTE
    ../clib/heap1.c                          0x00000000   Number         0  h1_final.o ABSOLUTE
    ../clib/heap1.c                          0x00000000   Number         0  h1_final_threads.o ABSOLUTE
    ../clib/heap2.c                          0x00000000   Number         0  heap2.o ABSOLUTE
    ../clib/heap2.c                          0x00000000   Number         0  heap2_threads.o ABSOLUTE
    ../clib/heap2.c                          0x00000000   Number         0  fdtree.o ABSOLUTE
    ../clib/heapalloc.c                      0x00000000   Number         0  malloc.o ABSOLUTE
    ../clib/heapalloc.c                      0x00000000   Number         0  free.o ABSOLUTE
    ../clib/heapalloc.c                      0x00000000   Number         0  hguard.o ABSOLUTE
    ../clib/heapalloc.c                      0x00000000   Number         0  init_alloc.o ABSOLUTE
    ../clib/heapalloc.c                      0x00000000   Number         0  heapstubs.o ABSOLUTE
    ../clib/heapalloc.c                      0x00000000   Number         0  hrguard.o ABSOLUTE
    ../clib/heapalloc.c                      0x00000000   Number         0  term_alloc.o ABSOLUTE
    ../clib/heapaux.c                        0x00000000   Number         0  heapauxi.o ABSOLUTE
    ../clib/heapaux.c                        0x00000000   Number         0  heapauxa.o ABSOLUTE
    ../clib/libinit.s                        0x00000000   Number         0  libinit2.o ABSOLUTE
    ../clib/libinit.s                        0x00000000   Number         0  libinit.o ABSOLUTE
    ../clib/libinit.s                        0x00000000   Number         0  libshutdown2.o ABSOLUTE
    ../clib/libinit.s                        0x00000000   Number         0  libshutdown.o ABSOLUTE
    ../clib/locale.s                         0x00000000   Number         0  lc_ctype_c.o ABSOLUTE
    ../clib/locale.s                         0x00000000   Number         0  lc_numeric_c.o ABSOLUTE
    ../clib/longlong.s                       0x00000000   Number         0  lludivv7m.o ABSOLUTE
    ../clib/longlong.s                       0x00000000   Number         0  lludiv10.o ABSOLUTE
    ../clib/longlong.s                       0x00000000   Number         0  llshl.o ABSOLUTE
    ../clib/longlong.s                       0x00000000   Number         0  llushr.o ABSOLUTE
    ../clib/maybe.s                          0x00000000   Number         0  maybetermalloc1.o ABSOLUTE
    ../clib/maybe.s                          0x00000000   Number         0  maybetermalloc2.o ABSOLUTE
    ../clib/memcpset.s                       0x00000000   Number         0  rt_memcpy_v6.o ABSOLUTE
    ../clib/memcpset.s                       0x00000000   Number         0  rt_memmove_v6.o ABSOLUTE
    ../clib/memcpset.s                       0x00000000   Number         0  rt_memcpy_w.o ABSOLUTE
    ../clib/memcpset.s                       0x00000000   Number         0  aeabi_memset.o ABSOLUTE
    ../clib/memcpset.s                       0x00000000   Number         0  memcpy.o ABSOLUTE
    ../clib/memcpset.s                       0x00000000   Number         0  memmove.o ABSOLUTE
    ../clib/memcpset.s                       0x00000000   Number         0  rt_memmove_w.o ABSOLUTE
    ../clib/memcpset.s                       0x00000000   Number         0  rt_memclr.o ABSOLUTE
    ../clib/memcpset.s                       0x00000000   Number         0  rt_memclr_w.o ABSOLUTE
    ../clib/memcpset.s                       0x00000000   Number         0  strcmpv7m.o ABSOLUTE
